
BUV_panel.elf:     file format elf32-littlearm

Sections:
Idx Name          Size      VMA       LMA       File off  Algn
  0 .isr_vector   000001ac  08000000  08000000  00010000  2**0
                  CONTENTS, ALLOC, LOAD, READONLY, DATA
  1 .text         00008730  080001b0  080001b0  000101b0  2**3
                  CONTENTS, ALLOC, LOAD, READONLY, CODE
  2 .rodata       000056d0  080088e0  080088e0  000188e0  2**3
                  CONTENTS, ALLOC, LOAD, READONLY, DATA
  3 .ARM.extab    00000000  0800dfb0  0800dfb0  00020088  2**0
                  CONTENTS
  4 .ARM          00000008  0800dfb0  0800dfb0  0001dfb0  2**2
                  CONTENTS, ALLOC, LOAD, READONLY, DATA
  5 .preinit_array 00000000  0800dfb8  0800dfb8  00020088  2**0
                  CONTENTS, ALLOC, LOAD, DATA
  6 .init_array   00000004  0800dfb8  0800dfb8  0001dfb8  2**2
                  CONTENTS, ALLOC, LOAD, DATA
  7 .fini_array   00000004  0800dfbc  0800dfbc  0001dfbc  2**2
                  CONTENTS, ALLOC, LOAD, DATA
  8 .data         00000088  20000000  0800dfc0  00020000  2**3
                  CONTENTS, ALLOC, LOAD, DATA
  9 .ccmram       00000000  10000000  10000000  00020088  2**0
                  CONTENTS
 10 .bss          00000c80  20000088  20000088  00020088  2**2
                  ALLOC
 11 ._user_heap_stack 00000600  20000d08  20000d08  00020088  2**0
                  ALLOC
 12 .ARM.attributes 00000030  00000000  00000000  00020088  2**0
                  CONTENTS, READONLY
 13 .comment      00000043  00000000  00000000  000200b8  2**0
                  CONTENTS, READONLY
 14 .debug_frame  00000784  00000000  00000000  000200fc  2**2
                  CONTENTS, READONLY, DEBUGGING, OCTETS

Disassembly of section .text:

080001b0 <__do_global_dtors_aux>:
 80001b0:	b510      	push	{r4, lr}
 80001b2:	4c05      	ldr	r4, [pc, #20]	; (80001c8 <__do_global_dtors_aux+0x18>)
 80001b4:	7823      	ldrb	r3, [r4, #0]
 80001b6:	b933      	cbnz	r3, 80001c6 <__do_global_dtors_aux+0x16>
 80001b8:	4b04      	ldr	r3, [pc, #16]	; (80001cc <__do_global_dtors_aux+0x1c>)
 80001ba:	b113      	cbz	r3, 80001c2 <__do_global_dtors_aux+0x12>
 80001bc:	4804      	ldr	r0, [pc, #16]	; (80001d0 <__do_global_dtors_aux+0x20>)
 80001be:	f3af 8000 	nop.w
 80001c2:	2301      	movs	r3, #1
 80001c4:	7023      	strb	r3, [r4, #0]
 80001c6:	bd10      	pop	{r4, pc}
 80001c8:	20000088 	.word	0x20000088
 80001cc:	00000000 	.word	0x00000000
 80001d0:	080088c8 	.word	0x080088c8

080001d4 <frame_dummy>:
 80001d4:	b508      	push	{r3, lr}
 80001d6:	4b03      	ldr	r3, [pc, #12]	; (80001e4 <frame_dummy+0x10>)
 80001d8:	b11b      	cbz	r3, 80001e2 <frame_dummy+0xe>
 80001da:	4903      	ldr	r1, [pc, #12]	; (80001e8 <frame_dummy+0x14>)
 80001dc:	4803      	ldr	r0, [pc, #12]	; (80001ec <frame_dummy+0x18>)
 80001de:	f3af 8000 	nop.w
 80001e2:	bd08      	pop	{r3, pc}
 80001e4:	00000000 	.word	0x00000000
 80001e8:	2000008c 	.word	0x2000008c
 80001ec:	080088c8 	.word	0x080088c8

080001f0 <__aeabi_drsub>:
 80001f0:	f081 4100 	eor.w	r1, r1, #2147483648	; 0x80000000
 80001f4:	e002      	b.n	80001fc <__adddf3>
 80001f6:	bf00      	nop

080001f8 <__aeabi_dsub>:
 80001f8:	f083 4300 	eor.w	r3, r3, #2147483648	; 0x80000000

080001fc <__adddf3>:
 80001fc:	b530      	push	{r4, r5, lr}
 80001fe:	ea4f 0441 	mov.w	r4, r1, lsl #1
 8000202:	ea4f 0543 	mov.w	r5, r3, lsl #1
 8000206:	ea94 0f05 	teq	r4, r5
 800020a:	bf08      	it	eq
 800020c:	ea90 0f02 	teqeq	r0, r2
 8000210:	bf1f      	itttt	ne
 8000212:	ea54 0c00 	orrsne.w	ip, r4, r0
 8000216:	ea55 0c02 	orrsne.w	ip, r5, r2
 800021a:	ea7f 5c64 	mvnsne.w	ip, r4, asr #21
 800021e:	ea7f 5c65 	mvnsne.w	ip, r5, asr #21
 8000222:	f000 80e2 	beq.w	80003ea <__adddf3+0x1ee>
 8000226:	ea4f 5454 	mov.w	r4, r4, lsr #21
 800022a:	ebd4 5555 	rsbs	r5, r4, r5, lsr #21
 800022e:	bfb8      	it	lt
 8000230:	426d      	neglt	r5, r5
 8000232:	dd0c      	ble.n	800024e <__adddf3+0x52>
 8000234:	442c      	add	r4, r5
 8000236:	ea80 0202 	eor.w	r2, r0, r2
 800023a:	ea81 0303 	eor.w	r3, r1, r3
 800023e:	ea82 0000 	eor.w	r0, r2, r0
 8000242:	ea83 0101 	eor.w	r1, r3, r1
 8000246:	ea80 0202 	eor.w	r2, r0, r2
 800024a:	ea81 0303 	eor.w	r3, r1, r3
 800024e:	2d36      	cmp	r5, #54	; 0x36
 8000250:	bf88      	it	hi
 8000252:	bd30      	pophi	{r4, r5, pc}
 8000254:	f011 4f00 	tst.w	r1, #2147483648	; 0x80000000
 8000258:	ea4f 3101 	mov.w	r1, r1, lsl #12
 800025c:	f44f 1c80 	mov.w	ip, #1048576	; 0x100000
 8000260:	ea4c 3111 	orr.w	r1, ip, r1, lsr #12
 8000264:	d002      	beq.n	800026c <__adddf3+0x70>
 8000266:	4240      	negs	r0, r0
 8000268:	eb61 0141 	sbc.w	r1, r1, r1, lsl #1
 800026c:	f013 4f00 	tst.w	r3, #2147483648	; 0x80000000
 8000270:	ea4f 3303 	mov.w	r3, r3, lsl #12
 8000274:	ea4c 3313 	orr.w	r3, ip, r3, lsr #12
 8000278:	d002      	beq.n	8000280 <__adddf3+0x84>
 800027a:	4252      	negs	r2, r2
 800027c:	eb63 0343 	sbc.w	r3, r3, r3, lsl #1
 8000280:	ea94 0f05 	teq	r4, r5
 8000284:	f000 80a7 	beq.w	80003d6 <__adddf3+0x1da>
 8000288:	f1a4 0401 	sub.w	r4, r4, #1
 800028c:	f1d5 0e20 	rsbs	lr, r5, #32
 8000290:	db0d      	blt.n	80002ae <__adddf3+0xb2>
 8000292:	fa02 fc0e 	lsl.w	ip, r2, lr
 8000296:	fa22 f205 	lsr.w	r2, r2, r5
 800029a:	1880      	adds	r0, r0, r2
 800029c:	f141 0100 	adc.w	r1, r1, #0
 80002a0:	fa03 f20e 	lsl.w	r2, r3, lr
 80002a4:	1880      	adds	r0, r0, r2
 80002a6:	fa43 f305 	asr.w	r3, r3, r5
 80002aa:	4159      	adcs	r1, r3
 80002ac:	e00e      	b.n	80002cc <__adddf3+0xd0>
 80002ae:	f1a5 0520 	sub.w	r5, r5, #32
 80002b2:	f10e 0e20 	add.w	lr, lr, #32
 80002b6:	2a01      	cmp	r2, #1
 80002b8:	fa03 fc0e 	lsl.w	ip, r3, lr
 80002bc:	bf28      	it	cs
 80002be:	f04c 0c02 	orrcs.w	ip, ip, #2
 80002c2:	fa43 f305 	asr.w	r3, r3, r5
 80002c6:	18c0      	adds	r0, r0, r3
 80002c8:	eb51 71e3 	adcs.w	r1, r1, r3, asr #31
 80002cc:	f001 4500 	and.w	r5, r1, #2147483648	; 0x80000000
 80002d0:	d507      	bpl.n	80002e2 <__adddf3+0xe6>
 80002d2:	f04f 0e00 	mov.w	lr, #0
 80002d6:	f1dc 0c00 	rsbs	ip, ip, #0
 80002da:	eb7e 0000 	sbcs.w	r0, lr, r0
 80002de:	eb6e 0101 	sbc.w	r1, lr, r1
 80002e2:	f5b1 1f80 	cmp.w	r1, #1048576	; 0x100000
 80002e6:	d31b      	bcc.n	8000320 <__adddf3+0x124>
 80002e8:	f5b1 1f00 	cmp.w	r1, #2097152	; 0x200000
 80002ec:	d30c      	bcc.n	8000308 <__adddf3+0x10c>
 80002ee:	0849      	lsrs	r1, r1, #1
 80002f0:	ea5f 0030 	movs.w	r0, r0, rrx
 80002f4:	ea4f 0c3c 	mov.w	ip, ip, rrx
 80002f8:	f104 0401 	add.w	r4, r4, #1
 80002fc:	ea4f 5244 	mov.w	r2, r4, lsl #21
 8000300:	f512 0f80 	cmn.w	r2, #4194304	; 0x400000
 8000304:	f080 809a 	bcs.w	800043c <__adddf3+0x240>
 8000308:	f1bc 4f00 	cmp.w	ip, #2147483648	; 0x80000000
 800030c:	bf08      	it	eq
 800030e:	ea5f 0c50 	movseq.w	ip, r0, lsr #1
 8000312:	f150 0000 	adcs.w	r0, r0, #0
 8000316:	eb41 5104 	adc.w	r1, r1, r4, lsl #20
 800031a:	ea41 0105 	orr.w	r1, r1, r5
 800031e:	bd30      	pop	{r4, r5, pc}
 8000320:	ea5f 0c4c 	movs.w	ip, ip, lsl #1
 8000324:	4140      	adcs	r0, r0
 8000326:	eb41 0101 	adc.w	r1, r1, r1
 800032a:	3c01      	subs	r4, #1
 800032c:	bf28      	it	cs
 800032e:	f5b1 1f80 	cmpcs.w	r1, #1048576	; 0x100000
 8000332:	d2e9      	bcs.n	8000308 <__adddf3+0x10c>
 8000334:	f091 0f00 	teq	r1, #0
 8000338:	bf04      	itt	eq
 800033a:	4601      	moveq	r1, r0
 800033c:	2000      	moveq	r0, #0
 800033e:	fab1 f381 	clz	r3, r1
 8000342:	bf08      	it	eq
 8000344:	3320      	addeq	r3, #32
 8000346:	f1a3 030b 	sub.w	r3, r3, #11
 800034a:	f1b3 0220 	subs.w	r2, r3, #32
 800034e:	da0c      	bge.n	800036a <__adddf3+0x16e>
 8000350:	320c      	adds	r2, #12
 8000352:	dd08      	ble.n	8000366 <__adddf3+0x16a>
 8000354:	f102 0c14 	add.w	ip, r2, #20
 8000358:	f1c2 020c 	rsb	r2, r2, #12
 800035c:	fa01 f00c 	lsl.w	r0, r1, ip
 8000360:	fa21 f102 	lsr.w	r1, r1, r2
 8000364:	e00c      	b.n	8000380 <__adddf3+0x184>
 8000366:	f102 0214 	add.w	r2, r2, #20
 800036a:	bfd8      	it	le
 800036c:	f1c2 0c20 	rsble	ip, r2, #32
 8000370:	fa01 f102 	lsl.w	r1, r1, r2
 8000374:	fa20 fc0c 	lsr.w	ip, r0, ip
 8000378:	bfdc      	itt	le
 800037a:	ea41 010c 	orrle.w	r1, r1, ip
 800037e:	4090      	lslle	r0, r2
 8000380:	1ae4      	subs	r4, r4, r3
 8000382:	bfa2      	ittt	ge
 8000384:	eb01 5104 	addge.w	r1, r1, r4, lsl #20
 8000388:	4329      	orrge	r1, r5
 800038a:	bd30      	popge	{r4, r5, pc}
 800038c:	ea6f 0404 	mvn.w	r4, r4
 8000390:	3c1f      	subs	r4, #31
 8000392:	da1c      	bge.n	80003ce <__adddf3+0x1d2>
 8000394:	340c      	adds	r4, #12
 8000396:	dc0e      	bgt.n	80003b6 <__adddf3+0x1ba>
 8000398:	f104 0414 	add.w	r4, r4, #20
 800039c:	f1c4 0220 	rsb	r2, r4, #32
 80003a0:	fa20 f004 	lsr.w	r0, r0, r4
 80003a4:	fa01 f302 	lsl.w	r3, r1, r2
 80003a8:	ea40 0003 	orr.w	r0, r0, r3
 80003ac:	fa21 f304 	lsr.w	r3, r1, r4
 80003b0:	ea45 0103 	orr.w	r1, r5, r3
 80003b4:	bd30      	pop	{r4, r5, pc}
 80003b6:	f1c4 040c 	rsb	r4, r4, #12
 80003ba:	f1c4 0220 	rsb	r2, r4, #32
 80003be:	fa20 f002 	lsr.w	r0, r0, r2
 80003c2:	fa01 f304 	lsl.w	r3, r1, r4
 80003c6:	ea40 0003 	orr.w	r0, r0, r3
 80003ca:	4629      	mov	r1, r5
 80003cc:	bd30      	pop	{r4, r5, pc}
 80003ce:	fa21 f004 	lsr.w	r0, r1, r4
 80003d2:	4629      	mov	r1, r5
 80003d4:	bd30      	pop	{r4, r5, pc}
 80003d6:	f094 0f00 	teq	r4, #0
 80003da:	f483 1380 	eor.w	r3, r3, #1048576	; 0x100000
 80003de:	bf06      	itte	eq
 80003e0:	f481 1180 	eoreq.w	r1, r1, #1048576	; 0x100000
 80003e4:	3401      	addeq	r4, #1
 80003e6:	3d01      	subne	r5, #1
 80003e8:	e74e      	b.n	8000288 <__adddf3+0x8c>
 80003ea:	ea7f 5c64 	mvns.w	ip, r4, asr #21
 80003ee:	bf18      	it	ne
 80003f0:	ea7f 5c65 	mvnsne.w	ip, r5, asr #21
 80003f4:	d029      	beq.n	800044a <__adddf3+0x24e>
 80003f6:	ea94 0f05 	teq	r4, r5
 80003fa:	bf08      	it	eq
 80003fc:	ea90 0f02 	teqeq	r0, r2
 8000400:	d005      	beq.n	800040e <__adddf3+0x212>
 8000402:	ea54 0c00 	orrs.w	ip, r4, r0
 8000406:	bf04      	itt	eq
 8000408:	4619      	moveq	r1, r3
 800040a:	4610      	moveq	r0, r2
 800040c:	bd30      	pop	{r4, r5, pc}
 800040e:	ea91 0f03 	teq	r1, r3
 8000412:	bf1e      	ittt	ne
 8000414:	2100      	movne	r1, #0
 8000416:	2000      	movne	r0, #0
 8000418:	bd30      	popne	{r4, r5, pc}
 800041a:	ea5f 5c54 	movs.w	ip, r4, lsr #21
 800041e:	d105      	bne.n	800042c <__adddf3+0x230>
 8000420:	0040      	lsls	r0, r0, #1
 8000422:	4149      	adcs	r1, r1
 8000424:	bf28      	it	cs
 8000426:	f041 4100 	orrcs.w	r1, r1, #2147483648	; 0x80000000
 800042a:	bd30      	pop	{r4, r5, pc}
 800042c:	f514 0480 	adds.w	r4, r4, #4194304	; 0x400000
 8000430:	bf3c      	itt	cc
 8000432:	f501 1180 	addcc.w	r1, r1, #1048576	; 0x100000
 8000436:	bd30      	popcc	{r4, r5, pc}
 8000438:	f001 4500 	and.w	r5, r1, #2147483648	; 0x80000000
 800043c:	f045 41fe 	orr.w	r1, r5, #2130706432	; 0x7f000000
 8000440:	f441 0170 	orr.w	r1, r1, #15728640	; 0xf00000
 8000444:	f04f 0000 	mov.w	r0, #0
 8000448:	bd30      	pop	{r4, r5, pc}
 800044a:	ea7f 5c64 	mvns.w	ip, r4, asr #21
 800044e:	bf1a      	itte	ne
 8000450:	4619      	movne	r1, r3
 8000452:	4610      	movne	r0, r2
 8000454:	ea7f 5c65 	mvnseq.w	ip, r5, asr #21
 8000458:	bf1c      	itt	ne
 800045a:	460b      	movne	r3, r1
 800045c:	4602      	movne	r2, r0
 800045e:	ea50 3401 	orrs.w	r4, r0, r1, lsl #12
 8000462:	bf06      	itte	eq
 8000464:	ea52 3503 	orrseq.w	r5, r2, r3, lsl #12
 8000468:	ea91 0f03 	teqeq	r1, r3
 800046c:	f441 2100 	orrne.w	r1, r1, #524288	; 0x80000
 8000470:	bd30      	pop	{r4, r5, pc}
 8000472:	bf00      	nop

08000474 <__aeabi_ui2d>:
 8000474:	f090 0f00 	teq	r0, #0
 8000478:	bf04      	itt	eq
 800047a:	2100      	moveq	r1, #0
 800047c:	4770      	bxeq	lr
 800047e:	b530      	push	{r4, r5, lr}
 8000480:	f44f 6480 	mov.w	r4, #1024	; 0x400
 8000484:	f104 0432 	add.w	r4, r4, #50	; 0x32
 8000488:	f04f 0500 	mov.w	r5, #0
 800048c:	f04f 0100 	mov.w	r1, #0
 8000490:	e750      	b.n	8000334 <__adddf3+0x138>
 8000492:	bf00      	nop

08000494 <__aeabi_i2d>:
 8000494:	f090 0f00 	teq	r0, #0
 8000498:	bf04      	itt	eq
 800049a:	2100      	moveq	r1, #0
 800049c:	4770      	bxeq	lr
 800049e:	b530      	push	{r4, r5, lr}
 80004a0:	f44f 6480 	mov.w	r4, #1024	; 0x400
 80004a4:	f104 0432 	add.w	r4, r4, #50	; 0x32
 80004a8:	f010 4500 	ands.w	r5, r0, #2147483648	; 0x80000000
 80004ac:	bf48      	it	mi
 80004ae:	4240      	negmi	r0, r0
 80004b0:	f04f 0100 	mov.w	r1, #0
 80004b4:	e73e      	b.n	8000334 <__adddf3+0x138>
 80004b6:	bf00      	nop

080004b8 <__aeabi_f2d>:
 80004b8:	0042      	lsls	r2, r0, #1
 80004ba:	ea4f 01e2 	mov.w	r1, r2, asr #3
 80004be:	ea4f 0131 	mov.w	r1, r1, rrx
 80004c2:	ea4f 7002 	mov.w	r0, r2, lsl #28
 80004c6:	bf1f      	itttt	ne
 80004c8:	f012 437f 	andsne.w	r3, r2, #4278190080	; 0xff000000
 80004cc:	f093 4f7f 	teqne	r3, #4278190080	; 0xff000000
 80004d0:	f081 5160 	eorne.w	r1, r1, #939524096	; 0x38000000
 80004d4:	4770      	bxne	lr
 80004d6:	f032 427f 	bics.w	r2, r2, #4278190080	; 0xff000000
 80004da:	bf08      	it	eq
 80004dc:	4770      	bxeq	lr
 80004de:	f093 4f7f 	teq	r3, #4278190080	; 0xff000000
 80004e2:	bf04      	itt	eq
 80004e4:	f441 2100 	orreq.w	r1, r1, #524288	; 0x80000
 80004e8:	4770      	bxeq	lr
 80004ea:	b530      	push	{r4, r5, lr}
 80004ec:	f44f 7460 	mov.w	r4, #896	; 0x380
 80004f0:	f001 4500 	and.w	r5, r1, #2147483648	; 0x80000000
 80004f4:	f021 4100 	bic.w	r1, r1, #2147483648	; 0x80000000
 80004f8:	e71c      	b.n	8000334 <__adddf3+0x138>
 80004fa:	bf00      	nop

080004fc <__aeabi_ul2d>:
 80004fc:	ea50 0201 	orrs.w	r2, r0, r1
 8000500:	bf08      	it	eq
 8000502:	4770      	bxeq	lr
 8000504:	b530      	push	{r4, r5, lr}
 8000506:	f04f 0500 	mov.w	r5, #0
 800050a:	e00a      	b.n	8000522 <__aeabi_l2d+0x16>

0800050c <__aeabi_l2d>:
 800050c:	ea50 0201 	orrs.w	r2, r0, r1
 8000510:	bf08      	it	eq
 8000512:	4770      	bxeq	lr
 8000514:	b530      	push	{r4, r5, lr}
 8000516:	f011 4500 	ands.w	r5, r1, #2147483648	; 0x80000000
 800051a:	d502      	bpl.n	8000522 <__aeabi_l2d+0x16>
 800051c:	4240      	negs	r0, r0
 800051e:	eb61 0141 	sbc.w	r1, r1, r1, lsl #1
 8000522:	f44f 6480 	mov.w	r4, #1024	; 0x400
 8000526:	f104 0432 	add.w	r4, r4, #50	; 0x32
 800052a:	ea5f 5c91 	movs.w	ip, r1, lsr #22
 800052e:	f43f aed8 	beq.w	80002e2 <__adddf3+0xe6>
 8000532:	f04f 0203 	mov.w	r2, #3
 8000536:	ea5f 0cdc 	movs.w	ip, ip, lsr #3
 800053a:	bf18      	it	ne
 800053c:	3203      	addne	r2, #3
 800053e:	ea5f 0cdc 	movs.w	ip, ip, lsr #3
 8000542:	bf18      	it	ne
 8000544:	3203      	addne	r2, #3
 8000546:	eb02 02dc 	add.w	r2, r2, ip, lsr #3
 800054a:	f1c2 0320 	rsb	r3, r2, #32
 800054e:	fa00 fc03 	lsl.w	ip, r0, r3
 8000552:	fa20 f002 	lsr.w	r0, r0, r2
 8000556:	fa01 fe03 	lsl.w	lr, r1, r3
 800055a:	ea40 000e 	orr.w	r0, r0, lr
 800055e:	fa21 f102 	lsr.w	r1, r1, r2
 8000562:	4414      	add	r4, r2
 8000564:	e6bd      	b.n	80002e2 <__adddf3+0xe6>
 8000566:	bf00      	nop

08000568 <__aeabi_dmul>:
 8000568:	b570      	push	{r4, r5, r6, lr}
 800056a:	f04f 0cff 	mov.w	ip, #255	; 0xff
 800056e:	f44c 6ce0 	orr.w	ip, ip, #1792	; 0x700
 8000572:	ea1c 5411 	ands.w	r4, ip, r1, lsr #20
 8000576:	bf1d      	ittte	ne
 8000578:	ea1c 5513 	andsne.w	r5, ip, r3, lsr #20
 800057c:	ea94 0f0c 	teqne	r4, ip
 8000580:	ea95 0f0c 	teqne	r5, ip
 8000584:	f000 f8de 	bleq	8000744 <__aeabi_dmul+0x1dc>
 8000588:	442c      	add	r4, r5
 800058a:	ea81 0603 	eor.w	r6, r1, r3
 800058e:	ea21 514c 	bic.w	r1, r1, ip, lsl #21
 8000592:	ea23 534c 	bic.w	r3, r3, ip, lsl #21
 8000596:	ea50 3501 	orrs.w	r5, r0, r1, lsl #12
 800059a:	bf18      	it	ne
 800059c:	ea52 3503 	orrsne.w	r5, r2, r3, lsl #12
 80005a0:	f441 1180 	orr.w	r1, r1, #1048576	; 0x100000
 80005a4:	f443 1380 	orr.w	r3, r3, #1048576	; 0x100000
 80005a8:	d038      	beq.n	800061c <__aeabi_dmul+0xb4>
 80005aa:	fba0 ce02 	umull	ip, lr, r0, r2
 80005ae:	f04f 0500 	mov.w	r5, #0
 80005b2:	fbe1 e502 	umlal	lr, r5, r1, r2
 80005b6:	f006 4200 	and.w	r2, r6, #2147483648	; 0x80000000
 80005ba:	fbe0 e503 	umlal	lr, r5, r0, r3
 80005be:	f04f 0600 	mov.w	r6, #0
 80005c2:	fbe1 5603 	umlal	r5, r6, r1, r3
 80005c6:	f09c 0f00 	teq	ip, #0
 80005ca:	bf18      	it	ne
 80005cc:	f04e 0e01 	orrne.w	lr, lr, #1
 80005d0:	f1a4 04ff 	sub.w	r4, r4, #255	; 0xff
 80005d4:	f5b6 7f00 	cmp.w	r6, #512	; 0x200
 80005d8:	f564 7440 	sbc.w	r4, r4, #768	; 0x300
 80005dc:	d204      	bcs.n	80005e8 <__aeabi_dmul+0x80>
 80005de:	ea5f 0e4e 	movs.w	lr, lr, lsl #1
 80005e2:	416d      	adcs	r5, r5
 80005e4:	eb46 0606 	adc.w	r6, r6, r6
 80005e8:	ea42 21c6 	orr.w	r1, r2, r6, lsl #11
 80005ec:	ea41 5155 	orr.w	r1, r1, r5, lsr #21
 80005f0:	ea4f 20c5 	mov.w	r0, r5, lsl #11
 80005f4:	ea40 505e 	orr.w	r0, r0, lr, lsr #21
 80005f8:	ea4f 2ece 	mov.w	lr, lr, lsl #11
 80005fc:	f1b4 0cfd 	subs.w	ip, r4, #253	; 0xfd
 8000600:	bf88      	it	hi
 8000602:	f5bc 6fe0 	cmphi.w	ip, #1792	; 0x700
 8000606:	d81e      	bhi.n	8000646 <__aeabi_dmul+0xde>
 8000608:	f1be 4f00 	cmp.w	lr, #2147483648	; 0x80000000
 800060c:	bf08      	it	eq
 800060e:	ea5f 0e50 	movseq.w	lr, r0, lsr #1
 8000612:	f150 0000 	adcs.w	r0, r0, #0
 8000616:	eb41 5104 	adc.w	r1, r1, r4, lsl #20
 800061a:	bd70      	pop	{r4, r5, r6, pc}
 800061c:	f006 4600 	and.w	r6, r6, #2147483648	; 0x80000000
 8000620:	ea46 0101 	orr.w	r1, r6, r1
 8000624:	ea40 0002 	orr.w	r0, r0, r2
 8000628:	ea81 0103 	eor.w	r1, r1, r3
 800062c:	ebb4 045c 	subs.w	r4, r4, ip, lsr #1
 8000630:	bfc2      	ittt	gt
 8000632:	ebd4 050c 	rsbsgt	r5, r4, ip
 8000636:	ea41 5104 	orrgt.w	r1, r1, r4, lsl #20
 800063a:	bd70      	popgt	{r4, r5, r6, pc}
 800063c:	f441 1180 	orr.w	r1, r1, #1048576	; 0x100000
 8000640:	f04f 0e00 	mov.w	lr, #0
 8000644:	3c01      	subs	r4, #1
 8000646:	f300 80ab 	bgt.w	80007a0 <__aeabi_dmul+0x238>
 800064a:	f114 0f36 	cmn.w	r4, #54	; 0x36
 800064e:	bfde      	ittt	le
 8000650:	2000      	movle	r0, #0
 8000652:	f001 4100 	andle.w	r1, r1, #2147483648	; 0x80000000
 8000656:	bd70      	pople	{r4, r5, r6, pc}
 8000658:	f1c4 0400 	rsb	r4, r4, #0
 800065c:	3c20      	subs	r4, #32
 800065e:	da35      	bge.n	80006cc <__aeabi_dmul+0x164>
 8000660:	340c      	adds	r4, #12
 8000662:	dc1b      	bgt.n	800069c <__aeabi_dmul+0x134>
 8000664:	f104 0414 	add.w	r4, r4, #20
 8000668:	f1c4 0520 	rsb	r5, r4, #32
 800066c:	fa00 f305 	lsl.w	r3, r0, r5
 8000670:	fa20 f004 	lsr.w	r0, r0, r4
 8000674:	fa01 f205 	lsl.w	r2, r1, r5
 8000678:	ea40 0002 	orr.w	r0, r0, r2
 800067c:	f001 4200 	and.w	r2, r1, #2147483648	; 0x80000000
 8000680:	f021 4100 	bic.w	r1, r1, #2147483648	; 0x80000000
 8000684:	eb10 70d3 	adds.w	r0, r0, r3, lsr #31
 8000688:	fa21 f604 	lsr.w	r6, r1, r4
 800068c:	eb42 0106 	adc.w	r1, r2, r6
 8000690:	ea5e 0e43 	orrs.w	lr, lr, r3, lsl #1
 8000694:	bf08      	it	eq
 8000696:	ea20 70d3 	biceq.w	r0, r0, r3, lsr #31
 800069a:	bd70      	pop	{r4, r5, r6, pc}
 800069c:	f1c4 040c 	rsb	r4, r4, #12
 80006a0:	f1c4 0520 	rsb	r5, r4, #32
 80006a4:	fa00 f304 	lsl.w	r3, r0, r4
 80006a8:	fa20 f005 	lsr.w	r0, r0, r5
 80006ac:	fa01 f204 	lsl.w	r2, r1, r4
 80006b0:	ea40 0002 	orr.w	r0, r0, r2
 80006b4:	f001 4100 	and.w	r1, r1, #2147483648	; 0x80000000
 80006b8:	eb10 70d3 	adds.w	r0, r0, r3, lsr #31
 80006bc:	f141 0100 	adc.w	r1, r1, #0
 80006c0:	ea5e 0e43 	orrs.w	lr, lr, r3, lsl #1
 80006c4:	bf08      	it	eq
 80006c6:	ea20 70d3 	biceq.w	r0, r0, r3, lsr #31
 80006ca:	bd70      	pop	{r4, r5, r6, pc}
 80006cc:	f1c4 0520 	rsb	r5, r4, #32
 80006d0:	fa00 f205 	lsl.w	r2, r0, r5
 80006d4:	ea4e 0e02 	orr.w	lr, lr, r2
 80006d8:	fa20 f304 	lsr.w	r3, r0, r4
 80006dc:	fa01 f205 	lsl.w	r2, r1, r5
 80006e0:	ea43 0302 	orr.w	r3, r3, r2
 80006e4:	fa21 f004 	lsr.w	r0, r1, r4
 80006e8:	f001 4100 	and.w	r1, r1, #2147483648	; 0x80000000
 80006ec:	fa21 f204 	lsr.w	r2, r1, r4
 80006f0:	ea20 0002 	bic.w	r0, r0, r2
 80006f4:	eb00 70d3 	add.w	r0, r0, r3, lsr #31
 80006f8:	ea5e 0e43 	orrs.w	lr, lr, r3, lsl #1
 80006fc:	bf08      	it	eq
 80006fe:	ea20 70d3 	biceq.w	r0, r0, r3, lsr #31
 8000702:	bd70      	pop	{r4, r5, r6, pc}
 8000704:	f094 0f00 	teq	r4, #0
 8000708:	d10f      	bne.n	800072a <__aeabi_dmul+0x1c2>
 800070a:	f001 4600 	and.w	r6, r1, #2147483648	; 0x80000000
 800070e:	0040      	lsls	r0, r0, #1
 8000710:	eb41 0101 	adc.w	r1, r1, r1
 8000714:	f411 1f80 	tst.w	r1, #1048576	; 0x100000
 8000718:	bf08      	it	eq
 800071a:	3c01      	subeq	r4, #1
 800071c:	d0f7      	beq.n	800070e <__aeabi_dmul+0x1a6>
 800071e:	ea41 0106 	orr.w	r1, r1, r6
 8000722:	f095 0f00 	teq	r5, #0
 8000726:	bf18      	it	ne
 8000728:	4770      	bxne	lr
 800072a:	f003 4600 	and.w	r6, r3, #2147483648	; 0x80000000
 800072e:	0052      	lsls	r2, r2, #1
 8000730:	eb43 0303 	adc.w	r3, r3, r3
 8000734:	f413 1f80 	tst.w	r3, #1048576	; 0x100000
 8000738:	bf08      	it	eq
 800073a:	3d01      	subeq	r5, #1
 800073c:	d0f7      	beq.n	800072e <__aeabi_dmul+0x1c6>
 800073e:	ea43 0306 	orr.w	r3, r3, r6
 8000742:	4770      	bx	lr
 8000744:	ea94 0f0c 	teq	r4, ip
 8000748:	ea0c 5513 	and.w	r5, ip, r3, lsr #20
 800074c:	bf18      	it	ne
 800074e:	ea95 0f0c 	teqne	r5, ip
 8000752:	d00c      	beq.n	800076e <__aeabi_dmul+0x206>
 8000754:	ea50 0641 	orrs.w	r6, r0, r1, lsl #1
 8000758:	bf18      	it	ne
 800075a:	ea52 0643 	orrsne.w	r6, r2, r3, lsl #1
 800075e:	d1d1      	bne.n	8000704 <__aeabi_dmul+0x19c>
 8000760:	ea81 0103 	eor.w	r1, r1, r3
 8000764:	f001 4100 	and.w	r1, r1, #2147483648	; 0x80000000
 8000768:	f04f 0000 	mov.w	r0, #0
 800076c:	bd70      	pop	{r4, r5, r6, pc}
 800076e:	ea50 0641 	orrs.w	r6, r0, r1, lsl #1
 8000772:	bf06      	itte	eq
 8000774:	4610      	moveq	r0, r2
 8000776:	4619      	moveq	r1, r3
 8000778:	ea52 0643 	orrsne.w	r6, r2, r3, lsl #1
 800077c:	d019      	beq.n	80007b2 <__aeabi_dmul+0x24a>
 800077e:	ea94 0f0c 	teq	r4, ip
 8000782:	d102      	bne.n	800078a <__aeabi_dmul+0x222>
 8000784:	ea50 3601 	orrs.w	r6, r0, r1, lsl #12
 8000788:	d113      	bne.n	80007b2 <__aeabi_dmul+0x24a>
 800078a:	ea95 0f0c 	teq	r5, ip
 800078e:	d105      	bne.n	800079c <__aeabi_dmul+0x234>
 8000790:	ea52 3603 	orrs.w	r6, r2, r3, lsl #12
 8000794:	bf1c      	itt	ne
 8000796:	4610      	movne	r0, r2
 8000798:	4619      	movne	r1, r3
 800079a:	d10a      	bne.n	80007b2 <__aeabi_dmul+0x24a>
 800079c:	ea81 0103 	eor.w	r1, r1, r3
 80007a0:	f001 4100 	and.w	r1, r1, #2147483648	; 0x80000000
 80007a4:	f041 41fe 	orr.w	r1, r1, #2130706432	; 0x7f000000
 80007a8:	f441 0170 	orr.w	r1, r1, #15728640	; 0xf00000
 80007ac:	f04f 0000 	mov.w	r0, #0
 80007b0:	bd70      	pop	{r4, r5, r6, pc}
 80007b2:	f041 41fe 	orr.w	r1, r1, #2130706432	; 0x7f000000
 80007b6:	f441 0178 	orr.w	r1, r1, #16252928	; 0xf80000
 80007ba:	bd70      	pop	{r4, r5, r6, pc}

080007bc <__aeabi_ddiv>:
 80007bc:	b570      	push	{r4, r5, r6, lr}
 80007be:	f04f 0cff 	mov.w	ip, #255	; 0xff
 80007c2:	f44c 6ce0 	orr.w	ip, ip, #1792	; 0x700
 80007c6:	ea1c 5411 	ands.w	r4, ip, r1, lsr #20
 80007ca:	bf1d      	ittte	ne
 80007cc:	ea1c 5513 	andsne.w	r5, ip, r3, lsr #20
 80007d0:	ea94 0f0c 	teqne	r4, ip
 80007d4:	ea95 0f0c 	teqne	r5, ip
 80007d8:	f000 f8a7 	bleq	800092a <__aeabi_ddiv+0x16e>
 80007dc:	eba4 0405 	sub.w	r4, r4, r5
 80007e0:	ea81 0e03 	eor.w	lr, r1, r3
 80007e4:	ea52 3503 	orrs.w	r5, r2, r3, lsl #12
 80007e8:	ea4f 3101 	mov.w	r1, r1, lsl #12
 80007ec:	f000 8088 	beq.w	8000900 <__aeabi_ddiv+0x144>
 80007f0:	ea4f 3303 	mov.w	r3, r3, lsl #12
 80007f4:	f04f 5580 	mov.w	r5, #268435456	; 0x10000000
 80007f8:	ea45 1313 	orr.w	r3, r5, r3, lsr #4
 80007fc:	ea43 6312 	orr.w	r3, r3, r2, lsr #24
 8000800:	ea4f 2202 	mov.w	r2, r2, lsl #8
 8000804:	ea45 1511 	orr.w	r5, r5, r1, lsr #4
 8000808:	ea45 6510 	orr.w	r5, r5, r0, lsr #24
 800080c:	ea4f 2600 	mov.w	r6, r0, lsl #8
 8000810:	f00e 4100 	and.w	r1, lr, #2147483648	; 0x80000000
 8000814:	429d      	cmp	r5, r3
 8000816:	bf08      	it	eq
 8000818:	4296      	cmpeq	r6, r2
 800081a:	f144 04fd 	adc.w	r4, r4, #253	; 0xfd
 800081e:	f504 7440 	add.w	r4, r4, #768	; 0x300
 8000822:	d202      	bcs.n	800082a <__aeabi_ddiv+0x6e>
 8000824:	085b      	lsrs	r3, r3, #1
 8000826:	ea4f 0232 	mov.w	r2, r2, rrx
 800082a:	1ab6      	subs	r6, r6, r2
 800082c:	eb65 0503 	sbc.w	r5, r5, r3
 8000830:	085b      	lsrs	r3, r3, #1
 8000832:	ea4f 0232 	mov.w	r2, r2, rrx
 8000836:	f44f 1080 	mov.w	r0, #1048576	; 0x100000
 800083a:	f44f 2c00 	mov.w	ip, #524288	; 0x80000
 800083e:	ebb6 0e02 	subs.w	lr, r6, r2
 8000842:	eb75 0e03 	sbcs.w	lr, r5, r3
 8000846:	bf22      	ittt	cs
 8000848:	1ab6      	subcs	r6, r6, r2
 800084a:	4675      	movcs	r5, lr
 800084c:	ea40 000c 	orrcs.w	r0, r0, ip
 8000850:	085b      	lsrs	r3, r3, #1
 8000852:	ea4f 0232 	mov.w	r2, r2, rrx
 8000856:	ebb6 0e02 	subs.w	lr, r6, r2
 800085a:	eb75 0e03 	sbcs.w	lr, r5, r3
 800085e:	bf22      	ittt	cs
 8000860:	1ab6      	subcs	r6, r6, r2
 8000862:	4675      	movcs	r5, lr
 8000864:	ea40 005c 	orrcs.w	r0, r0, ip, lsr #1
 8000868:	085b      	lsrs	r3, r3, #1
 800086a:	ea4f 0232 	mov.w	r2, r2, rrx
 800086e:	ebb6 0e02 	subs.w	lr, r6, r2
 8000872:	eb75 0e03 	sbcs.w	lr, r5, r3
 8000876:	bf22      	ittt	cs
 8000878:	1ab6      	subcs	r6, r6, r2
 800087a:	4675      	movcs	r5, lr
 800087c:	ea40 009c 	orrcs.w	r0, r0, ip, lsr #2
 8000880:	085b      	lsrs	r3, r3, #1
 8000882:	ea4f 0232 	mov.w	r2, r2, rrx
 8000886:	ebb6 0e02 	subs.w	lr, r6, r2
 800088a:	eb75 0e03 	sbcs.w	lr, r5, r3
 800088e:	bf22      	ittt	cs
 8000890:	1ab6      	subcs	r6, r6, r2
 8000892:	4675      	movcs	r5, lr
 8000894:	ea40 00dc 	orrcs.w	r0, r0, ip, lsr #3
 8000898:	ea55 0e06 	orrs.w	lr, r5, r6
 800089c:	d018      	beq.n	80008d0 <__aeabi_ddiv+0x114>
 800089e:	ea4f 1505 	mov.w	r5, r5, lsl #4
 80008a2:	ea45 7516 	orr.w	r5, r5, r6, lsr #28
 80008a6:	ea4f 1606 	mov.w	r6, r6, lsl #4
 80008aa:	ea4f 03c3 	mov.w	r3, r3, lsl #3
 80008ae:	ea43 7352 	orr.w	r3, r3, r2, lsr #29
 80008b2:	ea4f 02c2 	mov.w	r2, r2, lsl #3
 80008b6:	ea5f 1c1c 	movs.w	ip, ip, lsr #4
 80008ba:	d1c0      	bne.n	800083e <__aeabi_ddiv+0x82>
 80008bc:	f411 1f80 	tst.w	r1, #1048576	; 0x100000
 80008c0:	d10b      	bne.n	80008da <__aeabi_ddiv+0x11e>
 80008c2:	ea41 0100 	orr.w	r1, r1, r0
 80008c6:	f04f 0000 	mov.w	r0, #0
 80008ca:	f04f 4c00 	mov.w	ip, #2147483648	; 0x80000000
 80008ce:	e7b6      	b.n	800083e <__aeabi_ddiv+0x82>
 80008d0:	f411 1f80 	tst.w	r1, #1048576	; 0x100000
 80008d4:	bf04      	itt	eq
 80008d6:	4301      	orreq	r1, r0
 80008d8:	2000      	moveq	r0, #0
 80008da:	f1b4 0cfd 	subs.w	ip, r4, #253	; 0xfd
 80008de:	bf88      	it	hi
 80008e0:	f5bc 6fe0 	cmphi.w	ip, #1792	; 0x700
 80008e4:	f63f aeaf 	bhi.w	8000646 <__aeabi_dmul+0xde>
 80008e8:	ebb5 0c03 	subs.w	ip, r5, r3
 80008ec:	bf04      	itt	eq
 80008ee:	ebb6 0c02 	subseq.w	ip, r6, r2
 80008f2:	ea5f 0c50 	movseq.w	ip, r0, lsr #1
 80008f6:	f150 0000 	adcs.w	r0, r0, #0
 80008fa:	eb41 5104 	adc.w	r1, r1, r4, lsl #20
 80008fe:	bd70      	pop	{r4, r5, r6, pc}
 8000900:	f00e 4e00 	and.w	lr, lr, #2147483648	; 0x80000000
 8000904:	ea4e 3111 	orr.w	r1, lr, r1, lsr #12
 8000908:	eb14 045c 	adds.w	r4, r4, ip, lsr #1
 800090c:	bfc2      	ittt	gt
 800090e:	ebd4 050c 	rsbsgt	r5, r4, ip
 8000912:	ea41 5104 	orrgt.w	r1, r1, r4, lsl #20
 8000916:	bd70      	popgt	{r4, r5, r6, pc}
 8000918:	f441 1180 	orr.w	r1, r1, #1048576	; 0x100000
 800091c:	f04f 0e00 	mov.w	lr, #0
 8000920:	3c01      	subs	r4, #1
 8000922:	e690      	b.n	8000646 <__aeabi_dmul+0xde>
 8000924:	ea45 0e06 	orr.w	lr, r5, r6
 8000928:	e68d      	b.n	8000646 <__aeabi_dmul+0xde>
 800092a:	ea0c 5513 	and.w	r5, ip, r3, lsr #20
 800092e:	ea94 0f0c 	teq	r4, ip
 8000932:	bf08      	it	eq
 8000934:	ea95 0f0c 	teqeq	r5, ip
 8000938:	f43f af3b 	beq.w	80007b2 <__aeabi_dmul+0x24a>
 800093c:	ea94 0f0c 	teq	r4, ip
 8000940:	d10a      	bne.n	8000958 <__aeabi_ddiv+0x19c>
 8000942:	ea50 3401 	orrs.w	r4, r0, r1, lsl #12
 8000946:	f47f af34 	bne.w	80007b2 <__aeabi_dmul+0x24a>
 800094a:	ea95 0f0c 	teq	r5, ip
 800094e:	f47f af25 	bne.w	800079c <__aeabi_dmul+0x234>
 8000952:	4610      	mov	r0, r2
 8000954:	4619      	mov	r1, r3
 8000956:	e72c      	b.n	80007b2 <__aeabi_dmul+0x24a>
 8000958:	ea95 0f0c 	teq	r5, ip
 800095c:	d106      	bne.n	800096c <__aeabi_ddiv+0x1b0>
 800095e:	ea52 3503 	orrs.w	r5, r2, r3, lsl #12
 8000962:	f43f aefd 	beq.w	8000760 <__aeabi_dmul+0x1f8>
 8000966:	4610      	mov	r0, r2
 8000968:	4619      	mov	r1, r3
 800096a:	e722      	b.n	80007b2 <__aeabi_dmul+0x24a>
 800096c:	ea50 0641 	orrs.w	r6, r0, r1, lsl #1
 8000970:	bf18      	it	ne
 8000972:	ea52 0643 	orrsne.w	r6, r2, r3, lsl #1
 8000976:	f47f aec5 	bne.w	8000704 <__aeabi_dmul+0x19c>
 800097a:	ea50 0441 	orrs.w	r4, r0, r1, lsl #1
 800097e:	f47f af0d 	bne.w	800079c <__aeabi_dmul+0x234>
 8000982:	ea52 0543 	orrs.w	r5, r2, r3, lsl #1
 8000986:	f47f aeeb 	bne.w	8000760 <__aeabi_dmul+0x1f8>
 800098a:	e712      	b.n	80007b2 <__aeabi_dmul+0x24a>

0800098c <__gedf2>:
 800098c:	f04f 3cff 	mov.w	ip, #4294967295
 8000990:	e006      	b.n	80009a0 <__cmpdf2+0x4>
 8000992:	bf00      	nop

08000994 <__ledf2>:
 8000994:	f04f 0c01 	mov.w	ip, #1
 8000998:	e002      	b.n	80009a0 <__cmpdf2+0x4>
 800099a:	bf00      	nop

0800099c <__cmpdf2>:
 800099c:	f04f 0c01 	mov.w	ip, #1
 80009a0:	f84d cd04 	str.w	ip, [sp, #-4]!
 80009a4:	ea4f 0c41 	mov.w	ip, r1, lsl #1
 80009a8:	ea7f 5c6c 	mvns.w	ip, ip, asr #21
 80009ac:	ea4f 0c43 	mov.w	ip, r3, lsl #1
 80009b0:	bf18      	it	ne
 80009b2:	ea7f 5c6c 	mvnsne.w	ip, ip, asr #21
 80009b6:	d01b      	beq.n	80009f0 <__cmpdf2+0x54>
 80009b8:	b001      	add	sp, #4
 80009ba:	ea50 0c41 	orrs.w	ip, r0, r1, lsl #1
 80009be:	bf0c      	ite	eq
 80009c0:	ea52 0c43 	orrseq.w	ip, r2, r3, lsl #1
 80009c4:	ea91 0f03 	teqne	r1, r3
 80009c8:	bf02      	ittt	eq
 80009ca:	ea90 0f02 	teqeq	r0, r2
 80009ce:	2000      	moveq	r0, #0
 80009d0:	4770      	bxeq	lr
 80009d2:	f110 0f00 	cmn.w	r0, #0
 80009d6:	ea91 0f03 	teq	r1, r3
 80009da:	bf58      	it	pl
 80009dc:	4299      	cmppl	r1, r3
 80009de:	bf08      	it	eq
 80009e0:	4290      	cmpeq	r0, r2
 80009e2:	bf2c      	ite	cs
 80009e4:	17d8      	asrcs	r0, r3, #31
 80009e6:	ea6f 70e3 	mvncc.w	r0, r3, asr #31
 80009ea:	f040 0001 	orr.w	r0, r0, #1
 80009ee:	4770      	bx	lr
 80009f0:	ea4f 0c41 	mov.w	ip, r1, lsl #1
 80009f4:	ea7f 5c6c 	mvns.w	ip, ip, asr #21
 80009f8:	d102      	bne.n	8000a00 <__cmpdf2+0x64>
 80009fa:	ea50 3c01 	orrs.w	ip, r0, r1, lsl #12
 80009fe:	d107      	bne.n	8000a10 <__cmpdf2+0x74>
 8000a00:	ea4f 0c43 	mov.w	ip, r3, lsl #1
 8000a04:	ea7f 5c6c 	mvns.w	ip, ip, asr #21
 8000a08:	d1d6      	bne.n	80009b8 <__cmpdf2+0x1c>
 8000a0a:	ea52 3c03 	orrs.w	ip, r2, r3, lsl #12
 8000a0e:	d0d3      	beq.n	80009b8 <__cmpdf2+0x1c>
 8000a10:	f85d 0b04 	ldr.w	r0, [sp], #4
 8000a14:	4770      	bx	lr
 8000a16:	bf00      	nop

08000a18 <__aeabi_cdrcmple>:
 8000a18:	4684      	mov	ip, r0
 8000a1a:	4610      	mov	r0, r2
 8000a1c:	4662      	mov	r2, ip
 8000a1e:	468c      	mov	ip, r1
 8000a20:	4619      	mov	r1, r3
 8000a22:	4663      	mov	r3, ip
 8000a24:	e000      	b.n	8000a28 <__aeabi_cdcmpeq>
 8000a26:	bf00      	nop

08000a28 <__aeabi_cdcmpeq>:
 8000a28:	b501      	push	{r0, lr}
 8000a2a:	f7ff ffb7 	bl	800099c <__cmpdf2>
 8000a2e:	2800      	cmp	r0, #0
 8000a30:	bf48      	it	mi
 8000a32:	f110 0f00 	cmnmi.w	r0, #0
 8000a36:	bd01      	pop	{r0, pc}

08000a38 <__aeabi_dcmpeq>:
 8000a38:	f84d ed08 	str.w	lr, [sp, #-8]!
 8000a3c:	f7ff fff4 	bl	8000a28 <__aeabi_cdcmpeq>
 8000a40:	bf0c      	ite	eq
 8000a42:	2001      	moveq	r0, #1
 8000a44:	2000      	movne	r0, #0
 8000a46:	f85d fb08 	ldr.w	pc, [sp], #8
 8000a4a:	bf00      	nop

08000a4c <__aeabi_dcmplt>:
 8000a4c:	f84d ed08 	str.w	lr, [sp, #-8]!
 8000a50:	f7ff ffea 	bl	8000a28 <__aeabi_cdcmpeq>
 8000a54:	bf34      	ite	cc
 8000a56:	2001      	movcc	r0, #1
 8000a58:	2000      	movcs	r0, #0
 8000a5a:	f85d fb08 	ldr.w	pc, [sp], #8
 8000a5e:	bf00      	nop

08000a60 <__aeabi_dcmple>:
 8000a60:	f84d ed08 	str.w	lr, [sp, #-8]!
 8000a64:	f7ff ffe0 	bl	8000a28 <__aeabi_cdcmpeq>
 8000a68:	bf94      	ite	ls
 8000a6a:	2001      	movls	r0, #1
 8000a6c:	2000      	movhi	r0, #0
 8000a6e:	f85d fb08 	ldr.w	pc, [sp], #8
 8000a72:	bf00      	nop

08000a74 <__aeabi_dcmpge>:
 8000a74:	f84d ed08 	str.w	lr, [sp, #-8]!
 8000a78:	f7ff ffce 	bl	8000a18 <__aeabi_cdrcmple>
 8000a7c:	bf94      	ite	ls
 8000a7e:	2001      	movls	r0, #1
 8000a80:	2000      	movhi	r0, #0
 8000a82:	f85d fb08 	ldr.w	pc, [sp], #8
 8000a86:	bf00      	nop

08000a88 <__aeabi_dcmpgt>:
 8000a88:	f84d ed08 	str.w	lr, [sp, #-8]!
 8000a8c:	f7ff ffc4 	bl	8000a18 <__aeabi_cdrcmple>
 8000a90:	bf34      	ite	cc
 8000a92:	2001      	movcc	r0, #1
 8000a94:	2000      	movcs	r0, #0
 8000a96:	f85d fb08 	ldr.w	pc, [sp], #8
 8000a9a:	bf00      	nop

08000a9c <__aeabi_dcmpun>:
 8000a9c:	ea4f 0c41 	mov.w	ip, r1, lsl #1
 8000aa0:	ea7f 5c6c 	mvns.w	ip, ip, asr #21
 8000aa4:	d102      	bne.n	8000aac <__aeabi_dcmpun+0x10>
 8000aa6:	ea50 3c01 	orrs.w	ip, r0, r1, lsl #12
 8000aaa:	d10a      	bne.n	8000ac2 <__aeabi_dcmpun+0x26>
 8000aac:	ea4f 0c43 	mov.w	ip, r3, lsl #1
 8000ab0:	ea7f 5c6c 	mvns.w	ip, ip, asr #21
 8000ab4:	d102      	bne.n	8000abc <__aeabi_dcmpun+0x20>
 8000ab6:	ea52 3c03 	orrs.w	ip, r2, r3, lsl #12
 8000aba:	d102      	bne.n	8000ac2 <__aeabi_dcmpun+0x26>
 8000abc:	f04f 0000 	mov.w	r0, #0
 8000ac0:	4770      	bx	lr
 8000ac2:	f04f 0001 	mov.w	r0, #1
 8000ac6:	4770      	bx	lr

08000ac8 <__aeabi_d2iz>:
 8000ac8:	ea4f 0241 	mov.w	r2, r1, lsl #1
 8000acc:	f512 1200 	adds.w	r2, r2, #2097152	; 0x200000
 8000ad0:	d215      	bcs.n	8000afe <__aeabi_d2iz+0x36>
 8000ad2:	d511      	bpl.n	8000af8 <__aeabi_d2iz+0x30>
 8000ad4:	f46f 7378 	mvn.w	r3, #992	; 0x3e0
 8000ad8:	ebb3 5262 	subs.w	r2, r3, r2, asr #21
 8000adc:	d912      	bls.n	8000b04 <__aeabi_d2iz+0x3c>
 8000ade:	ea4f 23c1 	mov.w	r3, r1, lsl #11
 8000ae2:	f043 4300 	orr.w	r3, r3, #2147483648	; 0x80000000
 8000ae6:	ea43 5350 	orr.w	r3, r3, r0, lsr #21
 8000aea:	f011 4f00 	tst.w	r1, #2147483648	; 0x80000000
 8000aee:	fa23 f002 	lsr.w	r0, r3, r2
 8000af2:	bf18      	it	ne
 8000af4:	4240      	negne	r0, r0
 8000af6:	4770      	bx	lr
 8000af8:	f04f 0000 	mov.w	r0, #0
 8000afc:	4770      	bx	lr
 8000afe:	ea50 3001 	orrs.w	r0, r0, r1, lsl #12
 8000b02:	d105      	bne.n	8000b10 <__aeabi_d2iz+0x48>
 8000b04:	f011 4000 	ands.w	r0, r1, #2147483648	; 0x80000000
 8000b08:	bf08      	it	eq
 8000b0a:	f06f 4000 	mvneq.w	r0, #2147483648	; 0x80000000
 8000b0e:	4770      	bx	lr
 8000b10:	f04f 0000 	mov.w	r0, #0
 8000b14:	4770      	bx	lr
 8000b16:	bf00      	nop

08000b18 <__aeabi_uldivmod>:
 8000b18:	b953      	cbnz	r3, 8000b30 <__aeabi_uldivmod+0x18>
 8000b1a:	b94a      	cbnz	r2, 8000b30 <__aeabi_uldivmod+0x18>
 8000b1c:	2900      	cmp	r1, #0
 8000b1e:	bf08      	it	eq
 8000b20:	2800      	cmpeq	r0, #0
 8000b22:	bf1c      	itt	ne
 8000b24:	f04f 31ff 	movne.w	r1, #4294967295
 8000b28:	f04f 30ff 	movne.w	r0, #4294967295
 8000b2c:	f000 b970 	b.w	8000e10 <__aeabi_idiv0>
 8000b30:	f1ad 0c08 	sub.w	ip, sp, #8
 8000b34:	e96d ce04 	strd	ip, lr, [sp, #-16]!
 8000b38:	f000 f806 	bl	8000b48 <__udivmoddi4>
 8000b3c:	f8dd e004 	ldr.w	lr, [sp, #4]
 8000b40:	e9dd 2302 	ldrd	r2, r3, [sp, #8]
 8000b44:	b004      	add	sp, #16
 8000b46:	4770      	bx	lr

08000b48 <__udivmoddi4>:
 8000b48:	e92d 47f0 	stmdb	sp!, {r4, r5, r6, r7, r8, r9, sl, lr}
 8000b4c:	9e08      	ldr	r6, [sp, #32]
 8000b4e:	460d      	mov	r5, r1
 8000b50:	4604      	mov	r4, r0
 8000b52:	460f      	mov	r7, r1
 8000b54:	2b00      	cmp	r3, #0
 8000b56:	d14a      	bne.n	8000bee <__udivmoddi4+0xa6>
 8000b58:	428a      	cmp	r2, r1
 8000b5a:	4694      	mov	ip, r2
 8000b5c:	d965      	bls.n	8000c2a <__udivmoddi4+0xe2>
 8000b5e:	fab2 f382 	clz	r3, r2
 8000b62:	b143      	cbz	r3, 8000b76 <__udivmoddi4+0x2e>
 8000b64:	fa02 fc03 	lsl.w	ip, r2, r3
 8000b68:	f1c3 0220 	rsb	r2, r3, #32
 8000b6c:	409f      	lsls	r7, r3
 8000b6e:	fa20 f202 	lsr.w	r2, r0, r2
 8000b72:	4317      	orrs	r7, r2
 8000b74:	409c      	lsls	r4, r3
 8000b76:	ea4f 4e1c 	mov.w	lr, ip, lsr #16
 8000b7a:	fa1f f58c 	uxth.w	r5, ip
 8000b7e:	fbb7 f1fe 	udiv	r1, r7, lr
 8000b82:	0c22      	lsrs	r2, r4, #16
 8000b84:	fb0e 7711 	mls	r7, lr, r1, r7
 8000b88:	ea42 4207 	orr.w	r2, r2, r7, lsl #16
 8000b8c:	fb01 f005 	mul.w	r0, r1, r5
 8000b90:	4290      	cmp	r0, r2
 8000b92:	d90a      	bls.n	8000baa <__udivmoddi4+0x62>
 8000b94:	eb1c 0202 	adds.w	r2, ip, r2
 8000b98:	f101 37ff 	add.w	r7, r1, #4294967295
 8000b9c:	f080 811c 	bcs.w	8000dd8 <__udivmoddi4+0x290>
 8000ba0:	4290      	cmp	r0, r2
 8000ba2:	f240 8119 	bls.w	8000dd8 <__udivmoddi4+0x290>
 8000ba6:	3902      	subs	r1, #2
 8000ba8:	4462      	add	r2, ip
 8000baa:	1a12      	subs	r2, r2, r0
 8000bac:	b2a4      	uxth	r4, r4
 8000bae:	fbb2 f0fe 	udiv	r0, r2, lr
 8000bb2:	fb0e 2210 	mls	r2, lr, r0, r2
 8000bb6:	ea44 4402 	orr.w	r4, r4, r2, lsl #16
 8000bba:	fb00 f505 	mul.w	r5, r0, r5
 8000bbe:	42a5      	cmp	r5, r4
 8000bc0:	d90a      	bls.n	8000bd8 <__udivmoddi4+0x90>
 8000bc2:	eb1c 0404 	adds.w	r4, ip, r4
 8000bc6:	f100 32ff 	add.w	r2, r0, #4294967295
 8000bca:	f080 8107 	bcs.w	8000ddc <__udivmoddi4+0x294>
 8000bce:	42a5      	cmp	r5, r4
 8000bd0:	f240 8104 	bls.w	8000ddc <__udivmoddi4+0x294>
 8000bd4:	4464      	add	r4, ip
 8000bd6:	3802      	subs	r0, #2
 8000bd8:	ea40 4001 	orr.w	r0, r0, r1, lsl #16
 8000bdc:	1b64      	subs	r4, r4, r5
 8000bde:	2100      	movs	r1, #0
 8000be0:	b11e      	cbz	r6, 8000bea <__udivmoddi4+0xa2>
 8000be2:	40dc      	lsrs	r4, r3
 8000be4:	2300      	movs	r3, #0
 8000be6:	e9c6 4300 	strd	r4, r3, [r6]
 8000bea:	e8bd 87f0 	ldmia.w	sp!, {r4, r5, r6, r7, r8, r9, sl, pc}
 8000bee:	428b      	cmp	r3, r1
 8000bf0:	d908      	bls.n	8000c04 <__udivmoddi4+0xbc>
 8000bf2:	2e00      	cmp	r6, #0
 8000bf4:	f000 80ed 	beq.w	8000dd2 <__udivmoddi4+0x28a>
 8000bf8:	2100      	movs	r1, #0
 8000bfa:	e9c6 0500 	strd	r0, r5, [r6]
 8000bfe:	4608      	mov	r0, r1
 8000c00:	e8bd 87f0 	ldmia.w	sp!, {r4, r5, r6, r7, r8, r9, sl, pc}
 8000c04:	fab3 f183 	clz	r1, r3
 8000c08:	2900      	cmp	r1, #0
 8000c0a:	d149      	bne.n	8000ca0 <__udivmoddi4+0x158>
 8000c0c:	42ab      	cmp	r3, r5
 8000c0e:	d302      	bcc.n	8000c16 <__udivmoddi4+0xce>
 8000c10:	4282      	cmp	r2, r0
 8000c12:	f200 80f8 	bhi.w	8000e06 <__udivmoddi4+0x2be>
 8000c16:	1a84      	subs	r4, r0, r2
 8000c18:	eb65 0203 	sbc.w	r2, r5, r3
 8000c1c:	2001      	movs	r0, #1
 8000c1e:	4617      	mov	r7, r2
 8000c20:	2e00      	cmp	r6, #0
 8000c22:	d0e2      	beq.n	8000bea <__udivmoddi4+0xa2>
 8000c24:	e9c6 4700 	strd	r4, r7, [r6]
 8000c28:	e7df      	b.n	8000bea <__udivmoddi4+0xa2>
 8000c2a:	b902      	cbnz	r2, 8000c2e <__udivmoddi4+0xe6>
 8000c2c:	deff      	udf	#255	; 0xff
 8000c2e:	fab2 f382 	clz	r3, r2
 8000c32:	2b00      	cmp	r3, #0
 8000c34:	f040 8090 	bne.w	8000d58 <__udivmoddi4+0x210>
 8000c38:	1a8a      	subs	r2, r1, r2
 8000c3a:	ea4f 471c 	mov.w	r7, ip, lsr #16
 8000c3e:	fa1f fe8c 	uxth.w	lr, ip
 8000c42:	2101      	movs	r1, #1
 8000c44:	fbb2 f5f7 	udiv	r5, r2, r7
 8000c48:	fb07 2015 	mls	r0, r7, r5, r2
 8000c4c:	0c22      	lsrs	r2, r4, #16
 8000c4e:	ea42 4200 	orr.w	r2, r2, r0, lsl #16
 8000c52:	fb0e f005 	mul.w	r0, lr, r5
 8000c56:	4290      	cmp	r0, r2
 8000c58:	d908      	bls.n	8000c6c <__udivmoddi4+0x124>
 8000c5a:	eb1c 0202 	adds.w	r2, ip, r2
 8000c5e:	f105 38ff 	add.w	r8, r5, #4294967295
 8000c62:	d202      	bcs.n	8000c6a <__udivmoddi4+0x122>
 8000c64:	4290      	cmp	r0, r2
 8000c66:	f200 80cb 	bhi.w	8000e00 <__udivmoddi4+0x2b8>
 8000c6a:	4645      	mov	r5, r8
 8000c6c:	1a12      	subs	r2, r2, r0
 8000c6e:	b2a4      	uxth	r4, r4
 8000c70:	fbb2 f0f7 	udiv	r0, r2, r7
 8000c74:	fb07 2210 	mls	r2, r7, r0, r2
 8000c78:	ea44 4402 	orr.w	r4, r4, r2, lsl #16
 8000c7c:	fb0e fe00 	mul.w	lr, lr, r0
 8000c80:	45a6      	cmp	lr, r4
 8000c82:	d908      	bls.n	8000c96 <__udivmoddi4+0x14e>
 8000c84:	eb1c 0404 	adds.w	r4, ip, r4
 8000c88:	f100 32ff 	add.w	r2, r0, #4294967295
 8000c8c:	d202      	bcs.n	8000c94 <__udivmoddi4+0x14c>
 8000c8e:	45a6      	cmp	lr, r4
 8000c90:	f200 80bb 	bhi.w	8000e0a <__udivmoddi4+0x2c2>
 8000c94:	4610      	mov	r0, r2
 8000c96:	eba4 040e 	sub.w	r4, r4, lr
 8000c9a:	ea40 4005 	orr.w	r0, r0, r5, lsl #16
 8000c9e:	e79f      	b.n	8000be0 <__udivmoddi4+0x98>
 8000ca0:	f1c1 0720 	rsb	r7, r1, #32
 8000ca4:	408b      	lsls	r3, r1
 8000ca6:	fa22 fc07 	lsr.w	ip, r2, r7
 8000caa:	ea4c 0c03 	orr.w	ip, ip, r3
 8000cae:	fa05 f401 	lsl.w	r4, r5, r1
 8000cb2:	fa20 f307 	lsr.w	r3, r0, r7
 8000cb6:	40fd      	lsrs	r5, r7
 8000cb8:	ea4f 491c 	mov.w	r9, ip, lsr #16
 8000cbc:	4323      	orrs	r3, r4
 8000cbe:	fbb5 f8f9 	udiv	r8, r5, r9
 8000cc2:	fa1f fe8c 	uxth.w	lr, ip
 8000cc6:	fb09 5518 	mls	r5, r9, r8, r5
 8000cca:	0c1c      	lsrs	r4, r3, #16
 8000ccc:	ea44 4405 	orr.w	r4, r4, r5, lsl #16
 8000cd0:	fb08 f50e 	mul.w	r5, r8, lr
 8000cd4:	42a5      	cmp	r5, r4
 8000cd6:	fa02 f201 	lsl.w	r2, r2, r1
 8000cda:	fa00 f001 	lsl.w	r0, r0, r1
 8000cde:	d90b      	bls.n	8000cf8 <__udivmoddi4+0x1b0>
 8000ce0:	eb1c 0404 	adds.w	r4, ip, r4
 8000ce4:	f108 3aff 	add.w	sl, r8, #4294967295
 8000ce8:	f080 8088 	bcs.w	8000dfc <__udivmoddi4+0x2b4>
 8000cec:	42a5      	cmp	r5, r4
 8000cee:	f240 8085 	bls.w	8000dfc <__udivmoddi4+0x2b4>
 8000cf2:	f1a8 0802 	sub.w	r8, r8, #2
 8000cf6:	4464      	add	r4, ip
 8000cf8:	1b64      	subs	r4, r4, r5
 8000cfa:	b29d      	uxth	r5, r3
 8000cfc:	fbb4 f3f9 	udiv	r3, r4, r9
 8000d00:	fb09 4413 	mls	r4, r9, r3, r4
 8000d04:	ea45 4404 	orr.w	r4, r5, r4, lsl #16
 8000d08:	fb03 fe0e 	mul.w	lr, r3, lr
 8000d0c:	45a6      	cmp	lr, r4
 8000d0e:	d908      	bls.n	8000d22 <__udivmoddi4+0x1da>
 8000d10:	eb1c 0404 	adds.w	r4, ip, r4
 8000d14:	f103 35ff 	add.w	r5, r3, #4294967295
 8000d18:	d26c      	bcs.n	8000df4 <__udivmoddi4+0x2ac>
 8000d1a:	45a6      	cmp	lr, r4
 8000d1c:	d96a      	bls.n	8000df4 <__udivmoddi4+0x2ac>
 8000d1e:	3b02      	subs	r3, #2
 8000d20:	4464      	add	r4, ip
 8000d22:	ea43 4308 	orr.w	r3, r3, r8, lsl #16
 8000d26:	fba3 9502 	umull	r9, r5, r3, r2
 8000d2a:	eba4 040e 	sub.w	r4, r4, lr
 8000d2e:	42ac      	cmp	r4, r5
 8000d30:	46c8      	mov	r8, r9
 8000d32:	46ae      	mov	lr, r5
 8000d34:	d356      	bcc.n	8000de4 <__udivmoddi4+0x29c>
 8000d36:	d053      	beq.n	8000de0 <__udivmoddi4+0x298>
 8000d38:	b156      	cbz	r6, 8000d50 <__udivmoddi4+0x208>
 8000d3a:	ebb0 0208 	subs.w	r2, r0, r8
 8000d3e:	eb64 040e 	sbc.w	r4, r4, lr
 8000d42:	fa04 f707 	lsl.w	r7, r4, r7
 8000d46:	40ca      	lsrs	r2, r1
 8000d48:	40cc      	lsrs	r4, r1
 8000d4a:	4317      	orrs	r7, r2
 8000d4c:	e9c6 7400 	strd	r7, r4, [r6]
 8000d50:	4618      	mov	r0, r3
 8000d52:	2100      	movs	r1, #0
 8000d54:	e8bd 87f0 	ldmia.w	sp!, {r4, r5, r6, r7, r8, r9, sl, pc}
 8000d58:	f1c3 0120 	rsb	r1, r3, #32
 8000d5c:	fa02 fc03 	lsl.w	ip, r2, r3
 8000d60:	fa20 f201 	lsr.w	r2, r0, r1
 8000d64:	fa25 f101 	lsr.w	r1, r5, r1
 8000d68:	409d      	lsls	r5, r3
 8000d6a:	432a      	orrs	r2, r5
 8000d6c:	ea4f 471c 	mov.w	r7, ip, lsr #16
 8000d70:	fa1f fe8c 	uxth.w	lr, ip
 8000d74:	fbb1 f0f7 	udiv	r0, r1, r7
 8000d78:	fb07 1510 	mls	r5, r7, r0, r1
 8000d7c:	0c11      	lsrs	r1, r2, #16
 8000d7e:	ea41 4105 	orr.w	r1, r1, r5, lsl #16
 8000d82:	fb00 f50e 	mul.w	r5, r0, lr
 8000d86:	428d      	cmp	r5, r1
 8000d88:	fa04 f403 	lsl.w	r4, r4, r3
 8000d8c:	d908      	bls.n	8000da0 <__udivmoddi4+0x258>
 8000d8e:	eb1c 0101 	adds.w	r1, ip, r1
 8000d92:	f100 38ff 	add.w	r8, r0, #4294967295
 8000d96:	d22f      	bcs.n	8000df8 <__udivmoddi4+0x2b0>
 8000d98:	428d      	cmp	r5, r1
 8000d9a:	d92d      	bls.n	8000df8 <__udivmoddi4+0x2b0>
 8000d9c:	3802      	subs	r0, #2
 8000d9e:	4461      	add	r1, ip
 8000da0:	1b49      	subs	r1, r1, r5
 8000da2:	b292      	uxth	r2, r2
 8000da4:	fbb1 f5f7 	udiv	r5, r1, r7
 8000da8:	fb07 1115 	mls	r1, r7, r5, r1
 8000dac:	ea42 4201 	orr.w	r2, r2, r1, lsl #16
 8000db0:	fb05 f10e 	mul.w	r1, r5, lr
 8000db4:	4291      	cmp	r1, r2
 8000db6:	d908      	bls.n	8000dca <__udivmoddi4+0x282>
 8000db8:	eb1c 0202 	adds.w	r2, ip, r2
 8000dbc:	f105 38ff 	add.w	r8, r5, #4294967295
 8000dc0:	d216      	bcs.n	8000df0 <__udivmoddi4+0x2a8>
 8000dc2:	4291      	cmp	r1, r2
 8000dc4:	d914      	bls.n	8000df0 <__udivmoddi4+0x2a8>
 8000dc6:	3d02      	subs	r5, #2
 8000dc8:	4462      	add	r2, ip
 8000dca:	1a52      	subs	r2, r2, r1
 8000dcc:	ea45 4100 	orr.w	r1, r5, r0, lsl #16
 8000dd0:	e738      	b.n	8000c44 <__udivmoddi4+0xfc>
 8000dd2:	4631      	mov	r1, r6
 8000dd4:	4630      	mov	r0, r6
 8000dd6:	e708      	b.n	8000bea <__udivmoddi4+0xa2>
 8000dd8:	4639      	mov	r1, r7
 8000dda:	e6e6      	b.n	8000baa <__udivmoddi4+0x62>
 8000ddc:	4610      	mov	r0, r2
 8000dde:	e6fb      	b.n	8000bd8 <__udivmoddi4+0x90>
 8000de0:	4548      	cmp	r0, r9
 8000de2:	d2a9      	bcs.n	8000d38 <__udivmoddi4+0x1f0>
 8000de4:	ebb9 0802 	subs.w	r8, r9, r2
 8000de8:	eb65 0e0c 	sbc.w	lr, r5, ip
 8000dec:	3b01      	subs	r3, #1
 8000dee:	e7a3      	b.n	8000d38 <__udivmoddi4+0x1f0>
 8000df0:	4645      	mov	r5, r8
 8000df2:	e7ea      	b.n	8000dca <__udivmoddi4+0x282>
 8000df4:	462b      	mov	r3, r5
 8000df6:	e794      	b.n	8000d22 <__udivmoddi4+0x1da>
 8000df8:	4640      	mov	r0, r8
 8000dfa:	e7d1      	b.n	8000da0 <__udivmoddi4+0x258>
 8000dfc:	46d0      	mov	r8, sl
 8000dfe:	e77b      	b.n	8000cf8 <__udivmoddi4+0x1b0>
 8000e00:	3d02      	subs	r5, #2
 8000e02:	4462      	add	r2, ip
 8000e04:	e732      	b.n	8000c6c <__udivmoddi4+0x124>
 8000e06:	4608      	mov	r0, r1
 8000e08:	e70a      	b.n	8000c20 <__udivmoddi4+0xd8>
 8000e0a:	4464      	add	r4, ip
 8000e0c:	3802      	subs	r0, #2
 8000e0e:	e742      	b.n	8000c96 <__udivmoddi4+0x14e>

08000e10 <__aeabi_idiv0>:
 8000e10:	4770      	bx	lr
 8000e12:	bf00      	nop

08000e14 <CRC_16_Modbus>:
 8000e14:	b5f0      	push	{r4, r5, r6, r7, lr}
 8000e16:	eb00 0c01 	add.w	ip, r0, r1
 8000e1a:	4605      	mov	r5, r0
 8000e1c:	f64f 73ff 	movw	r3, #65535	; 0xffff
 8000e20:	f24a 0e01 	movw	lr, #40961	; 0xa001
 8000e24:	45ac      	cmp	ip, r5
 8000e26:	d10f      	bne.n	8000e48 <CRC_16_Modbus+0x34>
 8000e28:	f89c 6001 	ldrb.w	r6, [ip, #1]
 8000e2c:	5c41      	ldrb	r1, [r0, r1]
 8000e2e:	b2dc      	uxtb	r4, r3
 8000e30:	0a1d      	lsrs	r5, r3, #8
 8000e32:	42a1      	cmp	r1, r4
 8000e34:	bf08      	it	eq
 8000e36:	42b5      	cmpeq	r5, r6
 8000e38:	462b      	mov	r3, r5
 8000e3a:	bf0c      	ite	eq
 8000e3c:	2301      	moveq	r3, #1
 8000e3e:	2300      	movne	r3, #0
 8000e40:	7055      	strb	r5, [r2, #1]
 8000e42:	7093      	strb	r3, [r2, #2]
 8000e44:	7014      	strb	r4, [r2, #0]
 8000e46:	bdf0      	pop	{r4, r5, r6, r7, pc}
 8000e48:	f815 6b01 	ldrb.w	r6, [r5], #1
 8000e4c:	2408      	movs	r4, #8
 8000e4e:	ea86 0703 	eor.w	r7, r6, r3
 8000e52:	f017 0f01 	tst.w	r7, #1
 8000e56:	ea4f 0353 	mov.w	r3, r3, lsr #1
 8000e5a:	bf18      	it	ne
 8000e5c:	ea83 030e 	eorne.w	r3, r3, lr
 8000e60:	f104 34ff 	add.w	r4, r4, #4294967295
 8000e64:	bf18      	it	ne
 8000e66:	b29b      	uxthne	r3, r3
 8000e68:	f014 04ff 	ands.w	r4, r4, #255	; 0xff
 8000e6c:	ea4f 0656 	mov.w	r6, r6, lsr #1
 8000e70:	d1ed      	bne.n	8000e4e <CRC_16_Modbus+0x3a>
 8000e72:	e7d7      	b.n	8000e24 <CRC_16_Modbus+0x10>

08000e74 <Slave_PORT_Processor>:
 8000e74:	6803      	ldr	r3, [r0, #0]
 8000e76:	8941      	ldrh	r1, [r0, #10]
 8000e78:	681a      	ldr	r2, [r3, #0]
 8000e7a:	b530      	push	{r4, r5, lr}
 8000e7c:	0614      	lsls	r4, r2, #24
 8000e7e:	d534      	bpl.n	8000eea <Slave_PORT_Processor+0x76>
 8000e80:	b1b1      	cbz	r1, 8000eb0 <Slave_PORT_Processor+0x3c>
 8000e82:	4c1b      	ldr	r4, [pc, #108]	; (8000ef0 <Slave_PORT_Processor+0x7c>)
 8000e84:	89c5      	ldrh	r5, [r0, #14]
 8000e86:	f44f 7280 	mov.w	r2, #256	; 0x100
 8000e8a:	61a2      	str	r2, [r4, #24]
 8000e8c:	8982      	ldrh	r2, [r0, #12]
 8000e8e:	3201      	adds	r2, #1
 8000e90:	b292      	uxth	r2, r2
 8000e92:	4295      	cmp	r5, r2
 8000e94:	8182      	strh	r2, [r0, #12]
 8000e96:	d227      	bcs.n	8000ee8 <Slave_PORT_Processor+0x74>
 8000e98:	8902      	ldrh	r2, [r0, #8]
 8000e9a:	2500      	movs	r5, #0
 8000e9c:	428a      	cmp	r2, r1
 8000e9e:	8185      	strh	r5, [r0, #12]
 8000ea0:	d91c      	bls.n	8000edc <Slave_PORT_Processor+0x68>
 8000ea2:	f242 022c 	movw	r2, #8236	; 0x202c
 8000ea6:	8145      	strh	r5, [r0, #10]
 8000ea8:	60da      	str	r2, [r3, #12]
 8000eaa:	f04f 7280 	mov.w	r2, #16777216	; 0x1000000
 8000eae:	61a2      	str	r2, [r4, #24]
 8000eb0:	681a      	ldr	r2, [r3, #0]
 8000eb2:	0692      	lsls	r2, r2, #26
 8000eb4:	d50d      	bpl.n	8000ed2 <Slave_PORT_Processor+0x5e>
 8000eb6:	8a02      	ldrh	r2, [r0, #16]
 8000eb8:	2a03      	cmp	r2, #3
 8000eba:	bf84      	itt	hi
 8000ebc:	2200      	movhi	r2, #0
 8000ebe:	7142      	strbhi	r2, [r0, #5]
 8000ec0:	7942      	ldrb	r2, [r0, #5]
 8000ec2:	685c      	ldr	r4, [r3, #4]
 8000ec4:	1881      	adds	r1, r0, r2
 8000ec6:	3201      	adds	r2, #1
 8000ec8:	f881 450d 	strb.w	r4, [r1, #1293]	; 0x50d
 8000ecc:	7142      	strb	r2, [r0, #5]
 8000ece:	2200      	movs	r2, #0
 8000ed0:	8202      	strh	r2, [r0, #16]
 8000ed2:	68da      	ldr	r2, [r3, #12]
 8000ed4:	f042 0220 	orr.w	r2, r2, #32
 8000ed8:	60da      	str	r2, [r3, #12]
 8000eda:	e005      	b.n	8000ee8 <Slave_PORT_Processor+0x74>
 8000edc:	1881      	adds	r1, r0, r2
 8000ede:	3201      	adds	r2, #1
 8000ee0:	f891 140e 	ldrb.w	r1, [r1, #1038]	; 0x40e
 8000ee4:	6059      	str	r1, [r3, #4]
 8000ee6:	8102      	strh	r2, [r0, #8]
 8000ee8:	bd30      	pop	{r4, r5, pc}
 8000eea:	2900      	cmp	r1, #0
 8000eec:	d1fc      	bne.n	8000ee8 <Slave_PORT_Processor+0x74>
 8000eee:	e7df      	b.n	8000eb0 <Slave_PORT_Processor+0x3c>
 8000ef0:	40021400 	.word	0x40021400

08000ef4 <Slave_Processor>:
 8000ef4:	b5f8      	push	{r3, r4, r5, r6, r7, lr}
 8000ef6:	f890 250d 	ldrb.w	r2, [r0, #1293]	; 0x50d
 8000efa:	7903      	ldrb	r3, [r0, #4]
 8000efc:	429a      	cmp	r2, r3
 8000efe:	4604      	mov	r4, r0
 8000f00:	f040 8140 	bne.w	8001184 <Slave_Processor+0x290>
 8000f04:	7942      	ldrb	r2, [r0, #5]
 8000f06:	f890 350e 	ldrb.w	r3, [r0, #1294]	; 0x50e
 8000f0a:	2a08      	cmp	r2, #8
 8000f0c:	d131      	bne.n	8000f72 <Slave_Processor+0x7e>
 8000f0e:	1eda      	subs	r2, r3, #3
 8000f10:	2a01      	cmp	r2, #1
 8000f12:	d902      	bls.n	8000f1a <Slave_Processor+0x26>
 8000f14:	2b06      	cmp	r3, #6
 8000f16:	f040 80ec 	bne.w	80010f2 <Slave_Processor+0x1fe>
 8000f1a:	2500      	movs	r5, #0
 8000f1c:	f204 560d 	addw	r6, r4, #1293	; 0x50d
 8000f20:	f884 560e 	strb.w	r5, [r4, #1550]	; 0x60e
 8000f24:	f204 620c 	addw	r2, r4, #1548	; 0x60c
 8000f28:	2106      	movs	r1, #6
 8000f2a:	4630      	mov	r0, r6
 8000f2c:	f7ff ff72 	bl	8000e14 <CRC_16_Modbus>
 8000f30:	f894 360e 	ldrb.w	r3, [r4, #1550]	; 0x60e
 8000f34:	2b00      	cmp	r3, #0
 8000f36:	f000 80dc 	beq.w	80010f2 <Slave_Processor+0x1fe>
 8000f3a:	f894 350e 	ldrb.w	r3, [r4, #1294]	; 0x50e
 8000f3e:	2b06      	cmp	r3, #6
 8000f40:	d17f      	bne.n	8001042 <Slave_Processor+0x14e>
 8000f42:	f8b4 350f 	ldrh.w	r3, [r4, #1295]	; 0x50f
 8000f46:	ba5b      	rev16	r3, r3
 8000f48:	b29a      	uxth	r2, r3
 8000f4a:	f8a4 3610 	strh.w	r3, [r4, #1552]	; 0x610
 8000f4e:	eb04 0342 	add.w	r3, r4, r2, lsl #1
 8000f52:	f8b4 2511 	ldrh.w	r2, [r4, #1297]	; 0x511
 8000f56:	ba52      	rev16	r2, r2
 8000f58:	825a      	strh	r2, [r3, #18]
 8000f5a:	f8d4 350d 	ldr.w	r3, [r4, #1293]	; 0x50d
 8000f5e:	f8c4 340e 	str.w	r3, [r4, #1038]	; 0x40e
 8000f62:	f8d4 3511 	ldr.w	r3, [r4, #1297]	; 0x511
 8000f66:	f8c4 3412 	str.w	r3, [r4, #1042]	; 0x412
 8000f6a:	f44f 2300 	mov.w	r3, #524288	; 0x80000
 8000f6e:	60a3      	str	r3, [r4, #8]
 8000f70:	7165      	strb	r5, [r4, #5]
 8000f72:	7961      	ldrb	r1, [r4, #5]
 8000f74:	f894 350e 	ldrb.w	r3, [r4, #1294]	; 0x50e
 8000f78:	290b      	cmp	r1, #11
 8000f7a:	f040 80c5 	bne.w	8001108 <Slave_Processor+0x214>
 8000f7e:	2b17      	cmp	r3, #23
 8000f80:	f040 80c2 	bne.w	8001108 <Slave_Processor+0x214>
 8000f84:	f894 3517 	ldrb.w	r3, [r4, #1303]	; 0x517
 8000f88:	f8a4 3612 	strh.w	r3, [r4, #1554]	; 0x612
 8000f8c:	330d      	adds	r3, #13
 8000f8e:	71a3      	strb	r3, [r4, #6]
 8000f90:	79a3      	ldrb	r3, [r4, #6]
 8000f92:	7961      	ldrb	r1, [r4, #5]
 8000f94:	4299      	cmp	r1, r3
 8000f96:	f040 80f5 	bne.w	8001184 <Slave_Processor+0x290>
 8000f9a:	2500      	movs	r5, #0
 8000f9c:	3902      	subs	r1, #2
 8000f9e:	f884 560e 	strb.w	r5, [r4, #1550]	; 0x60e
 8000fa2:	f204 620c 	addw	r2, r4, #1548	; 0x60c
 8000fa6:	b2c9      	uxtb	r1, r1
 8000fa8:	f204 500d 	addw	r0, r4, #1293	; 0x50d
 8000fac:	f7ff ff32 	bl	8000e14 <CRC_16_Modbus>
 8000fb0:	f894 360e 	ldrb.w	r3, [r4, #1550]	; 0x60e
 8000fb4:	2b00      	cmp	r3, #0
 8000fb6:	f000 80e5 	beq.w	8001184 <Slave_Processor+0x290>
 8000fba:	f8b4 1513 	ldrh.w	r1, [r4, #1299]	; 0x513
 8000fbe:	f894 7517 	ldrb.w	r7, [r4, #1303]	; 0x517
 8000fc2:	ba49      	rev16	r1, r1
 8000fc4:	b289      	uxth	r1, r1
 8000fc6:	f504 60a3 	add.w	r0, r4, #1304	; 0x518
 8000fca:	462b      	mov	r3, r5
 8000fcc:	429f      	cmp	r7, r3
 8000fce:	f100 0002 	add.w	r0, r0, #2
 8000fd2:	f300 80e5 	bgt.w	80011a0 <Slave_Processor+0x2ac>
 8000fd6:	f894 350d 	ldrb.w	r3, [r4, #1293]	; 0x50d
 8000fda:	f8b4 1511 	ldrh.w	r1, [r4, #1297]	; 0x511
 8000fde:	f884 340e 	strb.w	r3, [r4, #1038]	; 0x40e
 8000fe2:	f894 350e 	ldrb.w	r3, [r4, #1294]	; 0x50e
 8000fe6:	f884 340f 	strb.w	r3, [r4, #1039]	; 0x40f
 8000fea:	ba49      	rev16	r1, r1
 8000fec:	f8b4 350f 	ldrh.w	r3, [r4, #1295]	; 0x50f
 8000ff0:	f8a4 1612 	strh.w	r1, [r4, #1554]	; 0x612
 8000ff4:	0049      	lsls	r1, r1, #1
 8000ff6:	ba5b      	rev16	r3, r3
 8000ff8:	f001 01fe 	and.w	r1, r1, #254	; 0xfe
 8000ffc:	f884 1410 	strb.w	r1, [r4, #1040]	; 0x410
 8001000:	b29e      	uxth	r6, r3
 8001002:	f8a4 3610 	strh.w	r3, [r4, #1552]	; 0x610
 8001006:	f204 4511 	addw	r5, r4, #1041	; 0x411
 800100a:	2000      	movs	r0, #0
 800100c:	4281      	cmp	r1, r0
 800100e:	f105 0502 	add.w	r5, r5, #2
 8001012:	f300 80d2 	bgt.w	80011ba <Slave_Processor+0x2c6>
 8001016:	1d4d      	adds	r5, r1, #5
 8001018:	3103      	adds	r1, #3
 800101a:	b2ed      	uxtb	r5, r5
 800101c:	b2c9      	uxtb	r1, r1
 800101e:	f204 400e 	addw	r0, r4, #1038	; 0x40e
 8001022:	f7ff fef7 	bl	8000e14 <CRC_16_Modbus>
 8001026:	1963      	adds	r3, r4, r5
 8001028:	f894 260d 	ldrb.w	r2, [r4, #1549]	; 0x60d
 800102c:	f883 240d 	strb.w	r2, [r3, #1037]	; 0x40d
 8001030:	f894 260c 	ldrb.w	r2, [r4, #1548]	; 0x60c
 8001034:	f883 240c 	strb.w	r2, [r3, #1036]	; 0x40c
 8001038:	2300      	movs	r3, #0
 800103a:	8165      	strh	r5, [r4, #10]
 800103c:	8123      	strh	r3, [r4, #8]
 800103e:	7163      	strb	r3, [r4, #5]
 8001040:	e0a0      	b.n	8001184 <Slave_Processor+0x290>
 8001042:	1ed9      	subs	r1, r3, #3
 8001044:	2901      	cmp	r1, #1
 8001046:	d854      	bhi.n	80010f2 <Slave_Processor+0x1fe>
 8001048:	f894 150d 	ldrb.w	r1, [r4, #1293]	; 0x50d
 800104c:	f884 140e 	strb.w	r1, [r4, #1038]	; 0x40e
 8001050:	f8b4 150f 	ldrh.w	r1, [r4, #1295]	; 0x50f
 8001054:	f884 340f 	strb.w	r3, [r4, #1039]	; 0x40f
 8001058:	ba49      	rev16	r1, r1
 800105a:	b28e      	uxth	r6, r1
 800105c:	f8a4 1610 	strh.w	r1, [r4, #1552]	; 0x610
 8001060:	f8b4 1511 	ldrh.w	r1, [r4, #1297]	; 0x511
 8001064:	ba49      	rev16	r1, r1
 8001066:	f8a4 1612 	strh.w	r1, [r4, #1554]	; 0x612
 800106a:	0049      	lsls	r1, r1, #1
 800106c:	f001 01fe 	and.w	r1, r1, #254	; 0xfe
 8001070:	2b04      	cmp	r3, #4
 8001072:	f884 1410 	strb.w	r1, [r4, #1040]	; 0x410
 8001076:	f204 4011 	addw	r0, r4, #1041	; 0x411
 800107a:	462b      	mov	r3, r5
 800107c:	d020      	beq.n	80010c0 <Slave_Processor+0x1cc>
 800107e:	4299      	cmp	r1, r3
 8001080:	f100 0002 	add.w	r0, r0, #2
 8001084:	dd20      	ble.n	80010c8 <Slave_Processor+0x1d4>
 8001086:	eb06 0563 	add.w	r5, r6, r3, asr #1
 800108a:	eb04 0545 	add.w	r5, r4, r5, lsl #1
 800108e:	3302      	adds	r3, #2
 8001090:	f9b5 5012 	ldrsh.w	r5, [r5, #18]
 8001094:	f800 5c01 	strb.w	r5, [r0, #-1]
 8001098:	122d      	asrs	r5, r5, #8
 800109a:	f8a4 5614 	strh.w	r5, [r4, #1556]	; 0x614
 800109e:	f800 5c02 	strb.w	r5, [r0, #-2]
 80010a2:	e7ec      	b.n	800107e <Slave_Processor+0x18a>
 80010a4:	eb06 0563 	add.w	r5, r6, r3, asr #1
 80010a8:	f505 7584 	add.w	r5, r5, #264	; 0x108
 80010ac:	3302      	adds	r3, #2
 80010ae:	f934 5015 	ldrsh.w	r5, [r4, r5, lsl #1]
 80010b2:	f800 5c01 	strb.w	r5, [r0, #-1]
 80010b6:	122d      	asrs	r5, r5, #8
 80010b8:	f8a4 5614 	strh.w	r5, [r4, #1556]	; 0x614
 80010bc:	f800 5c02 	strb.w	r5, [r0, #-2]
 80010c0:	4299      	cmp	r1, r3
 80010c2:	f100 0002 	add.w	r0, r0, #2
 80010c6:	dced      	bgt.n	80010a4 <Slave_Processor+0x1b0>
 80010c8:	1d4d      	adds	r5, r1, #5
 80010ca:	3103      	adds	r1, #3
 80010cc:	b2ed      	uxtb	r5, r5
 80010ce:	b2c9      	uxtb	r1, r1
 80010d0:	f204 400e 	addw	r0, r4, #1038	; 0x40e
 80010d4:	f7ff fe9e 	bl	8000e14 <CRC_16_Modbus>
 80010d8:	1963      	adds	r3, r4, r5
 80010da:	f894 260d 	ldrb.w	r2, [r4, #1549]	; 0x60d
 80010de:	f883 240d 	strb.w	r2, [r3, #1037]	; 0x40d
 80010e2:	f894 260c 	ldrb.w	r2, [r4, #1548]	; 0x60c
 80010e6:	f883 240c 	strb.w	r2, [r3, #1036]	; 0x40c
 80010ea:	2300      	movs	r3, #0
 80010ec:	8165      	strh	r5, [r4, #10]
 80010ee:	8123      	strh	r3, [r4, #8]
 80010f0:	7163      	strb	r3, [r4, #5]
 80010f2:	f894 350e 	ldrb.w	r3, [r4, #1294]	; 0x50e
 80010f6:	2b10      	cmp	r3, #16
 80010f8:	bf01      	itttt	eq
 80010fa:	f894 3513 	ldrbeq.w	r3, [r4, #1299]	; 0x513
 80010fe:	f8a4 3612 	strheq.w	r3, [r4, #1554]	; 0x612
 8001102:	3309      	addeq	r3, #9
 8001104:	71a3      	strbeq	r3, [r4, #6]
 8001106:	e734      	b.n	8000f72 <Slave_Processor+0x7e>
 8001108:	2b10      	cmp	r3, #16
 800110a:	d136      	bne.n	800117a <Slave_Processor+0x286>
 800110c:	79a3      	ldrb	r3, [r4, #6]
 800110e:	4299      	cmp	r1, r3
 8001110:	d138      	bne.n	8001184 <Slave_Processor+0x290>
 8001112:	2500      	movs	r5, #0
 8001114:	3902      	subs	r1, #2
 8001116:	f204 560d 	addw	r6, r4, #1293	; 0x50d
 800111a:	f884 560e 	strb.w	r5, [r4, #1550]	; 0x60e
 800111e:	f204 620c 	addw	r2, r4, #1548	; 0x60c
 8001122:	b2c9      	uxtb	r1, r1
 8001124:	4630      	mov	r0, r6
 8001126:	f7ff fe75 	bl	8000e14 <CRC_16_Modbus>
 800112a:	f894 360e 	ldrb.w	r3, [r4, #1550]	; 0x60e
 800112e:	b323      	cbz	r3, 800117a <Slave_Processor+0x286>
 8001130:	f8b4 350f 	ldrh.w	r3, [r4, #1295]	; 0x50f
 8001134:	f894 7513 	ldrb.w	r7, [r4, #1299]	; 0x513
 8001138:	ba5b      	rev16	r3, r3
 800113a:	fa1f fc83 	uxth.w	ip, r3
 800113e:	f8a4 3610 	strh.w	r3, [r4, #1552]	; 0x610
 8001142:	f204 5114 	addw	r1, r4, #1300	; 0x514
 8001146:	462b      	mov	r3, r5
 8001148:	429f      	cmp	r7, r3
 800114a:	f101 0102 	add.w	r1, r1, #2
 800114e:	dc1a      	bgt.n	8001186 <Slave_Processor+0x292>
 8001150:	f8d4 350d 	ldr.w	r3, [r4, #1293]	; 0x50d
 8001154:	f8c4 340e 	str.w	r3, [r4, #1038]	; 0x40e
 8001158:	88b3      	ldrh	r3, [r6, #4]
 800115a:	f8a4 3412 	strh.w	r3, [r4, #1042]	; 0x412
 800115e:	2106      	movs	r1, #6
 8001160:	f204 400e 	addw	r0, r4, #1038	; 0x40e
 8001164:	f7ff fe56 	bl	8000e14 <CRC_16_Modbus>
 8001168:	f8b4 360c 	ldrh.w	r3, [r4, #1548]	; 0x60c
 800116c:	f8a4 3414 	strh.w	r3, [r4, #1044]	; 0x414
 8001170:	f44f 2300 	mov.w	r3, #524288	; 0x80000
 8001174:	60a3      	str	r3, [r4, #8]
 8001176:	2300      	movs	r3, #0
 8001178:	7163      	strb	r3, [r4, #5]
 800117a:	f894 350e 	ldrb.w	r3, [r4, #1294]	; 0x50e
 800117e:	2b17      	cmp	r3, #23
 8001180:	f43f af06 	beq.w	8000f90 <Slave_Processor+0x9c>
 8001184:	bdf8      	pop	{r3, r4, r5, r6, r7, pc}
 8001186:	f811 ec02 	ldrb.w	lr, [r1, #-2]
 800118a:	f811 5c01 	ldrb.w	r5, [r1, #-1]
 800118e:	eb0c 0063 	add.w	r0, ip, r3, asr #1
 8001192:	eb04 0040 	add.w	r0, r4, r0, lsl #1
 8001196:	ea45 250e 	orr.w	r5, r5, lr, lsl #8
 800119a:	8245      	strh	r5, [r0, #18]
 800119c:	3302      	adds	r3, #2
 800119e:	e7d3      	b.n	8001148 <Slave_Processor+0x254>
 80011a0:	f810 cc02 	ldrb.w	ip, [r0, #-2]
 80011a4:	f810 6c01 	ldrb.w	r6, [r0, #-1]
 80011a8:	eb01 0563 	add.w	r5, r1, r3, asr #1
 80011ac:	eb04 0545 	add.w	r5, r4, r5, lsl #1
 80011b0:	ea46 260c 	orr.w	r6, r6, ip, lsl #8
 80011b4:	826e      	strh	r6, [r5, #18]
 80011b6:	3302      	adds	r3, #2
 80011b8:	e708      	b.n	8000fcc <Slave_Processor+0xd8>
 80011ba:	eb06 0360 	add.w	r3, r6, r0, asr #1
 80011be:	eb04 0343 	add.w	r3, r4, r3, lsl #1
 80011c2:	3002      	adds	r0, #2
 80011c4:	f9b3 3012 	ldrsh.w	r3, [r3, #18]
 80011c8:	f805 3c01 	strb.w	r3, [r5, #-1]
 80011cc:	121b      	asrs	r3, r3, #8
 80011ce:	f8a4 3614 	strh.w	r3, [r4, #1556]	; 0x614
 80011d2:	f805 3c02 	strb.w	r3, [r5, #-2]
 80011d6:	e719      	b.n	800100c <Slave_Processor+0x118>

080011d8 <Slave_Clock_1ms>:
 80011d8:	8a03      	ldrh	r3, [r0, #16]
 80011da:	6802      	ldr	r2, [r0, #0]
 80011dc:	3301      	adds	r3, #1
 80011de:	b29b      	uxth	r3, r3
 80011e0:	2b64      	cmp	r3, #100	; 0x64
 80011e2:	bf28      	it	cs
 80011e4:	2364      	movcs	r3, #100	; 0x64
 80011e6:	8203      	strh	r3, [r0, #16]
 80011e8:	8943      	ldrh	r3, [r0, #10]
 80011ea:	b11b      	cbz	r3, 80011f4 <Slave_Clock_1ms+0x1c>
 80011ec:	68d3      	ldr	r3, [r2, #12]
 80011ee:	f043 0380 	orr.w	r3, r3, #128	; 0x80
 80011f2:	60d3      	str	r3, [r2, #12]
 80011f4:	4770      	bx	lr
	...

080011f8 <Screens_init>:
 80011f8:	e92d 4ff0 	stmdb	sp!, {r4, r5, r6, r7, r8, r9, sl, fp, lr}
 80011fc:	4abe      	ldr	r2, [pc, #760]	; (80014f8 <Screens_init+0x300>)
 80011fe:	4dbf      	ldr	r5, [pc, #764]	; (80014fc <Screens_init+0x304>)
 8001200:	b085      	sub	sp, #20
 8001202:	2300      	movs	r3, #0
 8001204:	3301      	adds	r3, #1
 8001206:	6829      	ldr	r1, [r5, #0]
 8001208:	f842 1b04 	str.w	r1, [r2], #4
 800120c:	2b14      	cmp	r3, #20
 800120e:	d1f9      	bne.n	8001204 <Screens_init+0xc>
 8001210:	4cbb      	ldr	r4, [pc, #748]	; (8001500 <Screens_init+0x308>)
 8001212:	48bc      	ldr	r0, [pc, #752]	; (8001504 <Screens_init+0x30c>)
 8001214:	6821      	ldr	r1, [r4, #0]
 8001216:	f8df a328 	ldr.w	sl, [pc, #808]	; 8001540 <Screens_init+0x348>
 800121a:	2200      	movs	r2, #0
 800121c:	f004 ffb1 	bl	8006182 <HAL_LTDC_SetAddress>
 8001220:	6821      	ldr	r1, [r4, #0]
 8001222:	f44f 73f0 	mov.w	r3, #480	; 0x1e0
 8001226:	f44f 7248 	mov.w	r2, #800	; 0x320
 800122a:	2000      	movs	r0, #0
 800122c:	f004 fa84 	bl	8005738 <Zaliv>
 8001230:	6828      	ldr	r0, [r5, #0]
 8001232:	6861      	ldr	r1, [r4, #4]
 8001234:	f44f 73f0 	mov.w	r3, #480	; 0x1e0
 8001238:	f44f 7248 	mov.w	r2, #800	; 0x320
 800123c:	f004 fa7c 	bl	8005738 <Zaliv>
 8001240:	6862      	ldr	r2, [r4, #4]
 8001242:	9201      	str	r2, [sp, #4]
 8001244:	f44f 7348 	mov.w	r3, #800	; 0x320
 8001248:	2203      	movs	r2, #3
 800124a:	2100      	movs	r1, #0
 800124c:	f44f 76f0 	mov.w	r6, #480	; 0x1e0
 8001250:	9200      	str	r2, [sp, #0]
 8001252:	e9cd 3602 	strd	r3, r6, [sp, #8]
 8001256:	22dc      	movs	r2, #220	; 0xdc
 8001258:	4608      	mov	r0, r1
 800125a:	f004 fa80 	bl	800575e <Draw_Rectangle>
 800125e:	f04f 080c 	mov.w	r8, #12
 8001262:	2700      	movs	r7, #0
 8001264:	f108 0941 	add.w	r9, r8, #65	; 0x41
 8001268:	2f02      	cmp	r7, #2
 800126a:	6863      	ldr	r3, [r4, #4]
 800126c:	4ea6      	ldr	r6, [pc, #664]	; (8001508 <Screens_init+0x310>)
 800126e:	fa1f f989 	uxth.w	r9, r9
 8001272:	f000 8409 	beq.w	8001a88 <Screens_init+0x890>
 8001276:	f44f 7248 	mov.w	r2, #800	; 0x320
 800127a:	f44f 70f0 	mov.w	r0, #480	; 0x1e0
 800127e:	e9cd 2002 	strd	r2, r0, [sp, #8]
 8001282:	9301      	str	r3, [sp, #4]
 8001284:	2200      	movs	r2, #0
 8001286:	23dc      	movs	r3, #220	; 0xdc
 8001288:	f108 01ff 	add.w	r1, r8, #255	; 0xff
 800128c:	4610      	mov	r0, r2
 800128e:	b289      	uxth	r1, r1
 8001290:	9300      	str	r3, [sp, #0]
 8001292:	2303      	movs	r3, #3
 8001294:	f004 fa63 	bl	800575e <Draw_Rectangle>
 8001298:	6862      	ldr	r2, [r4, #4]
 800129a:	9202      	str	r2, [sp, #8]
 800129c:	2f01      	cmp	r7, #1
 800129e:	682b      	ldr	r3, [r5, #0]
 80012a0:	6832      	ldr	r2, [r6, #0]
 80012a2:	bf14      	ite	ne
 80012a4:	4899      	ldrne	r0, [pc, #612]	; (800150c <Screens_init+0x314>)
 80012a6:	489a      	ldreq	r0, [pc, #616]	; (8001510 <Screens_init+0x318>)
 80012a8:	e9cd 3200 	strd	r3, r2, [sp]
 80012ac:	bf18      	it	ne
 80012ae:	2101      	movne	r1, #1
 80012b0:	f04f 0317 	mov.w	r3, #23
 80012b4:	464a      	mov	r2, r9
 80012b6:	bf08      	it	eq
 80012b8:	4639      	moveq	r1, r7
 80012ba:	f003 fdd1 	bl	8004e60 <Short_Left_Colored_RU_DrawString_32>
 80012be:	6862      	ldr	r2, [r4, #4]
 80012c0:	9202      	str	r2, [sp, #8]
 80012c2:	682b      	ldr	r3, [r5, #0]
 80012c4:	6832      	ldr	r2, [r6, #0]
 80012c6:	4893      	ldr	r0, [pc, #588]	; (8001514 <Screens_init+0x31c>)
 80012c8:	e9cd 3200 	strd	r3, r2, [sp]
 80012cc:	2103      	movs	r1, #3
 80012ce:	4642      	mov	r2, r8
 80012d0:	2314      	movs	r3, #20
 80012d2:	f003 fdc5 	bl	8004e60 <Short_Left_Colored_RU_DrawString_32>
 80012d6:	6862      	ldr	r2, [r4, #4]
 80012d8:	9202      	str	r2, [sp, #8]
 80012da:	682b      	ldr	r3, [r5, #0]
 80012dc:	6832      	ldr	r2, [r6, #0]
 80012de:	488e      	ldr	r0, [pc, #568]	; (8001518 <Screens_init+0x320>)
 80012e0:	e9cd 3200 	strd	r3, r2, [sp]
 80012e4:	2107      	movs	r1, #7
 80012e6:	4642      	mov	r2, r8
 80012e8:	2332      	movs	r3, #50	; 0x32
 80012ea:	f003 fdb9 	bl	8004e60 <Short_Left_Colored_RU_DrawString_32>
 80012ee:	6862      	ldr	r2, [r4, #4]
 80012f0:	9202      	str	r2, [sp, #8]
 80012f2:	682b      	ldr	r3, [r5, #0]
 80012f4:	6832      	ldr	r2, [r6, #0]
 80012f6:	f108 09c3 	add.w	r9, r8, #195	; 0xc3
 80012fa:	fa1f f989 	uxth.w	r9, r9
 80012fe:	e9cd 3200 	strd	r3, r2, [sp]
 8001302:	2103      	movs	r1, #3
 8001304:	464a      	mov	r2, r9
 8001306:	2332      	movs	r3, #50	; 0x32
 8001308:	4650      	mov	r0, sl
 800130a:	f003 fda9 	bl	8004e60 <Short_Left_Colored_RU_DrawString_32>
 800130e:	6862      	ldr	r2, [r4, #4]
 8001310:	9202      	str	r2, [sp, #8]
 8001312:	682b      	ldr	r3, [r5, #0]
 8001314:	6832      	ldr	r2, [r6, #0]
 8001316:	4881      	ldr	r0, [pc, #516]	; (800151c <Screens_init+0x324>)
 8001318:	e9cd 3200 	strd	r3, r2, [sp]
 800131c:	2107      	movs	r1, #7
 800131e:	4642      	mov	r2, r8
 8001320:	2350      	movs	r3, #80	; 0x50
 8001322:	f003 fd9d 	bl	8004e60 <Short_Left_Colored_RU_DrawString_32>
 8001326:	6862      	ldr	r2, [r4, #4]
 8001328:	9202      	str	r2, [sp, #8]
 800132a:	682b      	ldr	r3, [r5, #0]
 800132c:	6832      	ldr	r2, [r6, #0]
 800132e:	2103      	movs	r1, #3
 8001330:	e9cd 3200 	strd	r3, r2, [sp]
 8001334:	4650      	mov	r0, sl
 8001336:	464a      	mov	r2, r9
 8001338:	2350      	movs	r3, #80	; 0x50
 800133a:	f003 fd91 	bl	8004e60 <Short_Left_Colored_RU_DrawString_32>
 800133e:	6862      	ldr	r2, [r4, #4]
 8001340:	9202      	str	r2, [sp, #8]
 8001342:	682b      	ldr	r3, [r5, #0]
 8001344:	6832      	ldr	r2, [r6, #0]
 8001346:	4876      	ldr	r0, [pc, #472]	; (8001520 <Screens_init+0x328>)
 8001348:	e9cd 3200 	strd	r3, r2, [sp]
 800134c:	2107      	movs	r1, #7
 800134e:	4642      	mov	r2, r8
 8001350:	236e      	movs	r3, #110	; 0x6e
 8001352:	f003 fd85 	bl	8004e60 <Short_Left_Colored_RU_DrawString_32>
 8001356:	6862      	ldr	r2, [r4, #4]
 8001358:	9202      	str	r2, [sp, #8]
 800135a:	682b      	ldr	r3, [r5, #0]
 800135c:	6832      	ldr	r2, [r6, #0]
 800135e:	4871      	ldr	r0, [pc, #452]	; (8001524 <Screens_init+0x32c>)
 8001360:	e9cd 3200 	strd	r3, r2, [sp]
 8001364:	2102      	movs	r1, #2
 8001366:	464a      	mov	r2, r9
 8001368:	236e      	movs	r3, #110	; 0x6e
 800136a:	f003 fd79 	bl	8004e60 <Short_Left_Colored_RU_DrawString_32>
 800136e:	6862      	ldr	r2, [r4, #4]
 8001370:	9202      	str	r2, [sp, #8]
 8001372:	682b      	ldr	r3, [r5, #0]
 8001374:	6832      	ldr	r2, [r6, #0]
 8001376:	486c      	ldr	r0, [pc, #432]	; (8001528 <Screens_init+0x330>)
 8001378:	f8df 91dc 	ldr.w	r9, [pc, #476]	; 8001558 <Screens_init+0x360>
 800137c:	e9cd 3200 	strd	r3, r2, [sp]
 8001380:	2107      	movs	r1, #7
 8001382:	4642      	mov	r2, r8
 8001384:	23c8      	movs	r3, #200	; 0xc8
 8001386:	f003 fd6b 	bl	8004e60 <Short_Left_Colored_RU_DrawString_32>
 800138a:	4b68      	ldr	r3, [pc, #416]	; (800152c <Screens_init+0x334>)
 800138c:	6861      	ldr	r1, [r4, #4]
 800138e:	681b      	ldr	r3, [r3, #0]
 8001390:	9102      	str	r1, [sp, #8]
 8001392:	6831      	ldr	r1, [r6, #0]
 8001394:	4866      	ldr	r0, [pc, #408]	; (8001530 <Screens_init+0x338>)
 8001396:	f108 025a 	add.w	r2, r8, #90	; 0x5a
 800139a:	e9cd 3100 	strd	r3, r1, [sp]
 800139e:	b292      	uxth	r2, r2
 80013a0:	2314      	movs	r3, #20
 80013a2:	2109      	movs	r1, #9
 80013a4:	f003 fd5c 	bl	8004e60 <Short_Left_Colored_RU_DrawString_32>
 80013a8:	6862      	ldr	r2, [r4, #4]
 80013aa:	f8d9 3000 	ldr.w	r3, [r9]
 80013ae:	9202      	str	r2, [sp, #8]
 80013b0:	6832      	ldr	r2, [r6, #0]
 80013b2:	4860      	ldr	r0, [pc, #384]	; (8001534 <Screens_init+0x33c>)
 80013b4:	e9cd 3200 	strd	r3, r2, [sp]
 80013b8:	210e      	movs	r1, #14
 80013ba:	4642      	mov	r2, r8
 80013bc:	238c      	movs	r3, #140	; 0x8c
 80013be:	f003 fd4f 	bl	8004e60 <Short_Left_Colored_RU_DrawString_32>
 80013c2:	6862      	ldr	r2, [r4, #4]
 80013c4:	f8d9 3000 	ldr.w	r3, [r9]
 80013c8:	9202      	str	r2, [sp, #8]
 80013ca:	6832      	ldr	r2, [r6, #0]
 80013cc:	485a      	ldr	r0, [pc, #360]	; (8001538 <Screens_init+0x340>)
 80013ce:	e9cd 3200 	strd	r3, r2, [sp]
 80013d2:	210e      	movs	r1, #14
 80013d4:	4642      	mov	r2, r8
 80013d6:	23aa      	movs	r3, #170	; 0xaa
 80013d8:	3701      	adds	r7, #1
 80013da:	f003 fd41 	bl	8004e60 <Short_Left_Colored_RU_DrawString_32>
 80013de:	f508 7882 	add.w	r8, r8, #260	; 0x104
 80013e2:	2f03      	cmp	r7, #3
 80013e4:	fa1f f888 	uxth.w	r8, r8
 80013e8:	f47f af3c 	bne.w	8001264 <Screens_init+0x6c>
 80013ec:	f44f 7848 	mov.w	r8, #800	; 0x320
 80013f0:	f44f 79b4 	mov.w	r9, #360	; 0x168
 80013f4:	f44f 7af0 	mov.w	sl, #480	; 0x1e0
 80013f8:	6863      	ldr	r3, [r4, #4]
 80013fa:	9301      	str	r3, [sp, #4]
 80013fc:	e9cd 8a02 	strd	r8, sl, [sp, #8]
 8001400:	f8cd 9000 	str.w	r9, [sp]
 8001404:	463b      	mov	r3, r7
 8001406:	22dc      	movs	r2, #220	; 0xdc
 8001408:	f240 2199 	movw	r1, #665	; 0x299
 800140c:	2000      	movs	r0, #0
 800140e:	f004 f9a6 	bl	800575e <Draw_Rectangle>
 8001412:	6862      	ldr	r2, [r4, #4]
 8001414:	9202      	str	r2, [sp, #8]
 8001416:	682b      	ldr	r3, [r5, #0]
 8001418:	6832      	ldr	r2, [r6, #0]
 800141a:	4848      	ldr	r0, [pc, #288]	; (800153c <Screens_init+0x344>)
 800141c:	f8df b13c 	ldr.w	fp, [pc, #316]	; 800155c <Screens_init+0x364>
 8001420:	e9cd 3200 	strd	r3, r2, [sp]
 8001424:	2107      	movs	r1, #7
 8001426:	23f0      	movs	r3, #240	; 0xf0
 8001428:	f240 229e 	movw	r2, #670	; 0x29e
 800142c:	f003 fd18 	bl	8004e60 <Short_Left_Colored_RU_DrawString_32>
 8001430:	6862      	ldr	r2, [r4, #4]
 8001432:	9202      	str	r2, [sp, #8]
 8001434:	682b      	ldr	r3, [r5, #0]
 8001436:	6832      	ldr	r2, [r6, #0]
 8001438:	4841      	ldr	r0, [pc, #260]	; (8001540 <Screens_init+0x348>)
 800143a:	e9cd 3200 	strd	r3, r2, [sp]
 800143e:	4639      	mov	r1, r7
 8001440:	f240 130b 	movw	r3, #267	; 0x10b
 8001444:	f44f 7239 	mov.w	r2, #740	; 0x2e4
 8001448:	f003 fd0a 	bl	8004e60 <Short_Left_Colored_RU_DrawString_32>
 800144c:	6862      	ldr	r2, [r4, #4]
 800144e:	9202      	str	r2, [sp, #8]
 8001450:	682b      	ldr	r3, [r5, #0]
 8001452:	6832      	ldr	r2, [r6, #0]
 8001454:	483b      	ldr	r0, [pc, #236]	; (8001544 <Screens_init+0x34c>)
 8001456:	e9cd 3200 	strd	r3, r2, [sp]
 800145a:	2107      	movs	r1, #7
 800145c:	f44f 7396 	mov.w	r3, #300	; 0x12c
 8001460:	f240 229e 	movw	r2, #670	; 0x29e
 8001464:	f003 fcfc 	bl	8004e60 <Short_Left_Colored_RU_DrawString_32>
 8001468:	6862      	ldr	r2, [r4, #4]
 800146a:	9202      	str	r2, [sp, #8]
 800146c:	682b      	ldr	r3, [r5, #0]
 800146e:	6832      	ldr	r2, [r6, #0]
 8001470:	4835      	ldr	r0, [pc, #212]	; (8001548 <Screens_init+0x350>)
 8001472:	e9cd 3200 	strd	r3, r2, [sp]
 8001476:	2102      	movs	r1, #2
 8001478:	f240 1347 	movw	r3, #327	; 0x147
 800147c:	f44f 7239 	mov.w	r2, #740	; 0x2e4
 8001480:	f003 fcee 	bl	8004e60 <Short_Left_Colored_RU_DrawString_32>
 8001484:	6862      	ldr	r2, [r4, #4]
 8001486:	9202      	str	r2, [sp, #8]
 8001488:	682b      	ldr	r3, [r5, #0]
 800148a:	6832      	ldr	r2, [r6, #0]
 800148c:	482f      	ldr	r0, [pc, #188]	; (800154c <Screens_init+0x354>)
 800148e:	e9cd 3200 	strd	r3, r2, [sp]
 8001492:	2107      	movs	r1, #7
 8001494:	464b      	mov	r3, r9
 8001496:	f240 229e 	movw	r2, #670	; 0x29e
 800149a:	f003 fce1 	bl	8004e60 <Short_Left_Colored_RU_DrawString_32>
 800149e:	6862      	ldr	r2, [r4, #4]
 80014a0:	9202      	str	r2, [sp, #8]
 80014a2:	682b      	ldr	r3, [r5, #0]
 80014a4:	6832      	ldr	r2, [r6, #0]
 80014a6:	481f      	ldr	r0, [pc, #124]	; (8001524 <Screens_init+0x32c>)
 80014a8:	e9cd 3200 	strd	r3, r2, [sp]
 80014ac:	2102      	movs	r1, #2
 80014ae:	f240 1383 	movw	r3, #387	; 0x183
 80014b2:	f44f 7239 	mov.w	r2, #740	; 0x2e4
 80014b6:	f003 fcd3 	bl	8004e60 <Short_Left_Colored_RU_DrawString_32>
 80014ba:	6862      	ldr	r2, [r4, #4]
 80014bc:	9202      	str	r2, [sp, #8]
 80014be:	f8db 3000 	ldr.w	r3, [fp]
 80014c2:	6832      	ldr	r2, [r6, #0]
 80014c4:	4822      	ldr	r0, [pc, #136]	; (8001550 <Screens_init+0x358>)
 80014c6:	e9cd 3200 	strd	r3, r2, [sp]
 80014ca:	220d      	movs	r2, #13
 80014cc:	4611      	mov	r1, r2
 80014ce:	23f0      	movs	r3, #240	; 0xf0
 80014d0:	f003 fcc6 	bl	8004e60 <Short_Left_Colored_RU_DrawString_32>
 80014d4:	6862      	ldr	r2, [r4, #4]
 80014d6:	9202      	str	r2, [sp, #8]
 80014d8:	682b      	ldr	r3, [r5, #0]
 80014da:	6832      	ldr	r2, [r6, #0]
 80014dc:	481d      	ldr	r0, [pc, #116]	; (8001554 <Screens_init+0x35c>)
 80014de:	e9cd 3200 	strd	r3, r2, [sp]
 80014e2:	210c      	movs	r1, #12
 80014e4:	23f0      	movs	r3, #240	; 0xf0
 80014e6:	f44f 7296 	mov.w	r2, #300	; 0x12c
 80014ea:	f003 fcb9 	bl	8004e60 <Short_Left_Colored_RU_DrawString_32>
 80014ee:	6862      	ldr	r2, [r4, #4]
 80014f0:	9202      	str	r2, [sp, #8]
 80014f2:	682b      	ldr	r3, [r5, #0]
 80014f4:	e034      	b.n	8001560 <Screens_init+0x368>
 80014f6:	bf00      	nop
 80014f8:	200000a4 	.word	0x200000a4
 80014fc:	20000000 	.word	0x20000000
 8001500:	2000024c 	.word	0x2000024c
 8001504:	20000964 	.word	0x20000964
 8001508:	20000230 	.word	0x20000230
 800150c:	08008e6d 	.word	0x08008e6d
 8001510:	08008e92 	.word	0x08008e92
 8001514:	080088e0 	.word	0x080088e0
 8001518:	080088e7 	.word	0x080088e7
 800151c:	080088fc 	.word	0x080088fc
 8001520:	0800890a 	.word	0x0800890a
 8001524:	08008918 	.word	0x08008918
 8001528:	0800891c 	.word	0x0800891c
 800152c:	20000008 	.word	0x20000008
 8001530:	0800892b 	.word	0x0800892b
 8001534:	08008938 	.word	0x08008938
 8001538:	08008950 	.word	0x08008950
 800153c:	08008969 	.word	0x08008969
 8001540:	080088f5 	.word	0x080088f5
 8001544:	08008978 	.word	0x08008978
 8001548:	08008985 	.word	0x08008985
 800154c:	0800898a 	.word	0x0800898a
 8001550:	08008998 	.word	0x08008998
 8001554:	080089b2 	.word	0x080089b2
 8001558:	20000010 	.word	0x20000010
 800155c:	20000004 	.word	0x20000004
 8001560:	6832      	ldr	r2, [r6, #0]
 8001562:	48ba      	ldr	r0, [pc, #744]	; (800184c <Screens_init+0x654>)
 8001564:	e9cd 3200 	strd	r3, r2, [sp]
 8001568:	4639      	mov	r1, r7
 800156a:	23f0      	movs	r3, #240	; 0xf0
 800156c:	f44f 7211 	mov.w	r2, #580	; 0x244
 8001570:	f003 fc76 	bl	8004e60 <Short_Left_Colored_RU_DrawString_32>
 8001574:	6862      	ldr	r2, [r4, #4]
 8001576:	9202      	str	r2, [sp, #8]
 8001578:	682b      	ldr	r3, [r5, #0]
 800157a:	6832      	ldr	r2, [r6, #0]
 800157c:	48b4      	ldr	r0, [pc, #720]	; (8001850 <Screens_init+0x658>)
 800157e:	e9cd 3200 	strd	r3, r2, [sp]
 8001582:	211c      	movs	r1, #28
 8001584:	f44f 7387 	mov.w	r3, #270	; 0x10e
 8001588:	220d      	movs	r2, #13
 800158a:	f003 fc69 	bl	8004e60 <Short_Left_Colored_RU_DrawString_32>
 800158e:	6862      	ldr	r2, [r4, #4]
 8001590:	9202      	str	r2, [sp, #8]
 8001592:	682b      	ldr	r3, [r5, #0]
 8001594:	6832      	ldr	r2, [r6, #0]
 8001596:	48ad      	ldr	r0, [pc, #692]	; (800184c <Screens_init+0x654>)
 8001598:	e9cd 3200 	strd	r3, r2, [sp]
 800159c:	4639      	mov	r1, r7
 800159e:	f44f 7387 	mov.w	r3, #270	; 0x10e
 80015a2:	f44f 7211 	mov.w	r2, #580	; 0x244
 80015a6:	f003 fc5b 	bl	8004e60 <Short_Left_Colored_RU_DrawString_32>
 80015aa:	6862      	ldr	r2, [r4, #4]
 80015ac:	9202      	str	r2, [sp, #8]
 80015ae:	682b      	ldr	r3, [r5, #0]
 80015b0:	6832      	ldr	r2, [r6, #0]
 80015b2:	48a8      	ldr	r0, [pc, #672]	; (8001854 <Screens_init+0x65c>)
 80015b4:	e9cd 3200 	strd	r3, r2, [sp]
 80015b8:	210e      	movs	r1, #14
 80015ba:	f44f 7396 	mov.w	r3, #300	; 0x12c
 80015be:	220d      	movs	r2, #13
 80015c0:	f003 fc4e 	bl	8004e60 <Short_Left_Colored_RU_DrawString_32>
 80015c4:	6862      	ldr	r2, [r4, #4]
 80015c6:	9202      	str	r2, [sp, #8]
 80015c8:	682b      	ldr	r3, [r5, #0]
 80015ca:	6832      	ldr	r2, [r6, #0]
 80015cc:	489f      	ldr	r0, [pc, #636]	; (800184c <Screens_init+0x654>)
 80015ce:	e9cd 3200 	strd	r3, r2, [sp]
 80015d2:	4639      	mov	r1, r7
 80015d4:	464a      	mov	r2, r9
 80015d6:	f44f 7396 	mov.w	r3, #300	; 0x12c
 80015da:	f003 fc41 	bl	8004e60 <Short_Left_Colored_RU_DrawString_32>
 80015de:	6862      	ldr	r2, [r4, #4]
 80015e0:	9202      	str	r2, [sp, #8]
 80015e2:	682b      	ldr	r3, [r5, #0]
 80015e4:	6832      	ldr	r2, [r6, #0]
 80015e6:	489c      	ldr	r0, [pc, #624]	; (8001858 <Screens_init+0x660>)
 80015e8:	e9cd 3200 	strd	r3, r2, [sp]
 80015ec:	2102      	movs	r1, #2
 80015ee:	f44f 7396 	mov.w	r3, #300	; 0x12c
 80015f2:	f44f 72e1 	mov.w	r2, #450	; 0x1c2
 80015f6:	f003 fc33 	bl	8004e60 <Short_Left_Colored_RU_DrawString_32>
 80015fa:	6862      	ldr	r2, [r4, #4]
 80015fc:	9202      	str	r2, [sp, #8]
 80015fe:	682b      	ldr	r3, [r5, #0]
 8001600:	6832      	ldr	r2, [r6, #0]
 8001602:	4892      	ldr	r0, [pc, #584]	; (800184c <Screens_init+0x654>)
 8001604:	e9cd 3200 	strd	r3, r2, [sp]
 8001608:	4639      	mov	r1, r7
 800160a:	f44f 7396 	mov.w	r3, #300	; 0x12c
 800160e:	f44f 7211 	mov.w	r2, #580	; 0x244
 8001612:	f003 fc25 	bl	8004e60 <Short_Left_Colored_RU_DrawString_32>
 8001616:	6862      	ldr	r2, [r4, #4]
 8001618:	9202      	str	r2, [sp, #8]
 800161a:	682b      	ldr	r3, [r5, #0]
 800161c:	6832      	ldr	r2, [r6, #0]
 800161e:	488f      	ldr	r0, [pc, #572]	; (800185c <Screens_init+0x664>)
 8001620:	e9cd 3200 	strd	r3, r2, [sp]
 8001624:	210e      	movs	r1, #14
 8001626:	f44f 73a5 	mov.w	r3, #330	; 0x14a
 800162a:	220d      	movs	r2, #13
 800162c:	f003 fc18 	bl	8004e60 <Short_Left_Colored_RU_DrawString_32>
 8001630:	6862      	ldr	r2, [r4, #4]
 8001632:	9202      	str	r2, [sp, #8]
 8001634:	682b      	ldr	r3, [r5, #0]
 8001636:	6832      	ldr	r2, [r6, #0]
 8001638:	4889      	ldr	r0, [pc, #548]	; (8001860 <Screens_init+0x668>)
 800163a:	e9cd 3200 	strd	r3, r2, [sp]
 800163e:	4639      	mov	r1, r7
 8001640:	464a      	mov	r2, r9
 8001642:	f44f 73a5 	mov.w	r3, #330	; 0x14a
 8001646:	f003 fc0b 	bl	8004e60 <Short_Left_Colored_RU_DrawString_32>
 800164a:	6862      	ldr	r2, [r4, #4]
 800164c:	9202      	str	r2, [sp, #8]
 800164e:	f8db 3000 	ldr.w	r3, [fp]
 8001652:	6832      	ldr	r2, [r6, #0]
 8001654:	4883      	ldr	r0, [pc, #524]	; (8001864 <Screens_init+0x66c>)
 8001656:	e9cd 3200 	strd	r3, r2, [sp]
 800165a:	2104      	movs	r1, #4
 800165c:	f44f 73a5 	mov.w	r3, #330	; 0x14a
 8001660:	f44f 72d2 	mov.w	r2, #420	; 0x1a4
 8001664:	f003 fbfc 	bl	8004e60 <Short_Left_Colored_RU_DrawString_32>
 8001668:	6862      	ldr	r2, [r4, #4]
 800166a:	9202      	str	r2, [sp, #8]
 800166c:	682b      	ldr	r3, [r5, #0]
 800166e:	6832      	ldr	r2, [r6, #0]
 8001670:	487b      	ldr	r0, [pc, #492]	; (8001860 <Screens_init+0x668>)
 8001672:	e9cd 3200 	strd	r3, r2, [sp]
 8001676:	4639      	mov	r1, r7
 8001678:	f44f 73a5 	mov.w	r3, #330	; 0x14a
 800167c:	f44f 7211 	mov.w	r2, #580	; 0x244
 8001680:	f003 fbee 	bl	8004e60 <Short_Left_Colored_RU_DrawString_32>
 8001684:	6862      	ldr	r2, [r4, #4]
 8001686:	9202      	str	r2, [sp, #8]
 8001688:	682b      	ldr	r3, [r5, #0]
 800168a:	6832      	ldr	r2, [r6, #0]
 800168c:	4876      	ldr	r0, [pc, #472]	; (8001868 <Screens_init+0x670>)
 800168e:	e9cd 3200 	strd	r3, r2, [sp]
 8001692:	210e      	movs	r1, #14
 8001694:	464b      	mov	r3, r9
 8001696:	220d      	movs	r2, #13
 8001698:	f003 fbe2 	bl	8004e60 <Short_Left_Colored_RU_DrawString_32>
 800169c:	6862      	ldr	r2, [r4, #4]
 800169e:	9202      	str	r2, [sp, #8]
 80016a0:	f8db 3000 	ldr.w	r3, [fp]
 80016a4:	6832      	ldr	r2, [r6, #0]
 80016a6:	4871      	ldr	r0, [pc, #452]	; (800186c <Screens_init+0x674>)
 80016a8:	e9cd 3200 	strd	r3, r2, [sp]
 80016ac:	2104      	movs	r1, #4
 80016ae:	464b      	mov	r3, r9
 80016b0:	f44f 72d2 	mov.w	r2, #420	; 0x1a4
 80016b4:	f003 fbd4 	bl	8004e60 <Short_Left_Colored_RU_DrawString_32>
 80016b8:	6828      	ldr	r0, [r5, #0]
 80016ba:	68a1      	ldr	r1, [r4, #8]
 80016bc:	4653      	mov	r3, sl
 80016be:	4642      	mov	r2, r8
 80016c0:	f004 f83a 	bl	8005738 <Zaliv>
 80016c4:	68a2      	ldr	r2, [r4, #8]
 80016c6:	9202      	str	r2, [sp, #8]
 80016c8:	f8db 3000 	ldr.w	r3, [fp]
 80016cc:	6832      	ldr	r2, [r6, #0]
 80016ce:	4868      	ldr	r0, [pc, #416]	; (8001870 <Screens_init+0x678>)
 80016d0:	e9cd 3200 	strd	r3, r2, [sp]
 80016d4:	2121      	movs	r1, #33	; 0x21
 80016d6:	231e      	movs	r3, #30
 80016d8:	220a      	movs	r2, #10
 80016da:	f003 fbc1 	bl	8004e60 <Short_Left_Colored_RU_DrawString_32>
 80016de:	68a2      	ldr	r2, [r4, #8]
 80016e0:	9202      	str	r2, [sp, #8]
 80016e2:	682b      	ldr	r3, [r5, #0]
 80016e4:	6832      	ldr	r2, [r6, #0]
 80016e6:	4863      	ldr	r0, [pc, #396]	; (8001874 <Screens_init+0x67c>)
 80016e8:	e9cd 3200 	strd	r3, r2, [sp]
 80016ec:	2113      	movs	r1, #19
 80016ee:	23b4      	movs	r3, #180	; 0xb4
 80016f0:	220a      	movs	r2, #10
 80016f2:	f003 fbb5 	bl	8004e60 <Short_Left_Colored_RU_DrawString_32>
 80016f6:	68a2      	ldr	r2, [r4, #8]
 80016f8:	9202      	str	r2, [sp, #8]
 80016fa:	682b      	ldr	r3, [r5, #0]
 80016fc:	6832      	ldr	r2, [r6, #0]
 80016fe:	485e      	ldr	r0, [pc, #376]	; (8001878 <Screens_init+0x680>)
 8001700:	e9cd 3200 	strd	r3, r2, [sp]
 8001704:	2115      	movs	r1, #21
 8001706:	23d2      	movs	r3, #210	; 0xd2
 8001708:	220a      	movs	r2, #10
 800170a:	f003 fba9 	bl	8004e60 <Short_Left_Colored_RU_DrawString_32>
 800170e:	68a2      	ldr	r2, [r4, #8]
 8001710:	9202      	str	r2, [sp, #8]
 8001712:	682b      	ldr	r3, [r5, #0]
 8001714:	6832      	ldr	r2, [r6, #0]
 8001716:	4859      	ldr	r0, [pc, #356]	; (800187c <Screens_init+0x684>)
 8001718:	e9cd 3200 	strd	r3, r2, [sp]
 800171c:	2113      	movs	r1, #19
 800171e:	23f0      	movs	r3, #240	; 0xf0
 8001720:	220a      	movs	r2, #10
 8001722:	f003 fb9d 	bl	8004e60 <Short_Left_Colored_RU_DrawString_32>
 8001726:	68a2      	ldr	r2, [r4, #8]
 8001728:	9202      	str	r2, [sp, #8]
 800172a:	682b      	ldr	r3, [r5, #0]
 800172c:	6832      	ldr	r2, [r6, #0]
 800172e:	4854      	ldr	r0, [pc, #336]	; (8001880 <Screens_init+0x688>)
 8001730:	e9cd 3200 	strd	r3, r2, [sp]
 8001734:	2113      	movs	r1, #19
 8001736:	f44f 7387 	mov.w	r3, #270	; 0x10e
 800173a:	220a      	movs	r2, #10
 800173c:	f003 fb90 	bl	8004e60 <Short_Left_Colored_RU_DrawString_32>
 8001740:	68a2      	ldr	r2, [r4, #8]
 8001742:	9202      	str	r2, [sp, #8]
 8001744:	682b      	ldr	r3, [r5, #0]
 8001746:	6832      	ldr	r2, [r6, #0]
 8001748:	484e      	ldr	r0, [pc, #312]	; (8001884 <Screens_init+0x68c>)
 800174a:	e9cd 3200 	strd	r3, r2, [sp]
 800174e:	211d      	movs	r1, #29
 8001750:	f44f 7396 	mov.w	r3, #300	; 0x12c
 8001754:	220a      	movs	r2, #10
 8001756:	f003 fb83 	bl	8004e60 <Short_Left_Colored_RU_DrawString_32>
 800175a:	68a2      	ldr	r2, [r4, #8]
 800175c:	9202      	str	r2, [sp, #8]
 800175e:	682b      	ldr	r3, [r5, #0]
 8001760:	6832      	ldr	r2, [r6, #0]
 8001762:	4849      	ldr	r0, [pc, #292]	; (8001888 <Screens_init+0x690>)
 8001764:	e9cd 3200 	strd	r3, r2, [sp]
 8001768:	211d      	movs	r1, #29
 800176a:	f44f 73a5 	mov.w	r3, #330	; 0x14a
 800176e:	220a      	movs	r2, #10
 8001770:	f003 fb76 	bl	8004e60 <Short_Left_Colored_RU_DrawString_32>
 8001774:	68a2      	ldr	r2, [r4, #8]
 8001776:	9202      	str	r2, [sp, #8]
 8001778:	682b      	ldr	r3, [r5, #0]
 800177a:	6832      	ldr	r2, [r6, #0]
 800177c:	4843      	ldr	r0, [pc, #268]	; (800188c <Screens_init+0x694>)
 800177e:	e9cd 3200 	strd	r3, r2, [sp]
 8001782:	210f      	movs	r1, #15
 8001784:	464b      	mov	r3, r9
 8001786:	220a      	movs	r2, #10
 8001788:	f003 fb6a 	bl	8004e60 <Short_Left_Colored_RU_DrawString_32>
 800178c:	68a2      	ldr	r2, [r4, #8]
 800178e:	9202      	str	r2, [sp, #8]
 8001790:	682b      	ldr	r3, [r5, #0]
 8001792:	6832      	ldr	r2, [r6, #0]
 8001794:	4832      	ldr	r0, [pc, #200]	; (8001860 <Screens_init+0x668>)
 8001796:	e9cd 3200 	strd	r3, r2, [sp]
 800179a:	4639      	mov	r1, r7
 800179c:	23b4      	movs	r3, #180	; 0xb4
 800179e:	f44f 7202 	mov.w	r2, #520	; 0x208
 80017a2:	f003 fb5d 	bl	8004e60 <Short_Left_Colored_RU_DrawString_32>
 80017a6:	68a2      	ldr	r2, [r4, #8]
 80017a8:	9202      	str	r2, [sp, #8]
 80017aa:	682b      	ldr	r3, [r5, #0]
 80017ac:	6832      	ldr	r2, [r6, #0]
 80017ae:	4838      	ldr	r0, [pc, #224]	; (8001890 <Screens_init+0x698>)
 80017b0:	e9cd 3200 	strd	r3, r2, [sp]
 80017b4:	2102      	movs	r1, #2
 80017b6:	23b4      	movs	r3, #180	; 0xb4
 80017b8:	f44f 7234 	mov.w	r2, #720	; 0x2d0
 80017bc:	f003 fb50 	bl	8004e60 <Short_Left_Colored_RU_DrawString_32>
 80017c0:	68a2      	ldr	r2, [r4, #8]
 80017c2:	9202      	str	r2, [sp, #8]
 80017c4:	682b      	ldr	r3, [r5, #0]
 80017c6:	6832      	ldr	r2, [r6, #0]
 80017c8:	4825      	ldr	r0, [pc, #148]	; (8001860 <Screens_init+0x668>)
 80017ca:	e9cd 3200 	strd	r3, r2, [sp]
 80017ce:	4639      	mov	r1, r7
 80017d0:	464b      	mov	r3, r9
 80017d2:	f44f 7202 	mov.w	r2, #520	; 0x208
 80017d6:	f003 fb43 	bl	8004e60 <Short_Left_Colored_RU_DrawString_32>
 80017da:	68a2      	ldr	r2, [r4, #8]
 80017dc:	9202      	str	r2, [sp, #8]
 80017de:	682b      	ldr	r3, [r5, #0]
 80017e0:	6832      	ldr	r2, [r6, #0]
 80017e2:	482b      	ldr	r0, [pc, #172]	; (8001890 <Screens_init+0x698>)
 80017e4:	e9cd 3200 	strd	r3, r2, [sp]
 80017e8:	2102      	movs	r1, #2
 80017ea:	464b      	mov	r3, r9
 80017ec:	f44f 7234 	mov.w	r2, #720	; 0x2d0
 80017f0:	f003 fb36 	bl	8004e60 <Short_Left_Colored_RU_DrawString_32>
 80017f4:	68a2      	ldr	r2, [r4, #8]
 80017f6:	9202      	str	r2, [sp, #8]
 80017f8:	682b      	ldr	r3, [r5, #0]
 80017fa:	6832      	ldr	r2, [r6, #0]
 80017fc:	4813      	ldr	r0, [pc, #76]	; (800184c <Screens_init+0x654>)
 80017fe:	e9cd 3200 	strd	r3, r2, [sp]
 8001802:	4639      	mov	r1, r7
 8001804:	f44f 7396 	mov.w	r3, #300	; 0x12c
 8001808:	f44f 7234 	mov.w	r2, #720	; 0x2d0
 800180c:	f003 fb28 	bl	8004e60 <Short_Left_Colored_RU_DrawString_32>
 8001810:	68a2      	ldr	r2, [r4, #8]
 8001812:	9202      	str	r2, [sp, #8]
 8001814:	682b      	ldr	r3, [r5, #0]
 8001816:	6832      	ldr	r2, [r6, #0]
 8001818:	480c      	ldr	r0, [pc, #48]	; (800184c <Screens_init+0x654>)
 800181a:	e9cd 3200 	strd	r3, r2, [sp]
 800181e:	4639      	mov	r1, r7
 8001820:	f44f 73a5 	mov.w	r3, #330	; 0x14a
 8001824:	f44f 7234 	mov.w	r2, #720	; 0x2d0
 8001828:	f003 fb1a 	bl	8004e60 <Short_Left_Colored_RU_DrawString_32>
 800182c:	68a2      	ldr	r2, [r4, #8]
 800182e:	9202      	str	r2, [sp, #8]
 8001830:	682b      	ldr	r3, [r5, #0]
 8001832:	6832      	ldr	r2, [r6, #0]
 8001834:	4817      	ldr	r0, [pc, #92]	; (8001894 <Screens_init+0x69c>)
 8001836:	e9cd 3200 	strd	r3, r2, [sp]
 800183a:	2106      	movs	r1, #6
 800183c:	235a      	movs	r3, #90	; 0x5a
 800183e:	f44f 720c 	mov.w	r2, #560	; 0x230
 8001842:	f003 fb0d 	bl	8004e60 <Short_Left_Colored_RU_DrawString_32>
 8001846:	68a2      	ldr	r2, [r4, #8]
 8001848:	e026      	b.n	8001898 <Screens_init+0x6a0>
 800184a:	bf00      	nop
 800184c:	080088f5 	.word	0x080088f5
 8001850:	080089c8 	.word	0x080089c8
 8001854:	080089fb 	.word	0x080089fb
 8001858:	08008a13 	.word	0x08008a13
 800185c:	08008a18 	.word	0x08008a18
 8001860:	08008a30 	.word	0x08008a30
 8001864:	08008a36 	.word	0x08008a36
 8001868:	08008a3f 	.word	0x08008a3f
 800186c:	08008a59 	.word	0x08008a59
 8001870:	08008a5f 	.word	0x08008a5f
 8001874:	08008aa0 	.word	0x08008aa0
 8001878:	08008ac5 	.word	0x08008ac5
 800187c:	08008aef 	.word	0x08008aef
 8001880:	08008b15 	.word	0x08008b15
 8001884:	08008b31 	.word	0x08008b31
 8001888:	08008b69 	.word	0x08008b69
 800188c:	08008ba0 	.word	0x08008ba0
 8001890:	08008bbe 	.word	0x08008bbe
 8001894:	08008bc2 	.word	0x08008bc2
 8001898:	9202      	str	r2, [sp, #8]
 800189a:	682b      	ldr	r3, [r5, #0]
 800189c:	6832      	ldr	r2, [r6, #0]
 800189e:	487f      	ldr	r0, [pc, #508]	; (8001a9c <Screens_init+0x8a4>)
 80018a0:	e9cd 3200 	strd	r3, r2, [sp]
 80018a4:	2106      	movs	r1, #6
 80018a6:	2378      	movs	r3, #120	; 0x78
 80018a8:	f44f 720c 	mov.w	r2, #560	; 0x230
 80018ac:	f003 fad8 	bl	8004e60 <Short_Left_Colored_RU_DrawString_32>
 80018b0:	68a2      	ldr	r2, [r4, #8]
 80018b2:	9202      	str	r2, [sp, #8]
 80018b4:	682b      	ldr	r3, [r5, #0]
 80018b6:	6832      	ldr	r2, [r6, #0]
 80018b8:	4878      	ldr	r0, [pc, #480]	; (8001a9c <Screens_init+0x8a4>)
 80018ba:	e9cd 3200 	strd	r3, r2, [sp]
 80018be:	2106      	movs	r1, #6
 80018c0:	2396      	movs	r3, #150	; 0x96
 80018c2:	f44f 720c 	mov.w	r2, #560	; 0x230
 80018c6:	f003 facb 	bl	8004e60 <Short_Left_Colored_RU_DrawString_32>
 80018ca:	6828      	ldr	r0, [r5, #0]
 80018cc:	68e1      	ldr	r1, [r4, #12]
 80018ce:	4653      	mov	r3, sl
 80018d0:	4642      	mov	r2, r8
 80018d2:	f003 ff31 	bl	8005738 <Zaliv>
 80018d6:	68e2      	ldr	r2, [r4, #12]
 80018d8:	9202      	str	r2, [sp, #8]
 80018da:	682b      	ldr	r3, [r5, #0]
 80018dc:	6832      	ldr	r2, [r6, #0]
 80018de:	4870      	ldr	r0, [pc, #448]	; (8001aa0 <Screens_init+0x8a8>)
 80018e0:	e9cd 3200 	strd	r3, r2, [sp]
 80018e4:	210b      	movs	r1, #11
 80018e6:	230f      	movs	r3, #15
 80018e8:	f44f 72c8 	mov.w	r2, #400	; 0x190
 80018ec:	f003 faf0 	bl	8004ed0 <Short_Centred_RU_DrawString_32>
 80018f0:	68e3      	ldr	r3, [r4, #12]
 80018f2:	2100      	movs	r1, #0
 80018f4:	e9cd 8a02 	strd	r8, sl, [sp, #8]
 80018f8:	e9cd 7300 	strd	r7, r3, [sp]
 80018fc:	4608      	mov	r0, r1
 80018fe:	4643      	mov	r3, r8
 8001900:	221e      	movs	r2, #30
 8001902:	f003 ff2c 	bl	800575e <Draw_Rectangle>
 8001906:	68e3      	ldr	r3, [r4, #12]
 8001908:	9301      	str	r3, [sp, #4]
 800190a:	f44f 73cd 	mov.w	r3, #410	; 0x19a
 800190e:	e9cd 8a02 	strd	r8, sl, [sp, #8]
 8001912:	9300      	str	r3, [sp, #0]
 8001914:	2246      	movs	r2, #70	; 0x46
 8001916:	463b      	mov	r3, r7
 8001918:	f44f 71fa 	mov.w	r1, #500	; 0x1f4
 800191c:	2000      	movs	r0, #0
 800191e:	f003 ff1e 	bl	800575e <Draw_Rectangle>
 8001922:	6828      	ldr	r0, [r5, #0]
 8001924:	6921      	ldr	r1, [r4, #16]
 8001926:	4653      	mov	r3, sl
 8001928:	4642      	mov	r2, r8
 800192a:	f003 ff05 	bl	8005738 <Zaliv>
 800192e:	6922      	ldr	r2, [r4, #16]
 8001930:	9202      	str	r2, [sp, #8]
 8001932:	682b      	ldr	r3, [r5, #0]
 8001934:	6832      	ldr	r2, [r6, #0]
 8001936:	485b      	ldr	r0, [pc, #364]	; (8001aa4 <Screens_init+0x8ac>)
 8001938:	e9cd 3200 	strd	r3, r2, [sp]
 800193c:	2117      	movs	r1, #23
 800193e:	230f      	movs	r3, #15
 8001940:	f44f 72c8 	mov.w	r2, #400	; 0x190
 8001944:	f003 fac4 	bl	8004ed0 <Short_Centred_RU_DrawString_32>
 8001948:	6923      	ldr	r3, [r4, #16]
 800194a:	2100      	movs	r1, #0
 800194c:	e9cd 8a02 	strd	r8, sl, [sp, #8]
 8001950:	e9cd 7300 	strd	r7, r3, [sp]
 8001954:	4608      	mov	r0, r1
 8001956:	4643      	mov	r3, r8
 8001958:	221e      	movs	r2, #30
 800195a:	f003 ff00 	bl	800575e <Draw_Rectangle>
 800195e:	6828      	ldr	r0, [r5, #0]
 8001960:	6961      	ldr	r1, [r4, #20]
 8001962:	4653      	mov	r3, sl
 8001964:	4642      	mov	r2, r8
 8001966:	f003 fee7 	bl	8005738 <Zaliv>
 800196a:	4b4f      	ldr	r3, [pc, #316]	; (8001aa8 <Screens_init+0x8b0>)
 800196c:	6828      	ldr	r0, [r5, #0]
 800196e:	f9b3 2002 	ldrsh.w	r2, [r3, #2]
 8001972:	69a1      	ldr	r1, [r4, #24]
 8001974:	f8df a148 	ldr.w	sl, [pc, #328]	; 8001ac0 <Screens_init+0x8c8>
 8001978:	2a04      	cmp	r2, #4
 800197a:	bfc4      	itt	gt
 800197c:	2204      	movgt	r2, #4
 800197e:	805a      	strhgt	r2, [r3, #2]
 8001980:	f44f 73f0 	mov.w	r3, #480	; 0x1e0
 8001984:	f44f 7248 	mov.w	r2, #800	; 0x320
 8001988:	f003 fed6 	bl	8005738 <Zaliv>
 800198c:	69a2      	ldr	r2, [r4, #24]
 800198e:	9202      	str	r2, [sp, #8]
 8001990:	682b      	ldr	r3, [r5, #0]
 8001992:	6832      	ldr	r2, [r6, #0]
 8001994:	4845      	ldr	r0, [pc, #276]	; (8001aac <Screens_init+0x8b4>)
 8001996:	e9cd 3200 	strd	r3, r2, [sp]
 800199a:	211a      	movs	r1, #26
 800199c:	230f      	movs	r3, #15
 800199e:	f44f 72c8 	mov.w	r2, #400	; 0x190
 80019a2:	f44f 7748 	mov.w	r7, #800	; 0x320
 80019a6:	f003 fa93 	bl	8004ed0 <Short_Centred_RU_DrawString_32>
 80019aa:	f44f 78f0 	mov.w	r8, #480	; 0x1e0
 80019ae:	f04f 0903 	mov.w	r9, #3
 80019b2:	69a3      	ldr	r3, [r4, #24]
 80019b4:	9301      	str	r3, [sp, #4]
 80019b6:	2100      	movs	r1, #0
 80019b8:	463b      	mov	r3, r7
 80019ba:	4608      	mov	r0, r1
 80019bc:	e9cd 7802 	strd	r7, r8, [sp, #8]
 80019c0:	f8cd 9000 	str.w	r9, [sp]
 80019c4:	221e      	movs	r2, #30
 80019c6:	f003 feca 	bl	800575e <Draw_Rectangle>
 80019ca:	6828      	ldr	r0, [r5, #0]
 80019cc:	69e1      	ldr	r1, [r4, #28]
 80019ce:	4643      	mov	r3, r8
 80019d0:	463a      	mov	r2, r7
 80019d2:	f003 feb1 	bl	8005738 <Zaliv>
 80019d6:	69e2      	ldr	r2, [r4, #28]
 80019d8:	9202      	str	r2, [sp, #8]
 80019da:	682b      	ldr	r3, [r5, #0]
 80019dc:	6832      	ldr	r2, [r6, #0]
 80019de:	4834      	ldr	r0, [pc, #208]	; (8001ab0 <Screens_init+0x8b8>)
 80019e0:	e9cd 3200 	strd	r3, r2, [sp]
 80019e4:	2113      	movs	r1, #19
 80019e6:	230f      	movs	r3, #15
 80019e8:	f44f 72c8 	mov.w	r2, #400	; 0x190
 80019ec:	f003 fa70 	bl	8004ed0 <Short_Centred_RU_DrawString_32>
 80019f0:	69e3      	ldr	r3, [r4, #28]
 80019f2:	2100      	movs	r1, #0
 80019f4:	e9cd 9300 	strd	r9, r3, [sp]
 80019f8:	4608      	mov	r0, r1
 80019fa:	463b      	mov	r3, r7
 80019fc:	e9cd 7802 	strd	r7, r8, [sp, #8]
 8001a00:	221e      	movs	r2, #30
 8001a02:	f003 feac 	bl	800575e <Draw_Rectangle>
 8001a06:	f8da 0000 	ldr.w	r0, [sl]
 8001a0a:	6d21      	ldr	r1, [r4, #80]	; 0x50
 8001a0c:	4643      	mov	r3, r8
 8001a0e:	463a      	mov	r2, r7
 8001a10:	f003 fe92 	bl	8005738 <Zaliv>
 8001a14:	6d22      	ldr	r2, [r4, #80]	; 0x50
 8001a16:	f8da 3000 	ldr.w	r3, [sl]
 8001a1a:	9202      	str	r2, [sp, #8]
 8001a1c:	6832      	ldr	r2, [r6, #0]
 8001a1e:	4825      	ldr	r0, [pc, #148]	; (8001ab4 <Screens_init+0x8bc>)
 8001a20:	e9cd 3200 	strd	r3, r2, [sp]
 8001a24:	211c      	movs	r1, #28
 8001a26:	230f      	movs	r3, #15
 8001a28:	f44f 72c8 	mov.w	r2, #400	; 0x190
 8001a2c:	f003 fa50 	bl	8004ed0 <Short_Centred_RU_DrawString_32>
 8001a30:	6d23      	ldr	r3, [r4, #80]	; 0x50
 8001a32:	2100      	movs	r1, #0
 8001a34:	e9cd 9300 	strd	r9, r3, [sp]
 8001a38:	4608      	mov	r0, r1
 8001a3a:	463b      	mov	r3, r7
 8001a3c:	e9cd 7802 	strd	r7, r8, [sp, #8]
 8001a40:	221e      	movs	r2, #30
 8001a42:	f003 fe8c 	bl	800575e <Draw_Rectangle>
 8001a46:	6828      	ldr	r0, [r5, #0]
 8001a48:	6d61      	ldr	r1, [r4, #84]	; 0x54
 8001a4a:	4643      	mov	r3, r8
 8001a4c:	463a      	mov	r2, r7
 8001a4e:	f003 fe73 	bl	8005738 <Zaliv>
 8001a52:	6d62      	ldr	r2, [r4, #84]	; 0x54
 8001a54:	9202      	str	r2, [sp, #8]
 8001a56:	682b      	ldr	r3, [r5, #0]
 8001a58:	6832      	ldr	r2, [r6, #0]
 8001a5a:	4817      	ldr	r0, [pc, #92]	; (8001ab8 <Screens_init+0x8c0>)
 8001a5c:	e9cd 3200 	strd	r3, r2, [sp]
 8001a60:	2110      	movs	r1, #16
 8001a62:	230f      	movs	r3, #15
 8001a64:	f44f 72c8 	mov.w	r2, #400	; 0x190
 8001a68:	f003 fa32 	bl	8004ed0 <Short_Centred_RU_DrawString_32>
 8001a6c:	6d63      	ldr	r3, [r4, #84]	; 0x54
 8001a6e:	2100      	movs	r1, #0
 8001a70:	e9cd 9300 	strd	r9, r3, [sp]
 8001a74:	e9cd 7802 	strd	r7, r8, [sp, #8]
 8001a78:	463b      	mov	r3, r7
 8001a7a:	221e      	movs	r2, #30
 8001a7c:	4608      	mov	r0, r1
 8001a7e:	f003 fe6e 	bl	800575e <Draw_Rectangle>
 8001a82:	b005      	add	sp, #20
 8001a84:	e8bd 8ff0 	ldmia.w	sp!, {r4, r5, r6, r7, r8, r9, sl, fp, pc}
 8001a88:	9302      	str	r3, [sp, #8]
 8001a8a:	682a      	ldr	r2, [r5, #0]
 8001a8c:	6833      	ldr	r3, [r6, #0]
 8001a8e:	480b      	ldr	r0, [pc, #44]	; (8001abc <Screens_init+0x8c4>)
 8001a90:	e9cd 2300 	strd	r2, r3, [sp]
 8001a94:	2101      	movs	r1, #1
 8001a96:	2317      	movs	r3, #23
 8001a98:	464a      	mov	r2, r9
 8001a9a:	e40e      	b.n	80012ba <Screens_init+0xc2>
 8001a9c:	08008bc2 	.word	0x08008bc2
 8001aa0:	08008bce 	.word	0x08008bce
 8001aa4:	08008be4 	.word	0x08008be4
 8001aa8:	20000234 	.word	0x20000234
 8001aac:	08008c11 	.word	0x08008c11
 8001ab0:	08008c44 	.word	0x08008c44
 8001ab4:	08008c6a 	.word	0x08008c6a
 8001ab8:	08008ca1 	.word	0x08008ca1
 8001abc:	08008eb7 	.word	0x08008eb7
 8001ac0:	20000010 	.word	0x20000010

08001ac4 <Set_Screen>:
 8001ac4:	e92d 4ff0 	stmdb	sp!, {r4, r5, r6, r7, r8, r9, sl, fp, lr}
 8001ac8:	4d19      	ldr	r5, [pc, #100]	; (8001b30 <Set_Screen+0x6c>)
 8001aca:	4b1a      	ldr	r3, [pc, #104]	; (8001b34 <Set_Screen+0x70>)
 8001acc:	4a1a      	ldr	r2, [pc, #104]	; (8001b38 <Set_Screen+0x74>)
 8001ace:	4e1b      	ldr	r6, [pc, #108]	; (8001b3c <Set_Screen+0x78>)
 8001ad0:	681c      	ldr	r4, [r3, #0]
 8001ad2:	b091      	sub	sp, #68	; 0x44
 8001ad4:	2300      	movs	r3, #0
 8001ad6:	900f      	str	r0, [sp, #60]	; 0x3c
 8001ad8:	f9b5 0000 	ldrsh.w	r0, [r5]
 8001adc:	4693      	mov	fp, r2
 8001ade:	4298      	cmp	r0, r3
 8001ae0:	f103 0301 	add.w	r3, r3, #1
 8001ae4:	bf14      	ite	ne
 8001ae6:	6831      	ldrne	r1, [r6, #0]
 8001ae8:	4621      	moveq	r1, r4
 8001aea:	2b14      	cmp	r3, #20
 8001aec:	f842 1b04 	str.w	r1, [r2], #4
 8001af0:	d1f5      	bne.n	8001ade <Set_Screen+0x1a>
 8001af2:	9b0f      	ldr	r3, [sp, #60]	; 0x3c
 8001af4:	f8df a048 	ldr.w	sl, [pc, #72]	; 8001b40 <Set_Screen+0x7c>
 8001af8:	3b01      	subs	r3, #1
 8001afa:	2b14      	cmp	r3, #20
 8001afc:	f200 8216 	bhi.w	8001f2c <Set_Screen+0x468>
 8001b00:	e8df f013 	tbh	[pc, r3, lsl #1]
 8001b04:	02780020 	.word	0x02780020
 8001b08:	0832044c 	.word	0x0832044c
 8001b0c:	091a0896 	.word	0x091a0896
 8001b10:	02140bf4 	.word	0x02140bf4
 8001b14:	02140214 	.word	0x02140214
 8001b18:	02140214 	.word	0x02140214
 8001b1c:	02140214 	.word	0x02140214
 8001b20:	02140214 	.word	0x02140214
 8001b24:	02140214 	.word	0x02140214
 8001b28:	02140214 	.word	0x02140214
 8001b2c:	0d34      	.short	0x0d34
 8001b2e:	bf00      	nop
 8001b30:	20000234 	.word	0x20000234
 8001b34:	20000014 	.word	0x20000014
 8001b38:	200000a4 	.word	0x200000a4
 8001b3c:	20000000 	.word	0x20000000
 8001b40:	2000024c 	.word	0x2000024c
 8001b44:	23cf      	movs	r3, #207	; 0xcf
 8001b46:	f8df b35c 	ldr.w	fp, [pc, #860]	; 8001ea4 <Set_Screen+0x3e0>
 8001b4a:	4dc6      	ldr	r5, [pc, #792]	; (8001e64 <Set_Screen+0x3a0>)
 8001b4c:	4cc6      	ldr	r4, [pc, #792]	; (8001e68 <Set_Screen+0x3a4>)
 8001b4e:	930d      	str	r3, [sp, #52]	; 0x34
 8001b50:	f04f 0900 	mov.w	r9, #0
 8001b54:	f1b9 0f01 	cmp.w	r9, #1
 8001b58:	49c4      	ldr	r1, [pc, #784]	; (8001e6c <Set_Screen+0x3a8>)
 8001b5a:	4bc5      	ldr	r3, [pc, #788]	; (8001e70 <Set_Screen+0x3ac>)
 8001b5c:	f8df 8348 	ldr.w	r8, [pc, #840]	; 8001ea8 <Set_Screen+0x3e4>
 8001b60:	4ec4      	ldr	r6, [pc, #784]	; (8001e74 <Set_Screen+0x3b0>)
 8001b62:	4ac5      	ldr	r2, [pc, #788]	; (8001e78 <Set_Screen+0x3b4>)
 8001b64:	f000 81f7 	beq.w	8001f56 <Set_Screen+0x492>
 8001b68:	f1b9 0f02 	cmp.w	r9, #2
 8001b6c:	f000 8205 	beq.w	8001f7a <Set_Screen+0x4b6>
 8001b70:	7a18      	ldrb	r0, [r3, #8]
 8001b72:	4fc2      	ldr	r7, [pc, #776]	; (8001e7c <Set_Screen+0x3b8>)
 8001b74:	7008      	strb	r0, [r1, #0]
 8001b76:	7d98      	ldrb	r0, [r3, #22]
 8001b78:	7038      	strb	r0, [r7, #0]
 8001b7a:	7a58      	ldrb	r0, [r3, #9]
 8001b7c:	f888 0000 	strb.w	r0, [r8]
 8001b80:	8a18      	ldrh	r0, [r3, #16]
 8001b82:	8030      	strh	r0, [r6, #0]
 8001b84:	8a58      	ldrh	r0, [r3, #18]
 8001b86:	f8ab 0000 	strh.w	r0, [fp]
 8001b8a:	8a98      	ldrh	r0, [r3, #20]
 8001b8c:	68db      	ldr	r3, [r3, #12]
 8001b8e:	8010      	strh	r0, [r2, #0]
 8001b90:	4abb      	ldr	r2, [pc, #748]	; (8001e80 <Set_Screen+0x3bc>)
 8001b92:	7809      	ldrb	r1, [r1, #0]
 8001b94:	6013      	str	r3, [r2, #0]
 8001b96:	f8bd 3034 	ldrh.w	r3, [sp, #52]	; 0x34
 8001b9a:	930e      	str	r3, [sp, #56]	; 0x38
 8001b9c:	f1a3 0269 	sub.w	r2, r3, #105	; 0x69
 8001ba0:	6860      	ldr	r0, [r4, #4]
 8001ba2:	682b      	ldr	r3, [r5, #0]
 8001ba4:	b292      	uxth	r2, r2
 8001ba6:	2900      	cmp	r1, #0
 8001ba8:	f000 81fb 	beq.w	8001fa2 <Set_Screen+0x4de>
 8001bac:	49b5      	ldr	r1, [pc, #724]	; (8001e84 <Set_Screen+0x3c0>)
 8001bae:	6809      	ldr	r1, [r1, #0]
 8001bb0:	9100      	str	r1, [sp, #0]
 8001bb2:	e9cd 3001 	strd	r3, r0, [sp, #4]
 8001bb6:	48b4      	ldr	r0, [pc, #720]	; (8001e88 <Set_Screen+0x3c4>)
 8001bb8:	2314      	movs	r3, #20
 8001bba:	2109      	movs	r1, #9
 8001bbc:	f003 f950 	bl	8004e60 <Short_Left_Colored_RU_DrawString_32>
 8001bc0:	9b0e      	ldr	r3, [sp, #56]	; 0x38
 8001bc2:	f1a3 071e 	sub.w	r7, r3, #30
 8001bc6:	f8da 3004 	ldr.w	r3, [sl, #4]
 8001bca:	9302      	str	r3, [sp, #8]
 8001bcc:	b2bf      	uxth	r7, r7
 8001bce:	2334      	movs	r3, #52	; 0x34
 8001bd0:	e9cd 7300 	strd	r7, r3, [sp]
 8001bd4:	2204      	movs	r2, #4
 8001bd6:	f9b6 0000 	ldrsh.w	r0, [r6]
 8001bda:	2300      	movs	r3, #0
 8001bdc:	2101      	movs	r1, #1
 8001bde:	f003 fcf1 	bl	80055c4 <Short_Centred_DrawNumber_16>
 8001be2:	f8da 3004 	ldr.w	r3, [sl, #4]
 8001be6:	9302      	str	r3, [sp, #8]
 8001be8:	2352      	movs	r3, #82	; 0x52
 8001bea:	e9cd 7300 	strd	r7, r3, [sp]
 8001bee:	2204      	movs	r2, #4
 8001bf0:	f9bb 0000 	ldrsh.w	r0, [fp]
 8001bf4:	2300      	movs	r3, #0
 8001bf6:	2102      	movs	r1, #2
 8001bf8:	f003 fce4 	bl	80055c4 <Short_Centred_DrawNumber_16>
 8001bfc:	f8da 3004 	ldr.w	r3, [sl, #4]
 8001c00:	9302      	str	r3, [sp, #8]
 8001c02:	2370      	movs	r3, #112	; 0x70
 8001c04:	e9cd 7300 	strd	r7, r3, [sp]
 8001c08:	489b      	ldr	r0, [pc, #620]	; (8001e78 <Set_Screen+0x3b4>)
 8001c0a:	2300      	movs	r3, #0
 8001c0c:	2204      	movs	r2, #4
 8001c0e:	4619      	mov	r1, r3
 8001c10:	f9b0 0000 	ldrsh.w	r0, [r0]
 8001c14:	f003 fcd6 	bl	80055c4 <Short_Centred_DrawNumber_16>
 8001c18:	9b0e      	ldr	r3, [sp, #56]	; 0x38
 8001c1a:	f1a3 06c3 	sub.w	r6, r3, #195	; 0xc3
 8001c1e:	4b97      	ldr	r3, [pc, #604]	; (8001e7c <Set_Screen+0x3b8>)
 8001c20:	781b      	ldrb	r3, [r3, #0]
 8001c22:	b2b2      	uxth	r2, r6
 8001c24:	2b00      	cmp	r3, #0
 8001c26:	f000 81c5 	beq.w	8001fb4 <Set_Screen+0x4f0>
 8001c2a:	4b96      	ldr	r3, [pc, #600]	; (8001e84 <Set_Screen+0x3c0>)
 8001c2c:	f8da 1004 	ldr.w	r1, [sl, #4]
 8001c30:	681b      	ldr	r3, [r3, #0]
 8001c32:	9102      	str	r1, [sp, #8]
 8001c34:	6829      	ldr	r1, [r5, #0]
 8001c36:	4895      	ldr	r0, [pc, #596]	; (8001e8c <Set_Screen+0x3c8>)
 8001c38:	920e      	str	r2, [sp, #56]	; 0x38
 8001c3a:	e9cd 3100 	strd	r3, r1, [sp]
 8001c3e:	238c      	movs	r3, #140	; 0x8c
 8001c40:	210e      	movs	r1, #14
 8001c42:	f003 f90d 	bl	8004e60 <Short_Left_Colored_RU_DrawString_32>
 8001c46:	f898 0000 	ldrb.w	r0, [r8]
 8001c4a:	9a0e      	ldr	r2, [sp, #56]	; 0x38
 8001c4c:	682b      	ldr	r3, [r5, #0]
 8001c4e:	6861      	ldr	r1, [r4, #4]
 8001c50:	2800      	cmp	r0, #0
 8001c52:	f000 81b1 	beq.w	8001fb8 <Set_Screen+0x4f4>
 8001c56:	488e      	ldr	r0, [pc, #568]	; (8001e90 <Set_Screen+0x3cc>)
 8001c58:	6800      	ldr	r0, [r0, #0]
 8001c5a:	9000      	str	r0, [sp, #0]
 8001c5c:	e9cd 3101 	strd	r3, r1, [sp, #4]
 8001c60:	488c      	ldr	r0, [pc, #560]	; (8001e94 <Set_Screen+0x3d0>)
 8001c62:	4e8d      	ldr	r6, [pc, #564]	; (8001e98 <Set_Screen+0x3d4>)
 8001c64:	23aa      	movs	r3, #170	; 0xaa
 8001c66:	210e      	movs	r1, #14
 8001c68:	f003 f8fa 	bl	8004e60 <Short_Left_Colored_RU_DrawString_32>
 8001c6c:	270b      	movs	r7, #11
 8001c6e:	2212      	movs	r2, #18
 8001c70:	6833      	ldr	r3, [r6, #0]
 8001c72:	e9cd 7208 	strd	r7, r2, [sp, #32]
 8001c76:	4a89      	ldr	r2, [pc, #548]	; (8001e9c <Set_Screen+0x3d8>)
 8001c78:	9207      	str	r2, [sp, #28]
 8001c7a:	682a      	ldr	r2, [r5, #0]
 8001c7c:	e9cd 3205 	strd	r3, r2, [sp, #20]
 8001c80:	6863      	ldr	r3, [r4, #4]
 8001c82:	9304      	str	r3, [sp, #16]
 8001c84:	f44f 70f0 	mov.w	r0, #480	; 0x1e0
 8001c88:	f44f 7348 	mov.w	r3, #800	; 0x320
 8001c8c:	e9cd 3002 	strd	r3, r0, [sp, #8]
 8001c90:	23cd      	movs	r3, #205	; 0xcd
 8001c92:	9301      	str	r3, [sp, #4]
 8001c94:	487a      	ldr	r0, [pc, #488]	; (8001e80 <Set_Screen+0x3bc>)
 8001c96:	9b0d      	ldr	r3, [sp, #52]	; 0x34
 8001c98:	9300      	str	r3, [sp, #0]
 8001c9a:	2300      	movs	r3, #0
 8001c9c:	4619      	mov	r1, r3
 8001c9e:	6800      	ldr	r0, [r0, #0]
 8001ca0:	220a      	movs	r2, #10
 8001ca2:	f003 fa39 	bl	8005118 <Centred_DrawNumber_16_32bit>
 8001ca6:	9b0d      	ldr	r3, [sp, #52]	; 0x34
 8001ca8:	f109 0901 	add.w	r9, r9, #1
 8001cac:	f503 7382 	add.w	r3, r3, #260	; 0x104
 8001cb0:	f1b9 0f03 	cmp.w	r9, #3
 8001cb4:	930d      	str	r3, [sp, #52]	; 0x34
 8001cb6:	f47f af4d 	bne.w	8001b54 <Set_Screen+0x90>
 8001cba:	f04f 0b19 	mov.w	fp, #25
 8001cbe:	2210      	movs	r2, #16
 8001cc0:	6833      	ldr	r3, [r6, #0]
 8001cc2:	f8df 81ac 	ldr.w	r8, [pc, #428]	; 8001e70 <Set_Screen+0x3ac>
 8001cc6:	e9cd 2b08 	strd	r2, fp, [sp, #32]
 8001cca:	4a75      	ldr	r2, [pc, #468]	; (8001ea0 <Set_Screen+0x3dc>)
 8001ccc:	9207      	str	r2, [sp, #28]
 8001cce:	682a      	ldr	r2, [r5, #0]
 8001cd0:	e9cd 3205 	strd	r3, r2, [sp, #20]
 8001cd4:	6863      	ldr	r3, [r4, #4]
 8001cd6:	9304      	str	r3, [sp, #16]
 8001cd8:	f44f 7cf0 	mov.w	ip, #480	; 0x1e0
 8001cdc:	f44f 7348 	mov.w	r3, #800	; 0x320
 8001ce0:	e9cd 3c02 	strd	r3, ip, [sp, #8]
 8001ce4:	f44f 7a2f 	mov.w	sl, #700	; 0x2bc
 8001ce8:	f44f 7387 	mov.w	r3, #270	; 0x10e
 8001cec:	e9cd a300 	strd	sl, r3, [sp]
 8001cf0:	2300      	movs	r3, #0
 8001cf2:	464a      	mov	r2, r9
 8001cf4:	4619      	mov	r1, r3
 8001cf6:	f9b8 0000 	ldrsh.w	r0, [r8]
 8001cfa:	f003 f905 	bl	8004f08 <Centred_DrawNumber_16>
 8001cfe:	4a68      	ldr	r2, [pc, #416]	; (8001ea0 <Set_Screen+0x3dc>)
 8001d00:	6833      	ldr	r3, [r6, #0]
 8001d02:	f8cd b024 	str.w	fp, [sp, #36]	; 0x24
 8001d06:	2110      	movs	r1, #16
 8001d08:	9108      	str	r1, [sp, #32]
 8001d0a:	9207      	str	r2, [sp, #28]
 8001d0c:	682a      	ldr	r2, [r5, #0]
 8001d0e:	e9cd 3205 	strd	r3, r2, [sp, #20]
 8001d12:	6863      	ldr	r3, [r4, #4]
 8001d14:	9304      	str	r3, [sp, #16]
 8001d16:	f44f 7ef0 	mov.w	lr, #480	; 0x1e0
 8001d1a:	f44f 7348 	mov.w	r3, #800	; 0x320
 8001d1e:	e9cd 3e02 	strd	r3, lr, [sp, #8]
 8001d22:	f44f 73a5 	mov.w	r3, #330	; 0x14a
 8001d26:	e9cd a300 	strd	sl, r3, [sp]
 8001d2a:	2300      	movs	r3, #0
 8001d2c:	464a      	mov	r2, r9
 8001d2e:	4619      	mov	r1, r3
 8001d30:	f9b8 0002 	ldrsh.w	r0, [r8, #2]
 8001d34:	f003 f8e8 	bl	8004f08 <Centred_DrawNumber_16>
 8001d38:	4a59      	ldr	r2, [pc, #356]	; (8001ea0 <Set_Screen+0x3dc>)
 8001d3a:	6833      	ldr	r3, [r6, #0]
 8001d3c:	f8cd b024 	str.w	fp, [sp, #36]	; 0x24
 8001d40:	2110      	movs	r1, #16
 8001d42:	9108      	str	r1, [sp, #32]
 8001d44:	9207      	str	r2, [sp, #28]
 8001d46:	682a      	ldr	r2, [r5, #0]
 8001d48:	e9cd 3205 	strd	r3, r2, [sp, #20]
 8001d4c:	6863      	ldr	r3, [r4, #4]
 8001d4e:	9304      	str	r3, [sp, #16]
 8001d50:	f44f 7bf0 	mov.w	fp, #480	; 0x1e0
 8001d54:	f44f 7348 	mov.w	r3, #800	; 0x320
 8001d58:	e9cd 3b02 	strd	r3, fp, [sp, #8]
 8001d5c:	f44f 73c3 	mov.w	r3, #390	; 0x186
 8001d60:	e9cd a300 	strd	sl, r3, [sp]
 8001d64:	2300      	movs	r3, #0
 8001d66:	464a      	mov	r2, r9
 8001d68:	4619      	mov	r1, r3
 8001d6a:	f9b8 0004 	ldrsh.w	r0, [r8, #4]
 8001d6e:	f003 f8cb 	bl	8004f08 <Centred_DrawNumber_16>
 8001d72:	6863      	ldr	r3, [r4, #4]
 8001d74:	9302      	str	r3, [sp, #8]
 8001d76:	f240 2926 	movw	r9, #550	; 0x226
 8001d7a:	23f2      	movs	r3, #242	; 0xf2
 8001d7c:	e9cd 9300 	strd	r9, r3, [sp]
 8001d80:	2204      	movs	r2, #4
 8001d82:	f9b8 0044 	ldrsh.w	r0, [r8, #68]	; 0x44
 8001d86:	2300      	movs	r3, #0
 8001d88:	2101      	movs	r1, #1
 8001d8a:	f003 fc1b 	bl	80055c4 <Short_Centred_DrawNumber_16>
 8001d8e:	6863      	ldr	r3, [r4, #4]
 8001d90:	9302      	str	r3, [sp, #8]
 8001d92:	f44f 7388 	mov.w	r3, #272	; 0x110
 8001d96:	e9cd 9300 	strd	r9, r3, [sp]
 8001d9a:	2204      	movs	r2, #4
 8001d9c:	f9b8 0046 	ldrsh.w	r0, [r8, #70]	; 0x46
 8001da0:	2300      	movs	r3, #0
 8001da2:	2101      	movs	r1, #1
 8001da4:	f003 fc0e 	bl	80055c4 <Short_Centred_DrawNumber_16>
 8001da8:	6863      	ldr	r3, [r4, #4]
 8001daa:	9302      	str	r3, [sp, #8]
 8001dac:	f44f 7b97 	mov.w	fp, #302	; 0x12e
 8001db0:	f44f 73a5 	mov.w	r3, #330	; 0x14a
 8001db4:	e9cd 3b00 	strd	r3, fp, [sp]
 8001db8:	2204      	movs	r2, #4
 8001dba:	f9b8 0048 	ldrsh.w	r0, [r8, #72]	; 0x48
 8001dbe:	2300      	movs	r3, #0
 8001dc0:	2101      	movs	r1, #1
 8001dc2:	f003 fbff 	bl	80055c4 <Short_Centred_DrawNumber_16>
 8001dc6:	6863      	ldr	r3, [r4, #4]
 8001dc8:	f8cd 9000 	str.w	r9, [sp]
 8001dcc:	e9cd b301 	strd	fp, r3, [sp, #4]
 8001dd0:	2204      	movs	r2, #4
 8001dd2:	f9b8 004a 	ldrsh.w	r0, [r8, #74]	; 0x4a
 8001dd6:	2300      	movs	r3, #0
 8001dd8:	2101      	movs	r1, #1
 8001dda:	f003 fbf3 	bl	80055c4 <Short_Centred_DrawNumber_16>
 8001dde:	6863      	ldr	r3, [r4, #4]
 8001de0:	9302      	str	r3, [sp, #8]
 8001de2:	f44f 79a7 	mov.w	r9, #334	; 0x14e
 8001de6:	f44f 739b 	mov.w	r3, #310	; 0x136
 8001dea:	e9cd 3900 	strd	r3, r9, [sp]
 8001dee:	2206      	movs	r2, #6
 8001df0:	f9b8 004c 	ldrsh.w	r0, [r8, #76]	; 0x4c
 8001df4:	2300      	movs	r3, #0
 8001df6:	2101      	movs	r1, #1
 8001df8:	f003 fbe4 	bl	80055c4 <Short_Centred_DrawNumber_16>
 8001dfc:	6863      	ldr	r3, [r4, #4]
 8001dfe:	e9cd 9301 	strd	r9, r3, [sp, #4]
 8001e02:	f240 2312 	movw	r3, #530	; 0x212
 8001e06:	9300      	str	r3, [sp, #0]
 8001e08:	f9b8 0054 	ldrsh.w	r0, [r8, #84]	; 0x54
 8001e0c:	2300      	movs	r3, #0
 8001e0e:	2206      	movs	r2, #6
 8001e10:	2101      	movs	r1, #1
 8001e12:	f003 fbd7 	bl	80055c4 <Short_Centred_DrawNumber_16>
 8001e16:	2212      	movs	r2, #18
 8001e18:	6833      	ldr	r3, [r6, #0]
 8001e1a:	e9cd 7208 	strd	r7, r2, [sp, #32]
 8001e1e:	4a1f      	ldr	r2, [pc, #124]	; (8001e9c <Set_Screen+0x3d8>)
 8001e20:	9207      	str	r2, [sp, #28]
 8001e22:	682a      	ldr	r2, [r5, #0]
 8001e24:	e9cd 3205 	strd	r3, r2, [sp, #20]
 8001e28:	6863      	ldr	r3, [r4, #4]
 8001e2a:	9304      	str	r3, [sp, #16]
 8001e2c:	f44f 72f0 	mov.w	r2, #480	; 0x1e0
 8001e30:	f44f 7348 	mov.w	r3, #800	; 0x320
 8001e34:	e9cd 3202 	strd	r3, r2, [sp, #8]
 8001e38:	f44f 79b6 	mov.w	r9, #364	; 0x16c
 8001e3c:	f44f 73aa 	mov.w	r3, #340	; 0x154
 8001e40:	e9cd 3900 	strd	r3, r9, [sp]
 8001e44:	2300      	movs	r3, #0
 8001e46:	4619      	mov	r1, r3
 8001e48:	220a      	movs	r2, #10
 8001e4a:	f8d8 0050 	ldr.w	r0, [r8, #80]	; 0x50
 8001e4e:	f003 f963 	bl	8005118 <Centred_DrawNumber_16_32bit>
 8001e52:	2112      	movs	r1, #18
 8001e54:	6833      	ldr	r3, [r6, #0]
 8001e56:	4a11      	ldr	r2, [pc, #68]	; (8001e9c <Set_Screen+0x3d8>)
 8001e58:	9207      	str	r2, [sp, #28]
 8001e5a:	e9cd 7108 	strd	r7, r1, [sp, #32]
 8001e5e:	682a      	ldr	r2, [r5, #0]
 8001e60:	e024      	b.n	8001eac <Set_Screen+0x3e8>
 8001e62:	bf00      	nop
 8001e64:	20000230 	.word	0x20000230
 8001e68:	2000024c 	.word	0x2000024c
 8001e6c:	200000fe 	.word	0x200000fe
 8001e70:	20000124 	.word	0x20000124
 8001e74:	200000f6 	.word	0x200000f6
 8001e78:	200000f8 	.word	0x200000f8
 8001e7c:	20000104 	.word	0x20000104
 8001e80:	20000100 	.word	0x20000100
 8001e84:	20000008 	.word	0x20000008
 8001e88:	0800892b 	.word	0x0800892b
 8001e8c:	08008938 	.word	0x08008938
 8001e90:	20000010 	.word	0x20000010
 8001e94:	08008ccf 	.word	0x08008ccf
 8001e98:	20000000 	.word	0x20000000
 8001e9c:	0800bf68 	.word	0x0800bf68
 8001ea0:	0800ccc4 	.word	0x0800ccc4
 8001ea4:	200000f4 	.word	0x200000f4
 8001ea8:	200000fd 	.word	0x200000fd
 8001eac:	e9cd 3205 	strd	r3, r2, [sp, #20]
 8001eb0:	6863      	ldr	r3, [r4, #4]
 8001eb2:	9304      	str	r3, [sp, #16]
 8001eb4:	f44f 71f0 	mov.w	r1, #480	; 0x1e0
 8001eb8:	f44f 7348 	mov.w	r3, #800	; 0x320
 8001ebc:	e9cd 3102 	strd	r3, r1, [sp, #8]
 8001ec0:	f44f 730c 	mov.w	r3, #560	; 0x230
 8001ec4:	9300      	str	r3, [sp, #0]
 8001ec6:	f8cd 9004 	str.w	r9, [sp, #4]
 8001eca:	2300      	movs	r3, #0
 8001ecc:	4619      	mov	r1, r3
 8001ece:	f8d8 0058 	ldr.w	r0, [r8, #88]	; 0x58
 8001ed2:	220a      	movs	r2, #10
 8001ed4:	f003 f920 	bl	8005118 <Centred_DrawNumber_16_32bit>
 8001ed8:	f898 305c 	ldrb.w	r3, [r8, #92]	; 0x5c
 8001edc:	2b00      	cmp	r3, #0
 8001ede:	d06d      	beq.n	8001fbc <Set_Screen+0x4f8>
 8001ee0:	4b38      	ldr	r3, [pc, #224]	; (8001fc4 <Set_Screen+0x500>)
 8001ee2:	6862      	ldr	r2, [r4, #4]
 8001ee4:	681b      	ldr	r3, [r3, #0]
 8001ee6:	9202      	str	r2, [sp, #8]
 8001ee8:	682a      	ldr	r2, [r5, #0]
 8001eea:	4837      	ldr	r0, [pc, #220]	; (8001fc8 <Set_Screen+0x504>)
 8001eec:	e9cd 3200 	strd	r3, r2, [sp]
 8001ef0:	4639      	mov	r1, r7
 8001ef2:	f44f 73c8 	mov.w	r3, #400	; 0x190
 8001ef6:	225a      	movs	r2, #90	; 0x5a
 8001ef8:	f002 ffb2 	bl	8004e60 <Short_Left_Colored_RU_DrawString_32>
 8001efc:	4b33      	ldr	r3, [pc, #204]	; (8001fcc <Set_Screen+0x508>)
 8001efe:	4a34      	ldr	r2, [pc, #208]	; (8001fd0 <Set_Screen+0x50c>)
 8001f00:	f898 105d 	ldrb.w	r1, [r8, #93]	; 0x5d
 8001f04:	681b      	ldr	r3, [r3, #0]
 8001f06:	6852      	ldr	r2, [r2, #4]
 8001f08:	2900      	cmp	r1, #0
 8001f0a:	d059      	beq.n	8001fc0 <Set_Screen+0x4fc>
 8001f0c:	492d      	ldr	r1, [pc, #180]	; (8001fc4 <Set_Screen+0x500>)
 8001f0e:	6809      	ldr	r1, [r1, #0]
 8001f10:	4830      	ldr	r0, [pc, #192]	; (8001fd4 <Set_Screen+0x510>)
 8001f12:	9100      	str	r1, [sp, #0]
 8001f14:	e9cd 3201 	strd	r3, r2, [sp, #4]
 8001f18:	210b      	movs	r1, #11
 8001f1a:	f44f 73c8 	mov.w	r3, #400	; 0x190
 8001f1e:	f44f 72aa 	mov.w	r2, #340	; 0x154
 8001f22:	f002 ff9d 	bl	8004e60 <Short_Left_Colored_RU_DrawString_32>
 8001f26:	4b2c      	ldr	r3, [pc, #176]	; (8001fd8 <Set_Screen+0x514>)
 8001f28:	2200      	movs	r2, #0
 8001f2a:	805a      	strh	r2, [r3, #2]
 8001f2c:	4a2b      	ldr	r2, [pc, #172]	; (8001fdc <Set_Screen+0x518>)
 8001f2e:	7813      	ldrb	r3, [r2, #0]
 8001f30:	b133      	cbz	r3, 8001f40 <Set_Screen+0x47c>
 8001f32:	4929      	ldr	r1, [pc, #164]	; (8001fd8 <Set_Screen+0x514>)
 8001f34:	2300      	movs	r3, #0
 8001f36:	600b      	str	r3, [r1, #0]
 8001f38:	4929      	ldr	r1, [pc, #164]	; (8001fe0 <Set_Screen+0x51c>)
 8001f3a:	7013      	strb	r3, [r2, #0]
 8001f3c:	600b      	str	r3, [r1, #0]
 8001f3e:	740b      	strb	r3, [r1, #16]
 8001f40:	4b23      	ldr	r3, [pc, #140]	; (8001fd0 <Set_Screen+0x50c>)
 8001f42:	990f      	ldr	r1, [sp, #60]	; 0x3c
 8001f44:	4827      	ldr	r0, [pc, #156]	; (8001fe4 <Set_Screen+0x520>)
 8001f46:	f853 1021 	ldr.w	r1, [r3, r1, lsl #2]
 8001f4a:	2200      	movs	r2, #0
 8001f4c:	b011      	add	sp, #68	; 0x44
 8001f4e:	e8bd 4ff0 	ldmia.w	sp!, {r4, r5, r6, r7, r8, r9, sl, fp, lr}
 8001f52:	f004 b916 	b.w	8006182 <HAL_LTDC_SetAddress>
 8001f56:	7f18      	ldrb	r0, [r3, #28]
 8001f58:	4f23      	ldr	r7, [pc, #140]	; (8001fe8 <Set_Screen+0x524>)
 8001f5a:	7008      	strb	r0, [r1, #0]
 8001f5c:	f893 002a 	ldrb.w	r0, [r3, #42]	; 0x2a
 8001f60:	7038      	strb	r0, [r7, #0]
 8001f62:	7f58      	ldrb	r0, [r3, #29]
 8001f64:	f888 0000 	strb.w	r0, [r8]
 8001f68:	8c98      	ldrh	r0, [r3, #36]	; 0x24
 8001f6a:	8030      	strh	r0, [r6, #0]
 8001f6c:	8cd8      	ldrh	r0, [r3, #38]	; 0x26
 8001f6e:	f8ab 0000 	strh.w	r0, [fp]
 8001f72:	8d18      	ldrh	r0, [r3, #40]	; 0x28
 8001f74:	8010      	strh	r0, [r2, #0]
 8001f76:	6a1b      	ldr	r3, [r3, #32]
 8001f78:	e60a      	b.n	8001b90 <Set_Screen+0xcc>
 8001f7a:	f893 0030 	ldrb.w	r0, [r3, #48]	; 0x30
 8001f7e:	4f1a      	ldr	r7, [pc, #104]	; (8001fe8 <Set_Screen+0x524>)
 8001f80:	7008      	strb	r0, [r1, #0]
 8001f82:	f893 003e 	ldrb.w	r0, [r3, #62]	; 0x3e
 8001f86:	7038      	strb	r0, [r7, #0]
 8001f88:	f893 0031 	ldrb.w	r0, [r3, #49]	; 0x31
 8001f8c:	f888 0000 	strb.w	r0, [r8]
 8001f90:	8f18      	ldrh	r0, [r3, #56]	; 0x38
 8001f92:	8030      	strh	r0, [r6, #0]
 8001f94:	8f58      	ldrh	r0, [r3, #58]	; 0x3a
 8001f96:	f8ab 0000 	strh.w	r0, [fp]
 8001f9a:	8f98      	ldrh	r0, [r3, #60]	; 0x3c
 8001f9c:	8010      	strh	r0, [r2, #0]
 8001f9e:	6b5b      	ldr	r3, [r3, #52]	; 0x34
 8001fa0:	e5f6      	b.n	8001b90 <Set_Screen+0xcc>
 8001fa2:	4912      	ldr	r1, [pc, #72]	; (8001fec <Set_Screen+0x528>)
 8001fa4:	6809      	ldr	r1, [r1, #0]
 8001fa6:	9100      	str	r1, [sp, #0]
 8001fa8:	e9cd 3001 	strd	r3, r0, [sp, #4]
 8001fac:	2109      	movs	r1, #9
 8001fae:	4810      	ldr	r0, [pc, #64]	; (8001ff0 <Set_Screen+0x52c>)
 8001fb0:	2314      	movs	r3, #20
 8001fb2:	e603      	b.n	8001bbc <Set_Screen+0xf8>
 8001fb4:	4b0d      	ldr	r3, [pc, #52]	; (8001fec <Set_Screen+0x528>)
 8001fb6:	e639      	b.n	8001c2c <Set_Screen+0x168>
 8001fb8:	4802      	ldr	r0, [pc, #8]	; (8001fc4 <Set_Screen+0x500>)
 8001fba:	e64d      	b.n	8001c58 <Set_Screen+0x194>
 8001fbc:	4b0b      	ldr	r3, [pc, #44]	; (8001fec <Set_Screen+0x528>)
 8001fbe:	e790      	b.n	8001ee2 <Set_Screen+0x41e>
 8001fc0:	490a      	ldr	r1, [pc, #40]	; (8001fec <Set_Screen+0x528>)
 8001fc2:	e7a4      	b.n	8001f0e <Set_Screen+0x44a>
 8001fc4:	20000008 	.word	0x20000008
 8001fc8:	08008ce8 	.word	0x08008ce8
 8001fcc:	20000230 	.word	0x20000230
 8001fd0:	2000024c 	.word	0x2000024c
 8001fd4:	08008cfc 	.word	0x08008cfc
 8001fd8:	20000234 	.word	0x20000234
 8001fdc:	20000b6c 	.word	0x20000b6c
 8001fe0:	200002c0 	.word	0x200002c0
 8001fe4:	20000964 	.word	0x20000964
 8001fe8:	20000104 	.word	0x20000104
 8001fec:	20000010 	.word	0x20000010
 8001ff0:	08008cc1 	.word	0x08008cc1
 8001ff4:	f8df b344 	ldr.w	fp, [pc, #836]	; 800233c <Set_Screen+0x878>
 8001ff8:	4ec3      	ldr	r6, [pc, #780]	; (8002308 <Set_Screen+0x844>)
 8001ffa:	f8db 3000 	ldr.w	r3, [fp]
 8001ffe:	4ac3      	ldr	r2, [pc, #780]	; (800230c <Set_Screen+0x848>)
 8002000:	9207      	str	r2, [sp, #28]
 8002002:	f04f 090b 	mov.w	r9, #11
 8002006:	f04f 0a12 	mov.w	sl, #18
 800200a:	e9cd 9a08 	strd	r9, sl, [sp, #32]
 800200e:	6832      	ldr	r2, [r6, #0]
 8002010:	4cbf      	ldr	r4, [pc, #764]	; (8002310 <Set_Screen+0x84c>)
 8002012:	4dc0      	ldr	r5, [pc, #768]	; (8002314 <Set_Screen+0x850>)
 8002014:	e9cd 3205 	strd	r3, r2, [sp, #20]
 8002018:	68a3      	ldr	r3, [r4, #8]
 800201a:	9304      	str	r3, [sp, #16]
 800201c:	f44f 77f0 	mov.w	r7, #480	; 0x1e0
 8002020:	f44f 7348 	mov.w	r3, #800	; 0x320
 8002024:	e9cd 3702 	strd	r3, r7, [sp, #8]
 8002028:	f240 28da 	movw	r8, #730	; 0x2da
 800202c:	235e      	movs	r3, #94	; 0x5e
 800202e:	e9cd 8300 	strd	r8, r3, [sp]
 8002032:	2300      	movs	r3, #0
 8002034:	4619      	mov	r1, r3
 8002036:	220a      	movs	r2, #10
 8002038:	6ee8      	ldr	r0, [r5, #108]	; 0x6c
 800203a:	f003 f86d 	bl	8005118 <Centred_DrawNumber_16_32bit>
 800203e:	f8db 3000 	ldr.w	r3, [fp]
 8002042:	4ab2      	ldr	r2, [pc, #712]	; (800230c <Set_Screen+0x848>)
 8002044:	9207      	str	r2, [sp, #28]
 8002046:	e9cd 9a08 	strd	r9, sl, [sp, #32]
 800204a:	6832      	ldr	r2, [r6, #0]
 800204c:	e9cd 3205 	strd	r3, r2, [sp, #20]
 8002050:	68a3      	ldr	r3, [r4, #8]
 8002052:	f8cd 8000 	str.w	r8, [sp]
 8002056:	e9cd 7303 	strd	r7, r3, [sp, #12]
 800205a:	f44f 7048 	mov.w	r0, #800	; 0x320
 800205e:	237c      	movs	r3, #124	; 0x7c
 8002060:	e9cd 3001 	strd	r3, r0, [sp, #4]
 8002064:	2300      	movs	r3, #0
 8002066:	4619      	mov	r1, r3
 8002068:	220a      	movs	r2, #10
 800206a:	6f68      	ldr	r0, [r5, #116]	; 0x74
 800206c:	f003 f854 	bl	8005118 <Centred_DrawNumber_16_32bit>
 8002070:	f8db 3000 	ldr.w	r3, [fp]
 8002074:	4aa5      	ldr	r2, [pc, #660]	; (800230c <Set_Screen+0x848>)
 8002076:	9207      	str	r2, [sp, #28]
 8002078:	e9cd 9a08 	strd	r9, sl, [sp, #32]
 800207c:	6832      	ldr	r2, [r6, #0]
 800207e:	e9cd 3205 	strd	r3, r2, [sp, #20]
 8002082:	68a3      	ldr	r3, [r4, #8]
 8002084:	f8cd 8000 	str.w	r8, [sp]
 8002088:	e9cd 7303 	strd	r7, r3, [sp, #12]
 800208c:	239a      	movs	r3, #154	; 0x9a
 800208e:	f44f 7748 	mov.w	r7, #800	; 0x320
 8002092:	e9cd 3701 	strd	r3, r7, [sp, #4]
 8002096:	2300      	movs	r3, #0
 8002098:	4619      	mov	r1, r3
 800209a:	6fe8      	ldr	r0, [r5, #124]	; 0x7c
 800209c:	220a      	movs	r2, #10
 800209e:	f003 f83b 	bl	8005118 <Centred_DrawNumber_16_32bit>
 80020a2:	f895 3068 	ldrb.w	r3, [r5, #104]	; 0x68
 80020a6:	2b00      	cmp	r3, #0
 80020a8:	f000 815b 	beq.w	8002362 <Set_Screen+0x89e>
 80020ac:	4b9a      	ldr	r3, [pc, #616]	; (8002318 <Set_Screen+0x854>)
 80020ae:	68a2      	ldr	r2, [r4, #8]
 80020b0:	681b      	ldr	r3, [r3, #0]
 80020b2:	9202      	str	r2, [sp, #8]
 80020b4:	6832      	ldr	r2, [r6, #0]
 80020b6:	4899      	ldr	r0, [pc, #612]	; (800231c <Set_Screen+0x858>)
 80020b8:	e9cd 3200 	strd	r3, r2, [sp]
 80020bc:	2115      	movs	r1, #21
 80020be:	235a      	movs	r3, #90	; 0x5a
 80020c0:	220a      	movs	r2, #10
 80020c2:	f002 fecd 	bl	8004e60 <Short_Left_Colored_RU_DrawString_32>
 80020c6:	f895 1069 	ldrb.w	r1, [r5, #105]	; 0x69
 80020ca:	6833      	ldr	r3, [r6, #0]
 80020cc:	68a2      	ldr	r2, [r4, #8]
 80020ce:	2900      	cmp	r1, #0
 80020d0:	f000 8149 	beq.w	8002366 <Set_Screen+0x8a2>
 80020d4:	4990      	ldr	r1, [pc, #576]	; (8002318 <Set_Screen+0x854>)
 80020d6:	6809      	ldr	r1, [r1, #0]
 80020d8:	9100      	str	r1, [sp, #0]
 80020da:	e9cd 3201 	strd	r3, r2, [sp, #4]
 80020de:	2108      	movs	r1, #8
 80020e0:	235a      	movs	r3, #90	; 0x5a
 80020e2:	f44f 72c8 	mov.w	r2, #400	; 0x190
 80020e6:	488e      	ldr	r0, [pc, #568]	; (8002320 <Set_Screen+0x85c>)
 80020e8:	f002 feba 	bl	8004e60 <Short_Left_Colored_RU_DrawString_32>
 80020ec:	f895 1070 	ldrb.w	r1, [r5, #112]	; 0x70
 80020f0:	6833      	ldr	r3, [r6, #0]
 80020f2:	68a2      	ldr	r2, [r4, #8]
 80020f4:	2900      	cmp	r1, #0
 80020f6:	f000 8138 	beq.w	800236a <Set_Screen+0x8a6>
 80020fa:	4987      	ldr	r1, [pc, #540]	; (8002318 <Set_Screen+0x854>)
 80020fc:	6809      	ldr	r1, [r1, #0]
 80020fe:	9100      	str	r1, [sp, #0]
 8002100:	e9cd 3201 	strd	r3, r2, [sp, #4]
 8002104:	2115      	movs	r1, #21
 8002106:	2378      	movs	r3, #120	; 0x78
 8002108:	220a      	movs	r2, #10
 800210a:	4886      	ldr	r0, [pc, #536]	; (8002324 <Set_Screen+0x860>)
 800210c:	f002 fea8 	bl	8004e60 <Short_Left_Colored_RU_DrawString_32>
 8002110:	f895 1071 	ldrb.w	r1, [r5, #113]	; 0x71
 8002114:	6833      	ldr	r3, [r6, #0]
 8002116:	68a2      	ldr	r2, [r4, #8]
 8002118:	2900      	cmp	r1, #0
 800211a:	f000 8128 	beq.w	800236e <Set_Screen+0x8aa>
 800211e:	497e      	ldr	r1, [pc, #504]	; (8002318 <Set_Screen+0x854>)
 8002120:	6809      	ldr	r1, [r1, #0]
 8002122:	9100      	str	r1, [sp, #0]
 8002124:	e9cd 3201 	strd	r3, r2, [sp, #4]
 8002128:	2108      	movs	r1, #8
 800212a:	2378      	movs	r3, #120	; 0x78
 800212c:	f44f 72c8 	mov.w	r2, #400	; 0x190
 8002130:	487b      	ldr	r0, [pc, #492]	; (8002320 <Set_Screen+0x85c>)
 8002132:	f002 fe95 	bl	8004e60 <Short_Left_Colored_RU_DrawString_32>
 8002136:	f895 1078 	ldrb.w	r1, [r5, #120]	; 0x78
 800213a:	6833      	ldr	r3, [r6, #0]
 800213c:	68a2      	ldr	r2, [r4, #8]
 800213e:	2900      	cmp	r1, #0
 8002140:	f000 8117 	beq.w	8002372 <Set_Screen+0x8ae>
 8002144:	4974      	ldr	r1, [pc, #464]	; (8002318 <Set_Screen+0x854>)
 8002146:	6809      	ldr	r1, [r1, #0]
 8002148:	9100      	str	r1, [sp, #0]
 800214a:	e9cd 3201 	strd	r3, r2, [sp, #4]
 800214e:	2115      	movs	r1, #21
 8002150:	2396      	movs	r3, #150	; 0x96
 8002152:	220a      	movs	r2, #10
 8002154:	4874      	ldr	r0, [pc, #464]	; (8002328 <Set_Screen+0x864>)
 8002156:	f002 fe83 	bl	8004e60 <Short_Left_Colored_RU_DrawString_32>
 800215a:	f895 1079 	ldrb.w	r1, [r5, #121]	; 0x79
 800215e:	6833      	ldr	r3, [r6, #0]
 8002160:	68a2      	ldr	r2, [r4, #8]
 8002162:	2900      	cmp	r1, #0
 8002164:	f000 8107 	beq.w	8002376 <Set_Screen+0x8b2>
 8002168:	496b      	ldr	r1, [pc, #428]	; (8002318 <Set_Screen+0x854>)
 800216a:	6809      	ldr	r1, [r1, #0]
 800216c:	486c      	ldr	r0, [pc, #432]	; (8002320 <Set_Screen+0x85c>)
 800216e:	9100      	str	r1, [sp, #0]
 8002170:	e9cd 3201 	strd	r3, r2, [sp, #4]
 8002174:	27b8      	movs	r7, #184	; 0xb8
 8002176:	2396      	movs	r3, #150	; 0x96
 8002178:	f44f 72c8 	mov.w	r2, #400	; 0x190
 800217c:	2108      	movs	r1, #8
 800217e:	f44f 7beb 	mov.w	fp, #470	; 0x1d6
 8002182:	f002 fe6d 	bl	8004e60 <Short_Left_Colored_RU_DrawString_32>
 8002186:	68a3      	ldr	r3, [r4, #8]
 8002188:	9302      	str	r3, [sp, #8]
 800218a:	e9cd b700 	strd	fp, r7, [sp]
 800218e:	f8df a1ac 	ldr.w	sl, [pc, #428]	; 800233c <Set_Screen+0x878>
 8002192:	f9b5 0088 	ldrsh.w	r0, [r5, #136]	; 0x88
 8002196:	4e5c      	ldr	r6, [pc, #368]	; (8002308 <Set_Screen+0x844>)
 8002198:	2300      	movs	r3, #0
 800219a:	2206      	movs	r2, #6
 800219c:	2101      	movs	r1, #1
 800219e:	f04f 080b 	mov.w	r8, #11
 80021a2:	f04f 0912 	mov.w	r9, #18
 80021a6:	f003 fa0d 	bl	80055c4 <Short_Centred_DrawNumber_16>
 80021aa:	f8da 3000 	ldr.w	r3, [sl]
 80021ae:	4a57      	ldr	r2, [pc, #348]	; (800230c <Set_Screen+0x848>)
 80021b0:	9207      	str	r2, [sp, #28]
 80021b2:	e9cd 8908 	strd	r8, r9, [sp, #32]
 80021b6:	6832      	ldr	r2, [r6, #0]
 80021b8:	e9cd 3205 	strd	r3, r2, [sp, #20]
 80021bc:	68a3      	ldr	r3, [r4, #8]
 80021be:	9304      	str	r3, [sp, #16]
 80021c0:	f44f 72f0 	mov.w	r2, #480	; 0x1e0
 80021c4:	f44f 7348 	mov.w	r3, #800	; 0x320
 80021c8:	e9cd 3202 	strd	r3, r2, [sp, #8]
 80021cc:	f240 238a 	movw	r3, #650	; 0x28a
 80021d0:	9701      	str	r7, [sp, #4]
 80021d2:	9300      	str	r3, [sp, #0]
 80021d4:	2300      	movs	r3, #0
 80021d6:	4619      	mov	r1, r3
 80021d8:	f44f 77b6 	mov.w	r7, #364	; 0x16c
 80021dc:	220a      	movs	r2, #10
 80021de:	f8d5 008c 	ldr.w	r0, [r5, #140]	; 0x8c
 80021e2:	f002 ff99 	bl	8005118 <Centred_DrawNumber_16_32bit>
 80021e6:	68a3      	ldr	r3, [r4, #8]
 80021e8:	9302      	str	r3, [sp, #8]
 80021ea:	e9cd b700 	strd	fp, r7, [sp]
 80021ee:	2300      	movs	r3, #0
 80021f0:	f9b5 0080 	ldrsh.w	r0, [r5, #128]	; 0x80
 80021f4:	2206      	movs	r2, #6
 80021f6:	2101      	movs	r1, #1
 80021f8:	f003 f9e4 	bl	80055c4 <Short_Centred_DrawNumber_16>
 80021fc:	f8da 3000 	ldr.w	r3, [sl]
 8002200:	4a42      	ldr	r2, [pc, #264]	; (800230c <Set_Screen+0x848>)
 8002202:	9207      	str	r2, [sp, #28]
 8002204:	e9cd 8908 	strd	r8, r9, [sp, #32]
 8002208:	6832      	ldr	r2, [r6, #0]
 800220a:	e9cd 3205 	strd	r3, r2, [sp, #20]
 800220e:	68a3      	ldr	r3, [r4, #8]
 8002210:	9304      	str	r3, [sp, #16]
 8002212:	f44f 71f0 	mov.w	r1, #480	; 0x1e0
 8002216:	f44f 7348 	mov.w	r3, #800	; 0x320
 800221a:	e9cd 3102 	strd	r3, r1, [sp, #8]
 800221e:	f240 238a 	movw	r3, #650	; 0x28a
 8002222:	9701      	str	r7, [sp, #4]
 8002224:	9300      	str	r3, [sp, #0]
 8002226:	2300      	movs	r3, #0
 8002228:	4619      	mov	r1, r3
 800222a:	220a      	movs	r2, #10
 800222c:	f8d5 0084 	ldr.w	r0, [r5, #132]	; 0x84
 8002230:	f002 ff72 	bl	8005118 <Centred_DrawNumber_16_32bit>
 8002234:	68a3      	ldr	r3, [r4, #8]
 8002236:	9302      	str	r3, [sp, #8]
 8002238:	f240 27a1 	movw	r7, #673	; 0x2a1
 800223c:	f44f 7398 	mov.w	r3, #304	; 0x130
 8002240:	e9cd 7300 	strd	r7, r3, [sp]
 8002244:	2206      	movs	r2, #6
 8002246:	f9b5 0090 	ldrsh.w	r0, [r5, #144]	; 0x90
 800224a:	2300      	movs	r3, #0
 800224c:	2101      	movs	r1, #1
 800224e:	f003 f9b9 	bl	80055c4 <Short_Centred_DrawNumber_16>
 8002252:	68a3      	ldr	r3, [r4, #8]
 8002254:	9302      	str	r3, [sp, #8]
 8002256:	f44f 73a7 	mov.w	r3, #334	; 0x14e
 800225a:	e9cd 7300 	strd	r7, r3, [sp]
 800225e:	2206      	movs	r2, #6
 8002260:	2300      	movs	r3, #0
 8002262:	f9b5 0092 	ldrsh.w	r0, [r5, #146]	; 0x92
 8002266:	2101      	movs	r1, #1
 8002268:	f003 f9ac 	bl	80055c4 <Short_Centred_DrawNumber_16>
 800226c:	f895 3094 	ldrb.w	r3, [r5, #148]	; 0x94
 8002270:	2b00      	cmp	r3, #0
 8002272:	f000 8082 	beq.w	800237a <Set_Screen+0x8b6>
 8002276:	4b28      	ldr	r3, [pc, #160]	; (8002318 <Set_Screen+0x854>)
 8002278:	68a2      	ldr	r2, [r4, #8]
 800227a:	681b      	ldr	r3, [r3, #0]
 800227c:	9202      	str	r2, [sp, #8]
 800227e:	6832      	ldr	r2, [r6, #0]
 8002280:	4c24      	ldr	r4, [pc, #144]	; (8002314 <Set_Screen+0x850>)
 8002282:	482a      	ldr	r0, [pc, #168]	; (800232c <Set_Screen+0x868>)
 8002284:	4d22      	ldr	r5, [pc, #136]	; (8002310 <Set_Screen+0x84c>)
 8002286:	e9cd 3200 	strd	r3, r2, [sp]
 800228a:	2108      	movs	r1, #8
 800228c:	f44f 73c8 	mov.w	r3, #400	; 0x190
 8002290:	2214      	movs	r2, #20
 8002292:	f002 fde5 	bl	8004e60 <Short_Left_Colored_RU_DrawString_32>
 8002296:	f894 1095 	ldrb.w	r1, [r4, #149]	; 0x95
 800229a:	6833      	ldr	r3, [r6, #0]
 800229c:	68aa      	ldr	r2, [r5, #8]
 800229e:	2900      	cmp	r1, #0
 80022a0:	d06d      	beq.n	800237e <Set_Screen+0x8ba>
 80022a2:	491d      	ldr	r1, [pc, #116]	; (8002318 <Set_Screen+0x854>)
 80022a4:	6809      	ldr	r1, [r1, #0]
 80022a6:	9100      	str	r1, [sp, #0]
 80022a8:	e9cd 3201 	strd	r3, r2, [sp, #4]
 80022ac:	2108      	movs	r1, #8
 80022ae:	f44f 73c8 	mov.w	r3, #400	; 0x190
 80022b2:	22aa      	movs	r2, #170	; 0xaa
 80022b4:	481e      	ldr	r0, [pc, #120]	; (8002330 <Set_Screen+0x86c>)
 80022b6:	f002 fdd3 	bl	8004e60 <Short_Left_Colored_RU_DrawString_32>
 80022ba:	f894 1096 	ldrb.w	r1, [r4, #150]	; 0x96
 80022be:	6833      	ldr	r3, [r6, #0]
 80022c0:	68aa      	ldr	r2, [r5, #8]
 80022c2:	2900      	cmp	r1, #0
 80022c4:	d05d      	beq.n	8002382 <Set_Screen+0x8be>
 80022c6:	4914      	ldr	r1, [pc, #80]	; (8002318 <Set_Screen+0x854>)
 80022c8:	6809      	ldr	r1, [r1, #0]
 80022ca:	9100      	str	r1, [sp, #0]
 80022cc:	e9cd 3201 	strd	r3, r2, [sp, #4]
 80022d0:	2108      	movs	r1, #8
 80022d2:	f44f 73c8 	mov.w	r3, #400	; 0x190
 80022d6:	f44f 72a0 	mov.w	r2, #320	; 0x140
 80022da:	4816      	ldr	r0, [pc, #88]	; (8002334 <Set_Screen+0x870>)
 80022dc:	f002 fdc0 	bl	8004e60 <Short_Left_Colored_RU_DrawString_32>
 80022e0:	f894 10a4 	ldrb.w	r1, [r4, #164]	; 0xa4
 80022e4:	6833      	ldr	r3, [r6, #0]
 80022e6:	68aa      	ldr	r2, [r5, #8]
 80022e8:	2900      	cmp	r1, #0
 80022ea:	d04c      	beq.n	8002386 <Set_Screen+0x8c2>
 80022ec:	490a      	ldr	r1, [pc, #40]	; (8002318 <Set_Screen+0x854>)
 80022ee:	6809      	ldr	r1, [r1, #0]
 80022f0:	9100      	str	r1, [sp, #0]
 80022f2:	e9cd 3201 	strd	r3, r2, [sp, #4]
 80022f6:	2108      	movs	r1, #8
 80022f8:	f44f 73c8 	mov.w	r3, #400	; 0x190
 80022fc:	f44f 72eb 	mov.w	r2, #470	; 0x1d6
 8002300:	480d      	ldr	r0, [pc, #52]	; (8002338 <Set_Screen+0x874>)
 8002302:	f002 fdad 	bl	8004e60 <Short_Left_Colored_RU_DrawString_32>
 8002306:	e01b      	b.n	8002340 <Set_Screen+0x87c>
 8002308:	20000230 	.word	0x20000230
 800230c:	0800bf68 	.word	0x0800bf68
 8002310:	2000024c 	.word	0x2000024c
 8002314:	20000124 	.word	0x20000124
 8002318:	20000008 	.word	0x20000008
 800231c:	08008d10 	.word	0x08008d10
 8002320:	08008d39 	.word	0x08008d39
 8002324:	08008d49 	.word	0x08008d49
 8002328:	08008d6f 	.word	0x08008d6f
 800232c:	08008d97 	.word	0x08008d97
 8002330:	08008da5 	.word	0x08008da5
 8002334:	08008db3 	.word	0x08008db3
 8002338:	08008dc1 	.word	0x08008dc1
 800233c:	20000000 	.word	0x20000000
 8002340:	f894 10a5 	ldrb.w	r1, [r4, #165]	; 0xa5
 8002344:	6833      	ldr	r3, [r6, #0]
 8002346:	68aa      	ldr	r2, [r5, #8]
 8002348:	b1f9      	cbz	r1, 800238a <Set_Screen+0x8c6>
 800234a:	4911      	ldr	r1, [pc, #68]	; (8002390 <Set_Screen+0x8cc>)
 800234c:	6809      	ldr	r1, [r1, #0]
 800234e:	9100      	str	r1, [sp, #0]
 8002350:	e9cd 3201 	strd	r3, r2, [sp, #4]
 8002354:	480f      	ldr	r0, [pc, #60]	; (8002394 <Set_Screen+0x8d0>)
 8002356:	f44f 73c8 	mov.w	r3, #400	; 0x190
 800235a:	f44f 721b 	mov.w	r2, #620	; 0x26c
 800235e:	2108      	movs	r1, #8
 8002360:	e5df      	b.n	8001f22 <Set_Screen+0x45e>
 8002362:	4b0d      	ldr	r3, [pc, #52]	; (8002398 <Set_Screen+0x8d4>)
 8002364:	e6a3      	b.n	80020ae <Set_Screen+0x5ea>
 8002366:	490c      	ldr	r1, [pc, #48]	; (8002398 <Set_Screen+0x8d4>)
 8002368:	e6b5      	b.n	80020d6 <Set_Screen+0x612>
 800236a:	490b      	ldr	r1, [pc, #44]	; (8002398 <Set_Screen+0x8d4>)
 800236c:	e6c6      	b.n	80020fc <Set_Screen+0x638>
 800236e:	490a      	ldr	r1, [pc, #40]	; (8002398 <Set_Screen+0x8d4>)
 8002370:	e6d6      	b.n	8002120 <Set_Screen+0x65c>
 8002372:	4909      	ldr	r1, [pc, #36]	; (8002398 <Set_Screen+0x8d4>)
 8002374:	e6e7      	b.n	8002146 <Set_Screen+0x682>
 8002376:	4908      	ldr	r1, [pc, #32]	; (8002398 <Set_Screen+0x8d4>)
 8002378:	e6f7      	b.n	800216a <Set_Screen+0x6a6>
 800237a:	4b07      	ldr	r3, [pc, #28]	; (8002398 <Set_Screen+0x8d4>)
 800237c:	e77c      	b.n	8002278 <Set_Screen+0x7b4>
 800237e:	4906      	ldr	r1, [pc, #24]	; (8002398 <Set_Screen+0x8d4>)
 8002380:	e790      	b.n	80022a4 <Set_Screen+0x7e0>
 8002382:	4905      	ldr	r1, [pc, #20]	; (8002398 <Set_Screen+0x8d4>)
 8002384:	e7a0      	b.n	80022c8 <Set_Screen+0x804>
 8002386:	4904      	ldr	r1, [pc, #16]	; (8002398 <Set_Screen+0x8d4>)
 8002388:	e7b1      	b.n	80022ee <Set_Screen+0x82a>
 800238a:	4903      	ldr	r1, [pc, #12]	; (8002398 <Set_Screen+0x8d4>)
 800238c:	e7de      	b.n	800234c <Set_Screen+0x888>
 800238e:	bf00      	nop
 8002390:	20000008 	.word	0x20000008
 8002394:	08008dd0 	.word	0x08008dd0
 8002398:	20000010 	.word	0x20000010
 800239c:	48d3      	ldr	r0, [pc, #844]	; (80026ec <Set_Screen+0xc28>)
 800239e:	4ed4      	ldr	r6, [pc, #848]	; (80026f0 <Set_Screen+0xc2c>)
 80023a0:	7c00      	ldrb	r0, [r0, #16]
 80023a2:	f8da 100c 	ldr.w	r1, [sl, #12]
 80023a6:	f8db 3000 	ldr.w	r3, [fp]
 80023aa:	6832      	ldr	r2, [r6, #0]
 80023ac:	2800      	cmp	r0, #0
 80023ae:	f040 83cc 	bne.w	8002b4a <Set_Screen+0x1086>
 80023b2:	80a8      	strh	r0, [r5, #4]
 80023b4:	48cf      	ldr	r0, [pc, #828]	; (80026f4 <Set_Screen+0xc30>)
 80023b6:	9300      	str	r3, [sp, #0]
 80023b8:	e9cd 2101 	strd	r2, r1, [sp, #4]
 80023bc:	2332      	movs	r3, #50	; 0x32
 80023be:	220a      	movs	r2, #10
 80023c0:	211f      	movs	r1, #31
 80023c2:	f002 fd4d 	bl	8004e60 <Short_Left_Colored_RU_DrawString_32>
 80023c6:	f8da 300c 	ldr.w	r3, [sl, #12]
 80023ca:	9302      	str	r3, [sp, #8]
 80023cc:	6833      	ldr	r3, [r6, #0]
 80023ce:	9301      	str	r3, [sp, #4]
 80023d0:	f8db 3004 	ldr.w	r3, [fp, #4]
 80023d4:	48c8      	ldr	r0, [pc, #800]	; (80026f8 <Set_Screen+0xc34>)
 80023d6:	9300      	str	r3, [sp, #0]
 80023d8:	220a      	movs	r2, #10
 80023da:	2350      	movs	r3, #80	; 0x50
 80023dc:	2114      	movs	r1, #20
 80023de:	f002 fd3f 	bl	8004e60 <Short_Left_Colored_RU_DrawString_32>
 80023e2:	f8da 300c 	ldr.w	r3, [sl, #12]
 80023e6:	9302      	str	r3, [sp, #8]
 80023e8:	6833      	ldr	r3, [r6, #0]
 80023ea:	9301      	str	r3, [sp, #4]
 80023ec:	f8db 3008 	ldr.w	r3, [fp, #8]
 80023f0:	48c2      	ldr	r0, [pc, #776]	; (80026fc <Set_Screen+0xc38>)
 80023f2:	9300      	str	r3, [sp, #0]
 80023f4:	220a      	movs	r2, #10
 80023f6:	236e      	movs	r3, #110	; 0x6e
 80023f8:	2114      	movs	r1, #20
 80023fa:	f002 fd31 	bl	8004e60 <Short_Left_Colored_RU_DrawString_32>
 80023fe:	f8da 300c 	ldr.w	r3, [sl, #12]
 8002402:	9302      	str	r3, [sp, #8]
 8002404:	6833      	ldr	r3, [r6, #0]
 8002406:	9301      	str	r3, [sp, #4]
 8002408:	f8db 300c 	ldr.w	r3, [fp, #12]
 800240c:	48bc      	ldr	r0, [pc, #752]	; (8002700 <Set_Screen+0xc3c>)
 800240e:	9300      	str	r3, [sp, #0]
 8002410:	220a      	movs	r2, #10
 8002412:	238c      	movs	r3, #140	; 0x8c
 8002414:	2114      	movs	r1, #20
 8002416:	f002 fd23 	bl	8004e60 <Short_Left_Colored_RU_DrawString_32>
 800241a:	f8da 300c 	ldr.w	r3, [sl, #12]
 800241e:	9302      	str	r3, [sp, #8]
 8002420:	6833      	ldr	r3, [r6, #0]
 8002422:	9301      	str	r3, [sp, #4]
 8002424:	f8db 3010 	ldr.w	r3, [fp, #16]
 8002428:	48b6      	ldr	r0, [pc, #728]	; (8002704 <Set_Screen+0xc40>)
 800242a:	9300      	str	r3, [sp, #0]
 800242c:	220a      	movs	r2, #10
 800242e:	23aa      	movs	r3, #170	; 0xaa
 8002430:	2114      	movs	r1, #20
 8002432:	f002 fd15 	bl	8004e60 <Short_Left_Colored_RU_DrawString_32>
 8002436:	f8da 300c 	ldr.w	r3, [sl, #12]
 800243a:	9302      	str	r3, [sp, #8]
 800243c:	6833      	ldr	r3, [r6, #0]
 800243e:	9301      	str	r3, [sp, #4]
 8002440:	f8db 3014 	ldr.w	r3, [fp, #20]
 8002444:	48b0      	ldr	r0, [pc, #704]	; (8002708 <Set_Screen+0xc44>)
 8002446:	9300      	str	r3, [sp, #0]
 8002448:	220a      	movs	r2, #10
 800244a:	23c8      	movs	r3, #200	; 0xc8
 800244c:	2114      	movs	r1, #20
 800244e:	f002 fd07 	bl	8004e60 <Short_Left_Colored_RU_DrawString_32>
 8002452:	f8da 300c 	ldr.w	r3, [sl, #12]
 8002456:	9302      	str	r3, [sp, #8]
 8002458:	6833      	ldr	r3, [r6, #0]
 800245a:	9301      	str	r3, [sp, #4]
 800245c:	f8db 3018 	ldr.w	r3, [fp, #24]
 8002460:	48aa      	ldr	r0, [pc, #680]	; (800270c <Set_Screen+0xc48>)
 8002462:	9300      	str	r3, [sp, #0]
 8002464:	220a      	movs	r2, #10
 8002466:	23e6      	movs	r3, #230	; 0xe6
 8002468:	2114      	movs	r1, #20
 800246a:	f002 fcf9 	bl	8004e60 <Short_Left_Colored_RU_DrawString_32>
 800246e:	270b      	movs	r7, #11
 8002470:	2312      	movs	r3, #18
 8002472:	e9cd 730a 	strd	r7, r3, [sp, #40]	; 0x28
 8002476:	4da6      	ldr	r5, [pc, #664]	; (8002710 <Set_Screen+0xc4c>)
 8002478:	9509      	str	r5, [sp, #36]	; 0x24
 800247a:	6833      	ldr	r3, [r6, #0]
 800247c:	9308      	str	r3, [sp, #32]
 800247e:	f8db 3000 	ldr.w	r3, [fp]
 8002482:	9307      	str	r3, [sp, #28]
 8002484:	f8da 300c 	ldr.w	r3, [sl, #12]
 8002488:	9306      	str	r3, [sp, #24]
 800248a:	f44f 71f0 	mov.w	r1, #480	; 0x1e0
 800248e:	f44f 7348 	mov.w	r3, #800	; 0x320
 8002492:	e9cd 3104 	strd	r3, r1, [sp, #16]
 8002496:	2032      	movs	r0, #50	; 0x32
 8002498:	f44f 731b 	mov.w	r3, #620	; 0x26c
 800249c:	2400      	movs	r4, #0
 800249e:	e9cd 3002 	strd	r3, r0, [sp, #8]
 80024a2:	f242 730f 	movw	r3, #9999	; 0x270f
 80024a6:	e9cd 3400 	strd	r3, r4, [sp]
 80024aa:	4a9a      	ldr	r2, [pc, #616]	; (8002714 <Set_Screen+0xc50>)
 80024ac:	f8df 9274 	ldr.w	r9, [pc, #628]	; 8002724 <Set_Screen+0xc60>
 80024b0:	f9b2 3002 	ldrsh.w	r3, [r2, #2]
 80024b4:	488d      	ldr	r0, [pc, #564]	; (80026ec <Set_Screen+0xc28>)
 80024b6:	f8df 8270 	ldr.w	r8, [pc, #624]	; 8002728 <Set_Screen+0xc64>
 80024ba:	2204      	movs	r2, #4
 80024bc:	4621      	mov	r1, r4
 80024be:	f002 ff47 	bl	8005350 <Centred_DrawNumber_16_32bit_controled>
 80024c2:	2112      	movs	r1, #18
 80024c4:	f8d9 3000 	ldr.w	r3, [r9]
 80024c8:	9507      	str	r5, [sp, #28]
 80024ca:	e9cd 7108 	strd	r7, r1, [sp, #32]
 80024ce:	6832      	ldr	r2, [r6, #0]
 80024d0:	e9cd 3205 	strd	r3, r2, [sp, #20]
 80024d4:	f8da 300c 	ldr.w	r3, [sl, #12]
 80024d8:	9304      	str	r3, [sp, #16]
 80024da:	f44f 7cf0 	mov.w	ip, #480	; 0x1e0
 80024de:	f44f 7348 	mov.w	r3, #800	; 0x320
 80024e2:	e9cd 3c02 	strd	r3, ip, [sp, #8]
 80024e6:	f04f 0e53 	mov.w	lr, #83	; 0x53
 80024ea:	f44f 73dc 	mov.w	r3, #440	; 0x1b8
 80024ee:	e9cd 3e00 	strd	r3, lr, [sp]
 80024f2:	220a      	movs	r2, #10
 80024f4:	4623      	mov	r3, r4
 80024f6:	4621      	mov	r1, r4
 80024f8:	f8d8 000c 	ldr.w	r0, [r8, #12]
 80024fc:	f002 fe0c 	bl	8005118 <Centred_DrawNumber_16_32bit>
 8002500:	2112      	movs	r1, #18
 8002502:	f8d9 3000 	ldr.w	r3, [r9]
 8002506:	9507      	str	r5, [sp, #28]
 8002508:	e9cd 7108 	strd	r7, r1, [sp, #32]
 800250c:	6832      	ldr	r2, [r6, #0]
 800250e:	e9cd 3205 	strd	r3, r2, [sp, #20]
 8002512:	f8da 300c 	ldr.w	r3, [sl, #12]
 8002516:	9304      	str	r3, [sp, #16]
 8002518:	f44f 72f0 	mov.w	r2, #480	; 0x1e0
 800251c:	f44f 7348 	mov.w	r3, #800	; 0x320
 8002520:	e9cd 3202 	strd	r3, r2, [sp, #8]
 8002524:	2171      	movs	r1, #113	; 0x71
 8002526:	f44f 73dc 	mov.w	r3, #440	; 0x1b8
 800252a:	e9cd 3100 	strd	r3, r1, [sp]
 800252e:	220a      	movs	r2, #10
 8002530:	4623      	mov	r3, r4
 8002532:	4621      	mov	r1, r4
 8002534:	f8d8 0020 	ldr.w	r0, [r8, #32]
 8002538:	f002 fdee 	bl	8005118 <Centred_DrawNumber_16_32bit>
 800253c:	2112      	movs	r1, #18
 800253e:	f8d9 3000 	ldr.w	r3, [r9]
 8002542:	9507      	str	r5, [sp, #28]
 8002544:	e9cd 7108 	strd	r7, r1, [sp, #32]
 8002548:	6832      	ldr	r2, [r6, #0]
 800254a:	e9cd 3205 	strd	r3, r2, [sp, #20]
 800254e:	f8da 300c 	ldr.w	r3, [sl, #12]
 8002552:	9304      	str	r3, [sp, #16]
 8002554:	f44f 70f0 	mov.w	r0, #480	; 0x1e0
 8002558:	f44f 7348 	mov.w	r3, #800	; 0x320
 800255c:	f04f 0c8f 	mov.w	ip, #143	; 0x8f
 8002560:	e9cd 3002 	strd	r3, r0, [sp, #8]
 8002564:	f44f 73dc 	mov.w	r3, #440	; 0x1b8
 8002568:	e9cd 3c00 	strd	r3, ip, [sp]
 800256c:	220a      	movs	r2, #10
 800256e:	4623      	mov	r3, r4
 8002570:	4621      	mov	r1, r4
 8002572:	f8d8 0034 	ldr.w	r0, [r8, #52]	; 0x34
 8002576:	f002 fdcf 	bl	8005118 <Centred_DrawNumber_16_32bit>
 800257a:	2112      	movs	r1, #18
 800257c:	f8d9 3000 	ldr.w	r3, [r9]
 8002580:	9507      	str	r5, [sp, #28]
 8002582:	e9cd 7108 	strd	r7, r1, [sp, #32]
 8002586:	6832      	ldr	r2, [r6, #0]
 8002588:	e9cd 3205 	strd	r3, r2, [sp, #20]
 800258c:	f8da 300c 	ldr.w	r3, [sl, #12]
 8002590:	9304      	str	r3, [sp, #16]
 8002592:	f44f 7ef0 	mov.w	lr, #480	; 0x1e0
 8002596:	f44f 7348 	mov.w	r3, #800	; 0x320
 800259a:	e9cd 3e02 	strd	r3, lr, [sp, #8]
 800259e:	22ad      	movs	r2, #173	; 0xad
 80025a0:	f44f 73dc 	mov.w	r3, #440	; 0x1b8
 80025a4:	e9cd 3200 	strd	r3, r2, [sp]
 80025a8:	4621      	mov	r1, r4
 80025aa:	4623      	mov	r3, r4
 80025ac:	220a      	movs	r2, #10
 80025ae:	f8d8 006c 	ldr.w	r0, [r8, #108]	; 0x6c
 80025b2:	f002 fdb1 	bl	8005118 <Centred_DrawNumber_16_32bit>
 80025b6:	2112      	movs	r1, #18
 80025b8:	f8d9 3000 	ldr.w	r3, [r9]
 80025bc:	9507      	str	r5, [sp, #28]
 80025be:	e9cd 7108 	strd	r7, r1, [sp, #32]
 80025c2:	6832      	ldr	r2, [r6, #0]
 80025c4:	e9cd 3205 	strd	r3, r2, [sp, #20]
 80025c8:	f8da 300c 	ldr.w	r3, [sl, #12]
 80025cc:	9304      	str	r3, [sp, #16]
 80025ce:	f44f 71f0 	mov.w	r1, #480	; 0x1e0
 80025d2:	f44f 7348 	mov.w	r3, #800	; 0x320
 80025d6:	e9cd 3102 	strd	r3, r1, [sp, #8]
 80025da:	20cb      	movs	r0, #203	; 0xcb
 80025dc:	f44f 73dc 	mov.w	r3, #440	; 0x1b8
 80025e0:	e9cd 3000 	strd	r3, r0, [sp]
 80025e4:	220a      	movs	r2, #10
 80025e6:	4623      	mov	r3, r4
 80025e8:	4621      	mov	r1, r4
 80025ea:	f8d8 0074 	ldr.w	r0, [r8, #116]	; 0x74
 80025ee:	f002 fd93 	bl	8005118 <Centred_DrawNumber_16_32bit>
 80025f2:	2112      	movs	r1, #18
 80025f4:	f8d9 3000 	ldr.w	r3, [r9]
 80025f8:	9507      	str	r5, [sp, #28]
 80025fa:	e9cd 7108 	strd	r7, r1, [sp, #32]
 80025fe:	6832      	ldr	r2, [r6, #0]
 8002600:	e9cd 3205 	strd	r3, r2, [sp, #20]
 8002604:	f8da 300c 	ldr.w	r3, [sl, #12]
 8002608:	9304      	str	r3, [sp, #16]
 800260a:	f44f 7cf0 	mov.w	ip, #480	; 0x1e0
 800260e:	f44f 7348 	mov.w	r3, #800	; 0x320
 8002612:	e9cd 3c02 	strd	r3, ip, [sp, #8]
 8002616:	f04f 0ee9 	mov.w	lr, #233	; 0xe9
 800261a:	f44f 73dc 	mov.w	r3, #440	; 0x1b8
 800261e:	e9cd 3e00 	strd	r3, lr, [sp]
 8002622:	220a      	movs	r2, #10
 8002624:	4623      	mov	r3, r4
 8002626:	4621      	mov	r1, r4
 8002628:	f8d8 007c 	ldr.w	r0, [r8, #124]	; 0x7c
 800262c:	f002 fd74 	bl	8005118 <Centred_DrawNumber_16_32bit>
 8002630:	f8da 300c 	ldr.w	r3, [sl, #12]
 8002634:	9302      	str	r3, [sp, #8]
 8002636:	6833      	ldr	r3, [r6, #0]
 8002638:	9301      	str	r3, [sp, #4]
 800263a:	f8db 301c 	ldr.w	r3, [fp, #28]
 800263e:	4836      	ldr	r0, [pc, #216]	; (8002718 <Set_Screen+0xc54>)
 8002640:	9300      	str	r3, [sp, #0]
 8002642:	220a      	movs	r2, #10
 8002644:	f44f 7382 	mov.w	r3, #260	; 0x104
 8002648:	2114      	movs	r1, #20
 800264a:	f002 fc09 	bl	8004e60 <Short_Left_Colored_RU_DrawString_32>
 800264e:	f8da 300c 	ldr.w	r3, [sl, #12]
 8002652:	9302      	str	r3, [sp, #8]
 8002654:	6833      	ldr	r3, [r6, #0]
 8002656:	9301      	str	r3, [sp, #4]
 8002658:	f8db 3020 	ldr.w	r3, [fp, #32]
 800265c:	482f      	ldr	r0, [pc, #188]	; (800271c <Set_Screen+0xc58>)
 800265e:	9300      	str	r3, [sp, #0]
 8002660:	220a      	movs	r2, #10
 8002662:	f44f 7391 	mov.w	r3, #290	; 0x122
 8002666:	2114      	movs	r1, #20
 8002668:	f002 fbfa 	bl	8004e60 <Short_Left_Colored_RU_DrawString_32>
 800266c:	f8da 300c 	ldr.w	r3, [sl, #12]
 8002670:	9302      	str	r3, [sp, #8]
 8002672:	6833      	ldr	r3, [r6, #0]
 8002674:	9301      	str	r3, [sp, #4]
 8002676:	f8db 3024 	ldr.w	r3, [fp, #36]	; 0x24
 800267a:	4829      	ldr	r0, [pc, #164]	; (8002720 <Set_Screen+0xc5c>)
 800267c:	9300      	str	r3, [sp, #0]
 800267e:	220a      	movs	r2, #10
 8002680:	f44f 73a0 	mov.w	r3, #320	; 0x140
 8002684:	2114      	movs	r1, #20
 8002686:	f002 fbeb 	bl	8004e60 <Short_Left_Colored_RU_DrawString_32>
 800268a:	2112      	movs	r1, #18
 800268c:	f8d9 3000 	ldr.w	r3, [r9]
 8002690:	9507      	str	r5, [sp, #28]
 8002692:	e9cd 7108 	strd	r7, r1, [sp, #32]
 8002696:	6832      	ldr	r2, [r6, #0]
 8002698:	e9cd 3205 	strd	r3, r2, [sp, #20]
 800269c:	f8da 300c 	ldr.w	r3, [sl, #12]
 80026a0:	9304      	str	r3, [sp, #16]
 80026a2:	f44f 72f0 	mov.w	r2, #480	; 0x1e0
 80026a6:	f44f 7348 	mov.w	r3, #800	; 0x320
 80026aa:	e9cd 3202 	strd	r3, r2, [sp, #8]
 80026ae:	f240 1107 	movw	r1, #263	; 0x107
 80026b2:	f44f 73dc 	mov.w	r3, #440	; 0x1b8
 80026b6:	e9cd 3100 	strd	r3, r1, [sp]
 80026ba:	220a      	movs	r2, #10
 80026bc:	4623      	mov	r3, r4
 80026be:	4621      	mov	r1, r4
 80026c0:	f8d8 0018 	ldr.w	r0, [r8, #24]
 80026c4:	f002 fd28 	bl	8005118 <Centred_DrawNumber_16_32bit>
 80026c8:	2112      	movs	r1, #18
 80026ca:	f8d9 3000 	ldr.w	r3, [r9]
 80026ce:	9507      	str	r5, [sp, #28]
 80026d0:	e9cd 7108 	strd	r7, r1, [sp, #32]
 80026d4:	6832      	ldr	r2, [r6, #0]
 80026d6:	e9cd 3205 	strd	r3, r2, [sp, #20]
 80026da:	f8da 300c 	ldr.w	r3, [sl, #12]
 80026de:	9304      	str	r3, [sp, #16]
 80026e0:	f44f 70f0 	mov.w	r0, #480	; 0x1e0
 80026e4:	f44f 7348 	mov.w	r3, #800	; 0x320
 80026e8:	e020      	b.n	800272c <Set_Screen+0xc68>
 80026ea:	bf00      	nop
 80026ec:	200002c0 	.word	0x200002c0
 80026f0:	20000230 	.word	0x20000230
 80026f4:	08008ddf 	.word	0x08008ddf
 80026f8:	08008e4a 	.word	0x08008e4a
 80026fc:	08008e6f 	.word	0x08008e6f
 8002700:	08008e94 	.word	0x08008e94
 8002704:	08008eb9 	.word	0x08008eb9
 8002708:	08008ee0 	.word	0x08008ee0
 800270c:	08008f07 	.word	0x08008f07
 8002710:	0800bf68 	.word	0x0800bf68
 8002714:	20000234 	.word	0x20000234
 8002718:	08008f2c 	.word	0x08008f2c
 800271c:	08008f50 	.word	0x08008f50
 8002720:	08008f74 	.word	0x08008f74
 8002724:	20000000 	.word	0x20000000
 8002728:	20000124 	.word	0x20000124
 800272c:	f240 1c25 	movw	ip, #293	; 0x125
 8002730:	e9cd 3002 	strd	r3, r0, [sp, #8]
 8002734:	f44f 73dc 	mov.w	r3, #440	; 0x1b8
 8002738:	e9cd 3c00 	strd	r3, ip, [sp]
 800273c:	220a      	movs	r2, #10
 800273e:	4623      	mov	r3, r4
 8002740:	4621      	mov	r1, r4
 8002742:	f8d8 002c 	ldr.w	r0, [r8, #44]	; 0x2c
 8002746:	f002 fce7 	bl	8005118 <Centred_DrawNumber_16_32bit>
 800274a:	2112      	movs	r1, #18
 800274c:	f8d9 3000 	ldr.w	r3, [r9]
 8002750:	9507      	str	r5, [sp, #28]
 8002752:	e9cd 7108 	strd	r7, r1, [sp, #32]
 8002756:	6832      	ldr	r2, [r6, #0]
 8002758:	e9cd 3205 	strd	r3, r2, [sp, #20]
 800275c:	f8da 300c 	ldr.w	r3, [sl, #12]
 8002760:	9304      	str	r3, [sp, #16]
 8002762:	f44f 7ef0 	mov.w	lr, #480	; 0x1e0
 8002766:	f44f 7348 	mov.w	r3, #800	; 0x320
 800276a:	e9cd 3e02 	strd	r3, lr, [sp, #8]
 800276e:	f240 1243 	movw	r2, #323	; 0x143
 8002772:	f44f 73dc 	mov.w	r3, #440	; 0x1b8
 8002776:	e9cd 3200 	strd	r3, r2, [sp]
 800277a:	4621      	mov	r1, r4
 800277c:	4623      	mov	r3, r4
 800277e:	220a      	movs	r2, #10
 8002780:	f8d8 0040 	ldr.w	r0, [r8, #64]	; 0x40
 8002784:	f002 fcc8 	bl	8005118 <Centred_DrawNumber_16_32bit>
 8002788:	f8da 300c 	ldr.w	r3, [sl, #12]
 800278c:	9302      	str	r3, [sp, #8]
 800278e:	6833      	ldr	r3, [r6, #0]
 8002790:	9301      	str	r3, [sp, #4]
 8002792:	f8db 3028 	ldr.w	r3, [fp, #40]	; 0x28
 8002796:	48d8      	ldr	r0, [pc, #864]	; (8002af8 <Set_Screen+0x1034>)
 8002798:	9300      	str	r3, [sp, #0]
 800279a:	220a      	movs	r2, #10
 800279c:	f44f 73af 	mov.w	r3, #350	; 0x15e
 80027a0:	2114      	movs	r1, #20
 80027a2:	f002 fb5d 	bl	8004e60 <Short_Left_Colored_RU_DrawString_32>
 80027a6:	f8da 300c 	ldr.w	r3, [sl, #12]
 80027aa:	9302      	str	r3, [sp, #8]
 80027ac:	6833      	ldr	r3, [r6, #0]
 80027ae:	9301      	str	r3, [sp, #4]
 80027b0:	f8db 302c 	ldr.w	r3, [fp, #44]	; 0x2c
 80027b4:	48d1      	ldr	r0, [pc, #836]	; (8002afc <Set_Screen+0x1038>)
 80027b6:	9300      	str	r3, [sp, #0]
 80027b8:	220a      	movs	r2, #10
 80027ba:	f44f 73be 	mov.w	r3, #380	; 0x17c
 80027be:	2114      	movs	r1, #20
 80027c0:	f002 fb4e 	bl	8004e60 <Short_Left_Colored_RU_DrawString_32>
 80027c4:	f8da 300c 	ldr.w	r3, [sl, #12]
 80027c8:	9302      	str	r3, [sp, #8]
 80027ca:	6833      	ldr	r3, [r6, #0]
 80027cc:	9301      	str	r3, [sp, #4]
 80027ce:	f8db 3030 	ldr.w	r3, [fp, #48]	; 0x30
 80027d2:	48cb      	ldr	r0, [pc, #812]	; (8002b00 <Set_Screen+0x103c>)
 80027d4:	9300      	str	r3, [sp, #0]
 80027d6:	220a      	movs	r2, #10
 80027d8:	f44f 73cd 	mov.w	r3, #410	; 0x19a
 80027dc:	2114      	movs	r1, #20
 80027de:	f002 fb3f 	bl	8004e60 <Short_Left_Colored_RU_DrawString_32>
 80027e2:	f8da 300c 	ldr.w	r3, [sl, #12]
 80027e6:	9302      	str	r3, [sp, #8]
 80027e8:	6833      	ldr	r3, [r6, #0]
 80027ea:	9301      	str	r3, [sp, #4]
 80027ec:	f8db 3034 	ldr.w	r3, [fp, #52]	; 0x34
 80027f0:	48c4      	ldr	r0, [pc, #784]	; (8002b04 <Set_Screen+0x1040>)
 80027f2:	9300      	str	r3, [sp, #0]
 80027f4:	220a      	movs	r2, #10
 80027f6:	f44f 73dc 	mov.w	r3, #440	; 0x1b8
 80027fa:	2114      	movs	r1, #20
 80027fc:	f002 fb30 	bl	8004e60 <Short_Left_Colored_RU_DrawString_32>
 8002800:	f8da 300c 	ldr.w	r3, [sl, #12]
 8002804:	9302      	str	r3, [sp, #8]
 8002806:	6833      	ldr	r3, [r6, #0]
 8002808:	9301      	str	r3, [sp, #4]
 800280a:	f8db 3038 	ldr.w	r3, [fp, #56]	; 0x38
 800280e:	48be      	ldr	r0, [pc, #760]	; (8002b08 <Set_Screen+0x1044>)
 8002810:	9300      	str	r3, [sp, #0]
 8002812:	220a      	movs	r2, #10
 8002814:	f44f 73eb 	mov.w	r3, #470	; 0x1d6
 8002818:	2114      	movs	r1, #20
 800281a:	f002 fb21 	bl	8004e60 <Short_Left_Colored_RU_DrawString_32>
 800281e:	2112      	movs	r1, #18
 8002820:	f8d9 3000 	ldr.w	r3, [r9]
 8002824:	9507      	str	r5, [sp, #28]
 8002826:	e9cd 7108 	strd	r7, r1, [sp, #32]
 800282a:	6832      	ldr	r2, [r6, #0]
 800282c:	e9cd 3205 	strd	r3, r2, [sp, #20]
 8002830:	f8da 300c 	ldr.w	r3, [sl, #12]
 8002834:	9304      	str	r3, [sp, #16]
 8002836:	f44f 71f0 	mov.w	r1, #480	; 0x1e0
 800283a:	f44f 7348 	mov.w	r3, #800	; 0x320
 800283e:	e9cd 3102 	strd	r3, r1, [sp, #8]
 8002842:	f240 1061 	movw	r0, #353	; 0x161
 8002846:	f44f 73dc 	mov.w	r3, #440	; 0x1b8
 800284a:	e9cd 3000 	strd	r3, r0, [sp]
 800284e:	220a      	movs	r2, #10
 8002850:	4623      	mov	r3, r4
 8002852:	4621      	mov	r1, r4
 8002854:	f8d8 0060 	ldr.w	r0, [r8, #96]	; 0x60
 8002858:	f002 fc5e 	bl	8005118 <Centred_DrawNumber_16_32bit>
 800285c:	2112      	movs	r1, #18
 800285e:	f8d9 3000 	ldr.w	r3, [r9]
 8002862:	9507      	str	r5, [sp, #28]
 8002864:	e9cd 7108 	strd	r7, r1, [sp, #32]
 8002868:	6832      	ldr	r2, [r6, #0]
 800286a:	e9cd 3205 	strd	r3, r2, [sp, #20]
 800286e:	f8da 300c 	ldr.w	r3, [sl, #12]
 8002872:	9304      	str	r3, [sp, #16]
 8002874:	f44f 7cf0 	mov.w	ip, #480	; 0x1e0
 8002878:	f44f 7348 	mov.w	r3, #800	; 0x320
 800287c:	e9cd 3c02 	strd	r3, ip, [sp, #8]
 8002880:	f240 1e7f 	movw	lr, #383	; 0x17f
 8002884:	f44f 73dc 	mov.w	r3, #440	; 0x1b8
 8002888:	e9cd 3e00 	strd	r3, lr, [sp]
 800288c:	220a      	movs	r2, #10
 800288e:	4623      	mov	r3, r4
 8002890:	4621      	mov	r1, r4
 8002892:	f8d8 0064 	ldr.w	r0, [r8, #100]	; 0x64
 8002896:	f002 fc3f 	bl	8005118 <Centred_DrawNumber_16_32bit>
 800289a:	2112      	movs	r1, #18
 800289c:	f8d9 3000 	ldr.w	r3, [r9]
 80028a0:	9507      	str	r5, [sp, #28]
 80028a2:	e9cd 7108 	strd	r7, r1, [sp, #32]
 80028a6:	6832      	ldr	r2, [r6, #0]
 80028a8:	e9cd 3205 	strd	r3, r2, [sp, #20]
 80028ac:	f8da 300c 	ldr.w	r3, [sl, #12]
 80028b0:	9304      	str	r3, [sp, #16]
 80028b2:	f44f 72f0 	mov.w	r2, #480	; 0x1e0
 80028b6:	f44f 7348 	mov.w	r3, #800	; 0x320
 80028ba:	e9cd 3202 	strd	r3, r2, [sp, #8]
 80028be:	f240 119d 	movw	r1, #413	; 0x19d
 80028c2:	f44f 73dc 	mov.w	r3, #440	; 0x1b8
 80028c6:	e9cd 3100 	strd	r3, r1, [sp]
 80028ca:	220a      	movs	r2, #10
 80028cc:	4623      	mov	r3, r4
 80028ce:	4621      	mov	r1, r4
 80028d0:	f8d8 0098 	ldr.w	r0, [r8, #152]	; 0x98
 80028d4:	f002 fc20 	bl	8005118 <Centred_DrawNumber_16_32bit>
 80028d8:	2112      	movs	r1, #18
 80028da:	f8d9 3000 	ldr.w	r3, [r9]
 80028de:	9507      	str	r5, [sp, #28]
 80028e0:	e9cd 7108 	strd	r7, r1, [sp, #32]
 80028e4:	6832      	ldr	r2, [r6, #0]
 80028e6:	e9cd 3205 	strd	r3, r2, [sp, #20]
 80028ea:	f8da 300c 	ldr.w	r3, [sl, #12]
 80028ee:	9304      	str	r3, [sp, #16]
 80028f0:	f44f 70f0 	mov.w	r0, #480	; 0x1e0
 80028f4:	f44f 7348 	mov.w	r3, #800	; 0x320
 80028f8:	f240 1cbb 	movw	ip, #443	; 0x1bb
 80028fc:	e9cd 3002 	strd	r3, r0, [sp, #8]
 8002900:	f44f 73dc 	mov.w	r3, #440	; 0x1b8
 8002904:	e9cd 3c00 	strd	r3, ip, [sp]
 8002908:	220a      	movs	r2, #10
 800290a:	4623      	mov	r3, r4
 800290c:	4621      	mov	r1, r4
 800290e:	f8d8 009c 	ldr.w	r0, [r8, #156]	; 0x9c
 8002912:	f002 fc01 	bl	8005118 <Centred_DrawNumber_16_32bit>
 8002916:	2112      	movs	r1, #18
 8002918:	f8d9 3000 	ldr.w	r3, [r9]
 800291c:	9507      	str	r5, [sp, #28]
 800291e:	e9cd 7108 	strd	r7, r1, [sp, #32]
 8002922:	6832      	ldr	r2, [r6, #0]
 8002924:	e9cd 3205 	strd	r3, r2, [sp, #20]
 8002928:	f8da 300c 	ldr.w	r3, [sl, #12]
 800292c:	9304      	str	r3, [sp, #16]
 800292e:	f44f 7ef0 	mov.w	lr, #480	; 0x1e0
 8002932:	f44f 7348 	mov.w	r3, #800	; 0x320
 8002936:	e9cd 3e02 	strd	r3, lr, [sp, #8]
 800293a:	f240 12d9 	movw	r2, #473	; 0x1d9
 800293e:	f44f 73dc 	mov.w	r3, #440	; 0x1b8
 8002942:	e9cd 3200 	strd	r3, r2, [sp]
 8002946:	4621      	mov	r1, r4
 8002948:	4623      	mov	r3, r4
 800294a:	220a      	movs	r2, #10
 800294c:	f8d8 00a0 	ldr.w	r0, [r8, #160]	; 0xa0
 8002950:	f002 fbe2 	bl	8005118 <Centred_DrawNumber_16_32bit>
 8002954:	f8da 300c 	ldr.w	r3, [sl, #12]
 8002958:	9302      	str	r3, [sp, #8]
 800295a:	6833      	ldr	r3, [r6, #0]
 800295c:	9301      	str	r3, [sp, #4]
 800295e:	f8db 303c 	ldr.w	r3, [fp, #60]	; 0x3c
 8002962:	486a      	ldr	r0, [pc, #424]	; (8002b0c <Set_Screen+0x1048>)
 8002964:	9300      	str	r3, [sp, #0]
 8002966:	f240 12f9 	movw	r2, #505	; 0x1f9
 800296a:	2350      	movs	r3, #80	; 0x50
 800296c:	2110      	movs	r1, #16
 800296e:	f002 fa77 	bl	8004e60 <Short_Left_Colored_RU_DrawString_32>
 8002972:	f8da 300c 	ldr.w	r3, [sl, #12]
 8002976:	9302      	str	r3, [sp, #8]
 8002978:	6833      	ldr	r3, [r6, #0]
 800297a:	9301      	str	r3, [sp, #4]
 800297c:	f8db 3040 	ldr.w	r3, [fp, #64]	; 0x40
 8002980:	4863      	ldr	r0, [pc, #396]	; (8002b10 <Set_Screen+0x104c>)
 8002982:	9300      	str	r3, [sp, #0]
 8002984:	f240 12f9 	movw	r2, #505	; 0x1f9
 8002988:	238c      	movs	r3, #140	; 0x8c
 800298a:	2110      	movs	r1, #16
 800298c:	f002 fa68 	bl	8004e60 <Short_Left_Colored_RU_DrawString_32>
 8002990:	f8da 300c 	ldr.w	r3, [sl, #12]
 8002994:	9302      	str	r3, [sp, #8]
 8002996:	6833      	ldr	r3, [r6, #0]
 8002998:	9301      	str	r3, [sp, #4]
 800299a:	f8db 3044 	ldr.w	r3, [fp, #68]	; 0x44
 800299e:	485d      	ldr	r0, [pc, #372]	; (8002b14 <Set_Screen+0x1050>)
 80029a0:	9300      	str	r3, [sp, #0]
 80029a2:	f240 12f9 	movw	r2, #505	; 0x1f9
 80029a6:	23c8      	movs	r3, #200	; 0xc8
 80029a8:	2110      	movs	r1, #16
 80029aa:	f002 fa59 	bl	8004e60 <Short_Left_Colored_RU_DrawString_32>
 80029ae:	f8da 300c 	ldr.w	r3, [sl, #12]
 80029b2:	9302      	str	r3, [sp, #8]
 80029b4:	6833      	ldr	r3, [r6, #0]
 80029b6:	9301      	str	r3, [sp, #4]
 80029b8:	f8db 3048 	ldr.w	r3, [fp, #72]	; 0x48
 80029bc:	4856      	ldr	r0, [pc, #344]	; (8002b18 <Set_Screen+0x1054>)
 80029be:	9300      	str	r3, [sp, #0]
 80029c0:	f240 12f9 	movw	r2, #505	; 0x1f9
 80029c4:	f44f 7382 	mov.w	r3, #260	; 0x104
 80029c8:	2110      	movs	r1, #16
 80029ca:	f002 fa49 	bl	8004e60 <Short_Left_Colored_RU_DrawString_32>
 80029ce:	f8da 300c 	ldr.w	r3, [sl, #12]
 80029d2:	9302      	str	r3, [sp, #8]
 80029d4:	6833      	ldr	r3, [r6, #0]
 80029d6:	9301      	str	r3, [sp, #4]
 80029d8:	f8db 304c 	ldr.w	r3, [fp, #76]	; 0x4c
 80029dc:	484f      	ldr	r0, [pc, #316]	; (8002b1c <Set_Screen+0x1058>)
 80029de:	9300      	str	r3, [sp, #0]
 80029e0:	f240 12f9 	movw	r2, #505	; 0x1f9
 80029e4:	f44f 73a0 	mov.w	r3, #320	; 0x140
 80029e8:	2110      	movs	r1, #16
 80029ea:	f002 fa39 	bl	8004e60 <Short_Left_Colored_RU_DrawString_32>
 80029ee:	2112      	movs	r1, #18
 80029f0:	f8d9 3000 	ldr.w	r3, [r9]
 80029f4:	9507      	str	r5, [sp, #28]
 80029f6:	e9cd 7108 	strd	r7, r1, [sp, #32]
 80029fa:	6832      	ldr	r2, [r6, #0]
 80029fc:	e9cd 3205 	strd	r3, r2, [sp, #20]
 8002a00:	f8da 300c 	ldr.w	r3, [sl, #12]
 8002a04:	9304      	str	r3, [sp, #16]
 8002a06:	f44f 71f0 	mov.w	r1, #480	; 0x1e0
 8002a0a:	f44f 7348 	mov.w	r3, #800	; 0x320
 8002a0e:	f240 2b8a 	movw	fp, #650	; 0x28a
 8002a12:	e9cd 3102 	strd	r3, r1, [sp, #8]
 8002a16:	2371      	movs	r3, #113	; 0x71
 8002a18:	e9cd b300 	strd	fp, r3, [sp]
 8002a1c:	220a      	movs	r2, #10
 8002a1e:	4623      	mov	r3, r4
 8002a20:	4621      	mov	r1, r4
 8002a22:	f8d8 0050 	ldr.w	r0, [r8, #80]	; 0x50
 8002a26:	f002 fb77 	bl	8005118 <Centred_DrawNumber_16_32bit>
 8002a2a:	2112      	movs	r1, #18
 8002a2c:	f8d9 3000 	ldr.w	r3, [r9]
 8002a30:	9507      	str	r5, [sp, #28]
 8002a32:	e9cd 7108 	strd	r7, r1, [sp, #32]
 8002a36:	6832      	ldr	r2, [r6, #0]
 8002a38:	e9cd 3205 	strd	r3, r2, [sp, #20]
 8002a3c:	f8da 300c 	ldr.w	r3, [sl, #12]
 8002a40:	9304      	str	r3, [sp, #16]
 8002a42:	f44f 70f0 	mov.w	r0, #480	; 0x1e0
 8002a46:	f44f 7348 	mov.w	r3, #800	; 0x320
 8002a4a:	e9cd 3002 	strd	r3, r0, [sp, #8]
 8002a4e:	23ad      	movs	r3, #173	; 0xad
 8002a50:	e9cd b300 	strd	fp, r3, [sp]
 8002a54:	220a      	movs	r2, #10
 8002a56:	4623      	mov	r3, r4
 8002a58:	4621      	mov	r1, r4
 8002a5a:	f8d8 0058 	ldr.w	r0, [r8, #88]	; 0x58
 8002a5e:	f002 fb5b 	bl	8005118 <Centred_DrawNumber_16_32bit>
 8002a62:	2112      	movs	r1, #18
 8002a64:	f8d9 3000 	ldr.w	r3, [r9]
 8002a68:	9507      	str	r5, [sp, #28]
 8002a6a:	e9cd 7108 	strd	r7, r1, [sp, #32]
 8002a6e:	6832      	ldr	r2, [r6, #0]
 8002a70:	e9cd 3205 	strd	r3, r2, [sp, #20]
 8002a74:	f8da 300c 	ldr.w	r3, [sl, #12]
 8002a78:	9304      	str	r3, [sp, #16]
 8002a7a:	f44f 7cf0 	mov.w	ip, #480	; 0x1e0
 8002a7e:	f44f 7348 	mov.w	r3, #800	; 0x320
 8002a82:	e9cd 3c02 	strd	r3, ip, [sp, #8]
 8002a86:	23e9      	movs	r3, #233	; 0xe9
 8002a88:	e9cd b300 	strd	fp, r3, [sp]
 8002a8c:	220a      	movs	r2, #10
 8002a8e:	4623      	mov	r3, r4
 8002a90:	4621      	mov	r1, r4
 8002a92:	f8d8 008c 	ldr.w	r0, [r8, #140]	; 0x8c
 8002a96:	f002 fb3f 	bl	8005118 <Centred_DrawNumber_16_32bit>
 8002a9a:	2112      	movs	r1, #18
 8002a9c:	f8d9 3000 	ldr.w	r3, [r9]
 8002aa0:	9507      	str	r5, [sp, #28]
 8002aa2:	e9cd 7108 	strd	r7, r1, [sp, #32]
 8002aa6:	6832      	ldr	r2, [r6, #0]
 8002aa8:	e9cd 3205 	strd	r3, r2, [sp, #20]
 8002aac:	f8da 300c 	ldr.w	r3, [sl, #12]
 8002ab0:	9304      	str	r3, [sp, #16]
 8002ab2:	f44f 7ef0 	mov.w	lr, #480	; 0x1e0
 8002ab6:	f44f 7348 	mov.w	r3, #800	; 0x320
 8002aba:	e9cd 3e02 	strd	r3, lr, [sp, #8]
 8002abe:	f240 1325 	movw	r3, #293	; 0x125
 8002ac2:	e9cd b300 	strd	fp, r3, [sp]
 8002ac6:	220a      	movs	r2, #10
 8002ac8:	4623      	mov	r3, r4
 8002aca:	4621      	mov	r1, r4
 8002acc:	f8d8 0084 	ldr.w	r0, [r8, #132]	; 0x84
 8002ad0:	f002 fb22 	bl	8005118 <Centred_DrawNumber_16_32bit>
 8002ad4:	2112      	movs	r1, #18
 8002ad6:	f8d9 3000 	ldr.w	r3, [r9]
 8002ada:	9507      	str	r5, [sp, #28]
 8002adc:	e9cd 7108 	strd	r7, r1, [sp, #32]
 8002ae0:	6832      	ldr	r2, [r6, #0]
 8002ae2:	e9cd 3205 	strd	r3, r2, [sp, #20]
 8002ae6:	f8da 300c 	ldr.w	r3, [sl, #12]
 8002aea:	9304      	str	r3, [sp, #16]
 8002aec:	f44f 79f0 	mov.w	r9, #480	; 0x1e0
 8002af0:	f44f 7348 	mov.w	r3, #800	; 0x320
 8002af4:	e014      	b.n	8002b20 <Set_Screen+0x105c>
 8002af6:	bf00      	nop
 8002af8:	08008f98 	.word	0x08008f98
 8002afc:	08008fbc 	.word	0x08008fbc
 8002b00:	08008fe0 	.word	0x08008fe0
 8002b04:	08009002 	.word	0x08009002
 8002b08:	08009024 	.word	0x08009024
 8002b0c:	08009046 	.word	0x08009046
 8002b10:	08009063 	.word	0x08009063
 8002b14:	08009081 	.word	0x08009081
 8002b18:	080090a0 	.word	0x080090a0
 8002b1c:	080090bc 	.word	0x080090bc
 8002b20:	e9cd 3902 	strd	r3, r9, [sp, #8]
 8002b24:	f240 1361 	movw	r3, #353	; 0x161
 8002b28:	e9cd b300 	strd	fp, r3, [sp]
 8002b2c:	220a      	movs	r2, #10
 8002b2e:	4623      	mov	r3, r4
 8002b30:	f8d8 00a8 	ldr.w	r0, [r8, #168]	; 0xa8
 8002b34:	4621      	mov	r1, r4
 8002b36:	f002 faef 	bl	8005118 <Centred_DrawNumber_16_32bit>
 8002b3a:	4a6b      	ldr	r2, [pc, #428]	; (8002ce8 <Set_Screen+0x1224>)
 8002b3c:	f9b2 3000 	ldrsh.w	r3, [r2]
 8002b40:	b96b      	cbnz	r3, 8002b5e <Set_Screen+0x109a>
 8002b42:	2304      	movs	r3, #4
 8002b44:	80d3      	strh	r3, [r2, #6]
 8002b46:	f7ff b9f1 	b.w	8001f2c <Set_Screen+0x468>
 8002b4a:	2013      	movs	r0, #19
 8002b4c:	80a8      	strh	r0, [r5, #4]
 8002b4e:	e9cd 2101 	strd	r2, r1, [sp, #4]
 8002b52:	9300      	str	r3, [sp, #0]
 8002b54:	4865      	ldr	r0, [pc, #404]	; (8002cec <Set_Screen+0x1228>)
 8002b56:	2332      	movs	r3, #50	; 0x32
 8002b58:	220a      	movs	r2, #10
 8002b5a:	211f      	movs	r1, #31
 8002b5c:	e431      	b.n	80023c2 <Set_Screen+0x8fe>
 8002b5e:	4b62      	ldr	r3, [pc, #392]	; (8002ce8 <Set_Screen+0x1224>)
 8002b60:	805c      	strh	r4, [r3, #2]
 8002b62:	80dc      	strh	r4, [r3, #6]
 8002b64:	f7ff b9e2 	b.w	8001f2c <Set_Screen+0x468>
 8002b68:	4e61      	ldr	r6, [pc, #388]	; (8002cf0 <Set_Screen+0x122c>)
 8002b6a:	4c62      	ldr	r4, [pc, #392]	; (8002cf4 <Set_Screen+0x1230>)
 8002b6c:	f8da 1010 	ldr.w	r1, [sl, #16]
 8002b70:	6832      	ldr	r2, [r6, #0]
 8002b72:	7820      	ldrb	r0, [r4, #0]
 8002b74:	f8db 3000 	ldr.w	r3, [fp]
 8002b78:	9300      	str	r3, [sp, #0]
 8002b7a:	e9cd 2101 	strd	r2, r1, [sp, #4]
 8002b7e:	2346      	movs	r3, #70	; 0x46
 8002b80:	2264      	movs	r2, #100	; 0x64
 8002b82:	211b      	movs	r1, #27
 8002b84:	2800      	cmp	r0, #0
 8002b86:	d149      	bne.n	8002c1c <Set_Screen+0x1158>
 8002b88:	485b      	ldr	r0, [pc, #364]	; (8002cf8 <Set_Screen+0x1234>)
 8002b8a:	f002 f969 	bl	8004e60 <Short_Left_Colored_RU_DrawString_32>
 8002b8e:	6832      	ldr	r2, [r6, #0]
 8002b90:	f8da 1010 	ldr.w	r1, [sl, #16]
 8002b94:	79a0      	ldrb	r0, [r4, #6]
 8002b96:	f8db 3004 	ldr.w	r3, [fp, #4]
 8002b9a:	9300      	str	r3, [sp, #0]
 8002b9c:	e9cd 2101 	strd	r2, r1, [sp, #4]
 8002ba0:	236e      	movs	r3, #110	; 0x6e
 8002ba2:	2264      	movs	r2, #100	; 0x64
 8002ba4:	211b      	movs	r1, #27
 8002ba6:	2800      	cmp	r0, #0
 8002ba8:	d13a      	bne.n	8002c20 <Set_Screen+0x115c>
 8002baa:	4854      	ldr	r0, [pc, #336]	; (8002cfc <Set_Screen+0x1238>)
 8002bac:	f002 f958 	bl	8004e60 <Short_Left_Colored_RU_DrawString_32>
 8002bb0:	6832      	ldr	r2, [r6, #0]
 8002bb2:	f8da 1010 	ldr.w	r1, [sl, #16]
 8002bb6:	7b20      	ldrb	r0, [r4, #12]
 8002bb8:	f8db 3008 	ldr.w	r3, [fp, #8]
 8002bbc:	9300      	str	r3, [sp, #0]
 8002bbe:	e9cd 2101 	strd	r2, r1, [sp, #4]
 8002bc2:	2396      	movs	r3, #150	; 0x96
 8002bc4:	2264      	movs	r2, #100	; 0x64
 8002bc6:	211b      	movs	r1, #27
 8002bc8:	bb60      	cbnz	r0, 8002c24 <Set_Screen+0x1160>
 8002bca:	484d      	ldr	r0, [pc, #308]	; (8002d00 <Set_Screen+0x123c>)
 8002bcc:	f002 f948 	bl	8004e60 <Short_Left_Colored_RU_DrawString_32>
 8002bd0:	6832      	ldr	r2, [r6, #0]
 8002bd2:	f8da 1010 	ldr.w	r1, [sl, #16]
 8002bd6:	7ca0      	ldrb	r0, [r4, #18]
 8002bd8:	f8db 300c 	ldr.w	r3, [fp, #12]
 8002bdc:	9300      	str	r3, [sp, #0]
 8002bde:	e9cd 2101 	strd	r2, r1, [sp, #4]
 8002be2:	23be      	movs	r3, #190	; 0xbe
 8002be4:	2264      	movs	r2, #100	; 0x64
 8002be6:	211b      	movs	r1, #27
 8002be8:	b9f0      	cbnz	r0, 8002c28 <Set_Screen+0x1164>
 8002bea:	4846      	ldr	r0, [pc, #280]	; (8002d04 <Set_Screen+0x1240>)
 8002bec:	f002 f938 	bl	8004e60 <Short_Left_Colored_RU_DrawString_32>
 8002bf0:	6832      	ldr	r2, [r6, #0]
 8002bf2:	f8da 1010 	ldr.w	r1, [sl, #16]
 8002bf6:	7e20      	ldrb	r0, [r4, #24]
 8002bf8:	f8db 3010 	ldr.w	r3, [fp, #16]
 8002bfc:	9300      	str	r3, [sp, #0]
 8002bfe:	e9cd 2101 	strd	r2, r1, [sp, #4]
 8002c02:	23e6      	movs	r3, #230	; 0xe6
 8002c04:	2264      	movs	r2, #100	; 0x64
 8002c06:	211b      	movs	r1, #27
 8002c08:	b980      	cbnz	r0, 8002c2c <Set_Screen+0x1168>
 8002c0a:	483f      	ldr	r0, [pc, #252]	; (8002d08 <Set_Screen+0x1244>)
 8002c0c:	f002 f928 	bl	8004e60 <Short_Left_Colored_RU_DrawString_32>
 8002c10:	2304      	movs	r3, #4
 8002c12:	80ab      	strh	r3, [r5, #4]
 8002c14:	2300      	movs	r3, #0
 8002c16:	806b      	strh	r3, [r5, #2]
 8002c18:	f7ff b988 	b.w	8001f2c <Set_Screen+0x468>
 8002c1c:	483b      	ldr	r0, [pc, #236]	; (8002d0c <Set_Screen+0x1248>)
 8002c1e:	e7b4      	b.n	8002b8a <Set_Screen+0x10c6>
 8002c20:	483b      	ldr	r0, [pc, #236]	; (8002d10 <Set_Screen+0x124c>)
 8002c22:	e7c3      	b.n	8002bac <Set_Screen+0x10e8>
 8002c24:	4839      	ldr	r0, [pc, #228]	; (8002d0c <Set_Screen+0x1248>)
 8002c26:	e7d1      	b.n	8002bcc <Set_Screen+0x1108>
 8002c28:	4839      	ldr	r0, [pc, #228]	; (8002d10 <Set_Screen+0x124c>)
 8002c2a:	e7df      	b.n	8002bec <Set_Screen+0x1128>
 8002c2c:	4839      	ldr	r0, [pc, #228]	; (8002d14 <Set_Screen+0x1250>)
 8002c2e:	e7ed      	b.n	8002c0c <Set_Screen+0x1148>
 8002c30:	4f39      	ldr	r7, [pc, #228]	; (8002d18 <Set_Screen+0x1254>)
 8002c32:	f8da 2014 	ldr.w	r2, [sl, #20]
 8002c36:	4c2e      	ldr	r4, [pc, #184]	; (8002cf0 <Set_Screen+0x122c>)
 8002c38:	683b      	ldr	r3, [r7, #0]
 8002c3a:	9202      	str	r2, [sp, #8]
 8002c3c:	6822      	ldr	r2, [r4, #0]
 8002c3e:	4837      	ldr	r0, [pc, #220]	; (8002d1c <Set_Screen+0x1258>)
 8002c40:	f8df 80f0 	ldr.w	r8, [pc, #240]	; 8002d34 <Set_Screen+0x1270>
 8002c44:	e9cd 3200 	strd	r3, r2, [sp]
 8002c48:	210e      	movs	r1, #14
 8002c4a:	23be      	movs	r3, #190	; 0xbe
 8002c4c:	f44f 72c8 	mov.w	r2, #400	; 0x190
 8002c50:	f002 f93e 	bl	8004ed0 <Short_Centred_RU_DrawString_32>
 8002c54:	4b32      	ldr	r3, [pc, #200]	; (8002d20 <Set_Screen+0x125c>)
 8002c56:	220b      	movs	r2, #11
 8002c58:	f04f 0b12 	mov.w	fp, #18
 8002c5c:	681b      	ldr	r3, [r3, #0]
 8002c5e:	e9cd 2b0a 	strd	r2, fp, [sp, #40]	; 0x28
 8002c62:	4a30      	ldr	r2, [pc, #192]	; (8002d24 <Set_Screen+0x1260>)
 8002c64:	9209      	str	r2, [sp, #36]	; 0x24
 8002c66:	6822      	ldr	r2, [r4, #0]
 8002c68:	e9cd 3207 	strd	r3, r2, [sp, #28]
 8002c6c:	f8da 3014 	ldr.w	r3, [sl, #20]
 8002c70:	9306      	str	r3, [sp, #24]
 8002c72:	f44f 72f0 	mov.w	r2, #480	; 0x1e0
 8002c76:	f44f 7348 	mov.w	r3, #800	; 0x320
 8002c7a:	e9cd 3204 	strd	r3, r2, [sp, #16]
 8002c7e:	f44f 76c8 	mov.w	r6, #400	; 0x190
 8002c82:	23f0      	movs	r3, #240	; 0xf0
 8002c84:	e9cd 6302 	strd	r6, r3, [sp, #8]
 8002c88:	2100      	movs	r1, #0
 8002c8a:	f242 730f 	movw	r3, #9999	; 0x270f
 8002c8e:	e9cd 3100 	strd	r3, r1, [sp]
 8002c92:	2204      	movs	r2, #4
 8002c94:	f9b5 3002 	ldrsh.w	r3, [r5, #2]
 8002c98:	4640      	mov	r0, r8
 8002c9a:	f002 fb59 	bl	8005350 <Centred_DrawNumber_16_32bit_controled>
 8002c9e:	f8d8 3008 	ldr.w	r3, [r8, #8]
 8002ca2:	b19b      	cbz	r3, 8002ccc <Set_Screen+0x1208>
 8002ca4:	4b20      	ldr	r3, [pc, #128]	; (8002d28 <Set_Screen+0x1264>)
 8002ca6:	f8da 2014 	ldr.w	r2, [sl, #20]
 8002caa:	681b      	ldr	r3, [r3, #0]
 8002cac:	9202      	str	r2, [sp, #8]
 8002cae:	6822      	ldr	r2, [r4, #0]
 8002cb0:	481e      	ldr	r0, [pc, #120]	; (8002d2c <Set_Screen+0x1268>)
 8002cb2:	e9cd 3200 	strd	r3, r2, [sp]
 8002cb6:	210f      	movs	r1, #15
 8002cb8:	f44f 7391 	mov.w	r3, #290	; 0x122
 8002cbc:	4632      	mov	r2, r6
 8002cbe:	f002 f907 	bl	8004ed0 <Short_Centred_RU_DrawString_32>
 8002cc2:	f44f 2380 	mov.w	r3, #262144	; 0x40000
 8002cc6:	606b      	str	r3, [r5, #4]
 8002cc8:	f7ff b930 	b.w	8001f2c <Set_Screen+0x468>
 8002ccc:	f8da 2014 	ldr.w	r2, [sl, #20]
 8002cd0:	683b      	ldr	r3, [r7, #0]
 8002cd2:	9202      	str	r2, [sp, #8]
 8002cd4:	6822      	ldr	r2, [r4, #0]
 8002cd6:	4816      	ldr	r0, [pc, #88]	; (8002d30 <Set_Screen+0x126c>)
 8002cd8:	e9cd 3200 	strd	r3, r2, [sp]
 8002cdc:	210f      	movs	r1, #15
 8002cde:	f44f 7391 	mov.w	r3, #290	; 0x122
 8002ce2:	4632      	mov	r2, r6
 8002ce4:	e7eb      	b.n	8002cbe <Set_Screen+0x11fa>
 8002ce6:	bf00      	nop
 8002ce8:	20000234 	.word	0x20000234
 8002cec:	08008e19 	.word	0x08008e19
 8002cf0:	20000230 	.word	0x20000230
 8002cf4:	20000106 	.word	0x20000106
 8002cf8:	080090d7 	.word	0x080090d7
 8002cfc:	08009133 	.word	0x08009133
 8002d00:	0800918f 	.word	0x0800918f
 8002d04:	080091bc 	.word	0x080091bc
 8002d08:	080091e9 	.word	0x080091e9
 8002d0c:	08009108 	.word	0x08009108
 8002d10:	08009164 	.word	0x08009164
 8002d14:	08009216 	.word	0x08009216
 8002d18:	20000000 	.word	0x20000000
 8002d1c:	08009241 	.word	0x08009241
 8002d20:	20000004 	.word	0x20000004
 8002d24:	0800bf68 	.word	0x0800bf68
 8002d28:	20000010 	.word	0x20000010
 8002d2c:	0800925d 	.word	0x0800925d
 8002d30:	0800927b 	.word	0x0800927b
 8002d34:	200002c0 	.word	0x200002c0
 8002d38:	4cad      	ldr	r4, [pc, #692]	; (8002ff0 <Set_Screen+0x152c>)
 8002d3a:	4bae      	ldr	r3, [pc, #696]	; (8002ff4 <Set_Screen+0x1530>)
 8002d3c:	7862      	ldrb	r2, [r4, #1]
 8002d3e:	7b1b      	ldrb	r3, [r3, #12]
 8002d40:	7023      	strb	r3, [r4, #0]
 8002d42:	429a      	cmp	r2, r3
 8002d44:	7063      	strb	r3, [r4, #1]
 8002d46:	bf18      	it	ne
 8002d48:	2201      	movne	r2, #1
 8002d4a:	f8da 3018 	ldr.w	r3, [sl, #24]
 8002d4e:	4eaa      	ldr	r6, [pc, #680]	; (8002ff8 <Set_Screen+0x1534>)
 8002d50:	bf18      	it	ne
 8002d52:	70a2      	strbne	r2, [r4, #2]
 8002d54:	9302      	str	r3, [sp, #8]
 8002d56:	6833      	ldr	r3, [r6, #0]
 8002d58:	9301      	str	r3, [sp, #4]
 8002d5a:	f8db 3000 	ldr.w	r3, [fp]
 8002d5e:	48a7      	ldr	r0, [pc, #668]	; (8002ffc <Set_Screen+0x1538>)
 8002d60:	9300      	str	r3, [sp, #0]
 8002d62:	221e      	movs	r2, #30
 8002d64:	2332      	movs	r3, #50	; 0x32
 8002d66:	2110      	movs	r1, #16
 8002d68:	f002 f87a 	bl	8004e60 <Short_Left_Colored_RU_DrawString_32>
 8002d6c:	f04f 0912 	mov.w	r9, #18
 8002d70:	230b      	movs	r3, #11
 8002d72:	e9cd 390a 	strd	r3, r9, [sp, #40]	; 0x28
 8002d76:	4ba2      	ldr	r3, [pc, #648]	; (8003000 <Set_Screen+0x153c>)
 8002d78:	9309      	str	r3, [sp, #36]	; 0x24
 8002d7a:	6833      	ldr	r3, [r6, #0]
 8002d7c:	9308      	str	r3, [sp, #32]
 8002d7e:	f8db 3000 	ldr.w	r3, [fp]
 8002d82:	9307      	str	r3, [sp, #28]
 8002d84:	f8da 3018 	ldr.w	r3, [sl, #24]
 8002d88:	9306      	str	r3, [sp, #24]
 8002d8a:	f44f 7748 	mov.w	r7, #800	; 0x320
 8002d8e:	f44f 73f0 	mov.w	r3, #480	; 0x1e0
 8002d92:	e9cd 7304 	strd	r7, r3, [sp, #16]
 8002d96:	2201      	movs	r2, #1
 8002d98:	f44f 73eb 	mov.w	r3, #470	; 0x1d6
 8002d9c:	f04f 0800 	mov.w	r8, #0
 8002da0:	f04f 0932 	mov.w	r9, #50	; 0x32
 8002da4:	e9cd 3902 	strd	r3, r9, [sp, #8]
 8002da8:	e9cd 2800 	strd	r2, r8, [sp]
 8002dac:	4895      	ldr	r0, [pc, #596]	; (8003004 <Set_Screen+0x1540>)
 8002dae:	f9b5 3002 	ldrsh.w	r3, [r5, #2]
 8002db2:	4d95      	ldr	r5, [pc, #596]	; (8003008 <Set_Screen+0x1544>)
 8002db4:	4641      	mov	r1, r8
 8002db6:	f002 facb 	bl	8005350 <Centred_DrawNumber_16_32bit_controled>
 8002dba:	4b8e      	ldr	r3, [pc, #568]	; (8002ff4 <Set_Screen+0x1530>)
 8002dbc:	68db      	ldr	r3, [r3, #12]
 8002dbe:	930d      	str	r3, [sp, #52]	; 0x34
 8002dc0:	2b00      	cmp	r3, #0
 8002dc2:	f000 8139 	beq.w	8003038 <Set_Screen+0x1574>
 8002dc6:	f8da 2018 	ldr.w	r2, [sl, #24]
 8002dca:	682b      	ldr	r3, [r5, #0]
 8002dcc:	9202      	str	r2, [sp, #8]
 8002dce:	6832      	ldr	r2, [r6, #0]
 8002dd0:	488e      	ldr	r0, [pc, #568]	; (800300c <Set_Screen+0x1548>)
 8002dd2:	e9cd 3200 	strd	r3, r2, [sp]
 8002dd6:	2104      	movs	r1, #4
 8002dd8:	464b      	mov	r3, r9
 8002dda:	f44f 7216 	mov.w	r2, #600	; 0x258
 8002dde:	f002 f83f 	bl	8004e60 <Short_Left_Colored_RU_DrawString_32>
 8002de2:	78a3      	ldrb	r3, [r4, #2]
 8002de4:	b193      	cbz	r3, 8002e0c <Set_Screen+0x1348>
 8002de6:	f44f 73f0 	mov.w	r3, #480	; 0x1e0
 8002dea:	6828      	ldr	r0, [r5, #0]
 8002dec:	f884 8002 	strb.w	r8, [r4, #2]
 8002df0:	e9cd 7302 	strd	r7, r3, [sp, #8]
 8002df4:	f8da 3018 	ldr.w	r3, [sl, #24]
 8002df8:	9301      	str	r3, [sp, #4]
 8002dfa:	f44f 7316 	mov.w	r3, #600	; 0x258
 8002dfe:	9300      	str	r3, [sp, #0]
 8002e00:	2244      	movs	r2, #68	; 0x44
 8002e02:	f240 3302 	movw	r3, #770	; 0x302
 8002e06:	211e      	movs	r1, #30
 8002e08:	f002 fca9 	bl	800575e <Draw_Rectangle>
 8002e0c:	4c7a      	ldr	r4, [pc, #488]	; (8002ff8 <Set_Screen+0x1534>)
 8002e0e:	f8da 3018 	ldr.w	r3, [sl, #24]
 8002e12:	9302      	str	r3, [sp, #8]
 8002e14:	6823      	ldr	r3, [r4, #0]
 8002e16:	9301      	str	r3, [sp, #4]
 8002e18:	f8db 3004 	ldr.w	r3, [fp, #4]
 8002e1c:	487c      	ldr	r0, [pc, #496]	; (8003010 <Set_Screen+0x154c>)
 8002e1e:	9300      	str	r3, [sp, #0]
 8002e20:	221e      	movs	r2, #30
 8002e22:	2350      	movs	r3, #80	; 0x50
 8002e24:	210a      	movs	r1, #10
 8002e26:	f002 f81b 	bl	8004e60 <Short_Left_Colored_RU_DrawString_32>
 8002e2a:	f8da 3018 	ldr.w	r3, [sl, #24]
 8002e2e:	9302      	str	r3, [sp, #8]
 8002e30:	6823      	ldr	r3, [r4, #0]
 8002e32:	9301      	str	r3, [sp, #4]
 8002e34:	f8db 3008 	ldr.w	r3, [fp, #8]
 8002e38:	4876      	ldr	r0, [pc, #472]	; (8003014 <Set_Screen+0x1550>)
 8002e3a:	9300      	str	r3, [sp, #0]
 8002e3c:	270b      	movs	r7, #11
 8002e3e:	f04f 0812 	mov.w	r8, #18
 8002e42:	236e      	movs	r3, #110	; 0x6e
 8002e44:	221e      	movs	r2, #30
 8002e46:	210d      	movs	r1, #13
 8002e48:	f002 f80a 	bl	8004e60 <Short_Left_Colored_RU_DrawString_32>
 8002e4c:	e9cd 780a 	strd	r7, r8, [sp, #40]	; 0x28
 8002e50:	4b6b      	ldr	r3, [pc, #428]	; (8003000 <Set_Screen+0x153c>)
 8002e52:	9309      	str	r3, [sp, #36]	; 0x24
 8002e54:	6823      	ldr	r3, [r4, #0]
 8002e56:	9308      	str	r3, [sp, #32]
 8002e58:	f8db 3008 	ldr.w	r3, [fp, #8]
 8002e5c:	9307      	str	r3, [sp, #28]
 8002e5e:	f8da 3018 	ldr.w	r3, [sl, #24]
 8002e62:	9306      	str	r3, [sp, #24]
 8002e64:	f44f 7248 	mov.w	r2, #800	; 0x320
 8002e68:	f44f 73f0 	mov.w	r3, #480	; 0x1e0
 8002e6c:	e9cd 2304 	strd	r2, r3, [sp, #16]
 8002e70:	f04f 096e 	mov.w	r9, #110	; 0x6e
 8002e74:	f44f 72eb 	mov.w	r2, #470	; 0x1d6
 8002e78:	e9cd 2902 	strd	r2, r9, [sp, #8]
 8002e7c:	2105      	movs	r1, #5
 8002e7e:	2278      	movs	r2, #120	; 0x78
 8002e80:	e9cd 2100 	strd	r2, r1, [sp]
 8002e84:	4d64      	ldr	r5, [pc, #400]	; (8003018 <Set_Screen+0x1554>)
 8002e86:	4e60      	ldr	r6, [pc, #384]	; (8003008 <Set_Screen+0x1544>)
 8002e88:	f9b5 3002 	ldrsh.w	r3, [r5, #2]
 8002e8c:	4859      	ldr	r0, [pc, #356]	; (8002ff4 <Set_Screen+0x1530>)
 8002e8e:	2203      	movs	r2, #3
 8002e90:	2100      	movs	r1, #0
 8002e92:	f002 fa5d 	bl	8005350 <Centred_DrawNumber_16_32bit_controled>
 8002e96:	f8da 2018 	ldr.w	r2, [sl, #24]
 8002e9a:	6833      	ldr	r3, [r6, #0]
 8002e9c:	9202      	str	r2, [sp, #8]
 8002e9e:	6822      	ldr	r2, [r4, #0]
 8002ea0:	485e      	ldr	r0, [pc, #376]	; (800301c <Set_Screen+0x1558>)
 8002ea2:	e9cd 3200 	strd	r3, r2, [sp]
 8002ea6:	2101      	movs	r1, #1
 8002ea8:	464b      	mov	r3, r9
 8002eaa:	f240 2249 	movw	r2, #585	; 0x249
 8002eae:	f001 ffd7 	bl	8004e60 <Short_Left_Colored_RU_DrawString_32>
 8002eb2:	f8da 3018 	ldr.w	r3, [sl, #24]
 8002eb6:	9302      	str	r3, [sp, #8]
 8002eb8:	6823      	ldr	r3, [r4, #0]
 8002eba:	9301      	str	r3, [sp, #4]
 8002ebc:	f8db 300c 	ldr.w	r3, [fp, #12]
 8002ec0:	4857      	ldr	r0, [pc, #348]	; (8003020 <Set_Screen+0x155c>)
 8002ec2:	9300      	str	r3, [sp, #0]
 8002ec4:	221e      	movs	r2, #30
 8002ec6:	238c      	movs	r3, #140	; 0x8c
 8002ec8:	210a      	movs	r1, #10
 8002eca:	f001 ffc9 	bl	8004e60 <Short_Left_Colored_RU_DrawString_32>
 8002ece:	f8da 3018 	ldr.w	r3, [sl, #24]
 8002ed2:	9302      	str	r3, [sp, #8]
 8002ed4:	6823      	ldr	r3, [r4, #0]
 8002ed6:	9301      	str	r3, [sp, #4]
 8002ed8:	f8db 3010 	ldr.w	r3, [fp, #16]
 8002edc:	4851      	ldr	r0, [pc, #324]	; (8003024 <Set_Screen+0x1560>)
 8002ede:	9300      	str	r3, [sp, #0]
 8002ee0:	221e      	movs	r2, #30
 8002ee2:	23aa      	movs	r3, #170	; 0xaa
 8002ee4:	210d      	movs	r1, #13
 8002ee6:	f001 ffbb 	bl	8004e60 <Short_Left_Colored_RU_DrawString_32>
 8002eea:	e9cd 780a 	strd	r7, r8, [sp, #40]	; 0x28
 8002eee:	4b44      	ldr	r3, [pc, #272]	; (8003000 <Set_Screen+0x153c>)
 8002ef0:	9309      	str	r3, [sp, #36]	; 0x24
 8002ef2:	6823      	ldr	r3, [r4, #0]
 8002ef4:	9308      	str	r3, [sp, #32]
 8002ef6:	f8db 3010 	ldr.w	r3, [fp, #16]
 8002efa:	9307      	str	r3, [sp, #28]
 8002efc:	f44f 7248 	mov.w	r2, #800	; 0x320
 8002f00:	f44f 70f0 	mov.w	r0, #480	; 0x1e0
 8002f04:	f8da 3018 	ldr.w	r3, [sl, #24]
 8002f08:	9306      	str	r3, [sp, #24]
 8002f0a:	e9cd 2004 	strd	r2, r0, [sp, #16]
 8002f0e:	f04f 09aa 	mov.w	r9, #170	; 0xaa
 8002f12:	f44f 72eb 	mov.w	r2, #470	; 0x1d6
 8002f16:	f04f 0c05 	mov.w	ip, #5
 8002f1a:	e9cd 2902 	strd	r2, r9, [sp, #8]
 8002f1e:	2278      	movs	r2, #120	; 0x78
 8002f20:	e9cd 2c00 	strd	r2, ip, [sp]
 8002f24:	2100      	movs	r1, #0
 8002f26:	f9b5 3002 	ldrsh.w	r3, [r5, #2]
 8002f2a:	483f      	ldr	r0, [pc, #252]	; (8003028 <Set_Screen+0x1564>)
 8002f2c:	2203      	movs	r2, #3
 8002f2e:	f002 fa0f 	bl	8005350 <Centred_DrawNumber_16_32bit_controled>
 8002f32:	f8da 2018 	ldr.w	r2, [sl, #24]
 8002f36:	6833      	ldr	r3, [r6, #0]
 8002f38:	9202      	str	r2, [sp, #8]
 8002f3a:	6822      	ldr	r2, [r4, #0]
 8002f3c:	4837      	ldr	r0, [pc, #220]	; (800301c <Set_Screen+0x1558>)
 8002f3e:	e9cd 3200 	strd	r3, r2, [sp]
 8002f42:	2101      	movs	r1, #1
 8002f44:	464b      	mov	r3, r9
 8002f46:	f240 2249 	movw	r2, #585	; 0x249
 8002f4a:	f001 ff89 	bl	8004e60 <Short_Left_Colored_RU_DrawString_32>
 8002f4e:	f8da 3018 	ldr.w	r3, [sl, #24]
 8002f52:	9302      	str	r3, [sp, #8]
 8002f54:	6823      	ldr	r3, [r4, #0]
 8002f56:	9301      	str	r3, [sp, #4]
 8002f58:	f8db 3014 	ldr.w	r3, [fp, #20]
 8002f5c:	4833      	ldr	r0, [pc, #204]	; (800302c <Set_Screen+0x1568>)
 8002f5e:	9300      	str	r3, [sp, #0]
 8002f60:	221e      	movs	r2, #30
 8002f62:	23c8      	movs	r3, #200	; 0xc8
 8002f64:	210a      	movs	r1, #10
 8002f66:	f001 ff7b 	bl	8004e60 <Short_Left_Colored_RU_DrawString_32>
 8002f6a:	e9cd 780a 	strd	r7, r8, [sp, #40]	; 0x28
 8002f6e:	4b24      	ldr	r3, [pc, #144]	; (8003000 <Set_Screen+0x153c>)
 8002f70:	9309      	str	r3, [sp, #36]	; 0x24
 8002f72:	6823      	ldr	r3, [r4, #0]
 8002f74:	9308      	str	r3, [sp, #32]
 8002f76:	f8db 3018 	ldr.w	r3, [fp, #24]
 8002f7a:	9307      	str	r3, [sp, #28]
 8002f7c:	f8da 3018 	ldr.w	r3, [sl, #24]
 8002f80:	9306      	str	r3, [sp, #24]
 8002f82:	f44f 7ef0 	mov.w	lr, #480	; 0x1e0
 8002f86:	f44f 7348 	mov.w	r3, #800	; 0x320
 8002f8a:	e9cd 3e04 	strd	r3, lr, [sp, #16]
 8002f8e:	27e6      	movs	r7, #230	; 0xe6
 8002f90:	f44f 73eb 	mov.w	r3, #470	; 0x1d6
 8002f94:	e9cd 3702 	strd	r3, r7, [sp, #8]
 8002f98:	f04f 0805 	mov.w	r8, #5
 8002f9c:	2378      	movs	r3, #120	; 0x78
 8002f9e:	e9cd 3800 	strd	r3, r8, [sp]
 8002fa2:	2203      	movs	r2, #3
 8002fa4:	f9b5 3002 	ldrsh.w	r3, [r5, #2]
 8002fa8:	4821      	ldr	r0, [pc, #132]	; (8003030 <Set_Screen+0x156c>)
 8002faa:	2100      	movs	r1, #0
 8002fac:	f002 f9d0 	bl	8005350 <Centred_DrawNumber_16_32bit_controled>
 8002fb0:	f8da 3018 	ldr.w	r3, [sl, #24]
 8002fb4:	9302      	str	r3, [sp, #8]
 8002fb6:	6823      	ldr	r3, [r4, #0]
 8002fb8:	9301      	str	r3, [sp, #4]
 8002fba:	f8db 3018 	ldr.w	r3, [fp, #24]
 8002fbe:	481d      	ldr	r0, [pc, #116]	; (8003034 <Set_Screen+0x1570>)
 8002fc0:	9300      	str	r3, [sp, #0]
 8002fc2:	221e      	movs	r2, #30
 8002fc4:	463b      	mov	r3, r7
 8002fc6:	210d      	movs	r1, #13
 8002fc8:	f001 ff4a 	bl	8004e60 <Short_Left_Colored_RU_DrawString_32>
 8002fcc:	f8da 2018 	ldr.w	r2, [sl, #24]
 8002fd0:	6833      	ldr	r3, [r6, #0]
 8002fd2:	9202      	str	r2, [sp, #8]
 8002fd4:	6822      	ldr	r2, [r4, #0]
 8002fd6:	4811      	ldr	r0, [pc, #68]	; (800301c <Set_Screen+0x1558>)
 8002fd8:	e9cd 3200 	strd	r3, r2, [sp]
 8002fdc:	2101      	movs	r1, #1
 8002fde:	463b      	mov	r3, r7
 8002fe0:	f240 2249 	movw	r2, #585	; 0x249
 8002fe4:	f001 ff3c 	bl	8004e60 <Short_Left_Colored_RU_DrawString_32>
 8002fe8:	2306      	movs	r3, #6
 8002fea:	80ab      	strh	r3, [r5, #4]
 8002fec:	f7fe bf9e 	b.w	8001f2c <Set_Screen+0x468>
 8002ff0:	200000fa 	.word	0x200000fa
 8002ff4:	200001d0 	.word	0x200001d0
 8002ff8:	20000230 	.word	0x20000230
 8002ffc:	0800928b 	.word	0x0800928b
 8003000:	0800bf68 	.word	0x0800bf68
 8003004:	200001dc 	.word	0x200001dc
 8003008:	20000000 	.word	0x20000000
 800300c:	080092a7 	.word	0x080092a7
 8003010:	080092b0 	.word	0x080092b0
 8003014:	080092c3 	.word	0x080092c3
 8003018:	20000234 	.word	0x20000234
 800301c:	080092dc 	.word	0x080092dc
 8003020:	080092df 	.word	0x080092df
 8003024:	080092f2 	.word	0x080092f2
 8003028:	200001d4 	.word	0x200001d4
 800302c:	0800930b 	.word	0x0800930b
 8003030:	200001d8 	.word	0x200001d8
 8003034:	0800931e 	.word	0x0800931e
 8003038:	f8da 2018 	ldr.w	r2, [sl, #24]
 800303c:	682b      	ldr	r3, [r5, #0]
 800303e:	9202      	str	r2, [sp, #8]
 8003040:	6832      	ldr	r2, [r6, #0]
 8003042:	489a      	ldr	r0, [pc, #616]	; (80032ac <Set_Screen+0x17e8>)
 8003044:	e9cd 3200 	strd	r3, r2, [sp]
 8003048:	2104      	movs	r1, #4
 800304a:	464b      	mov	r3, r9
 800304c:	f44f 7216 	mov.w	r2, #600	; 0x258
 8003050:	f001 ff06 	bl	8004e60 <Short_Left_Colored_RU_DrawString_32>
 8003054:	78a3      	ldrb	r3, [r4, #2]
 8003056:	b193      	cbz	r3, 800307e <Set_Screen+0x15ba>
 8003058:	9b0d      	ldr	r3, [sp, #52]	; 0x34
 800305a:	70a3      	strb	r3, [r4, #2]
 800305c:	f44f 73f0 	mov.w	r3, #480	; 0x1e0
 8003060:	6828      	ldr	r0, [r5, #0]
 8003062:	e9cd 7302 	strd	r7, r3, [sp, #8]
 8003066:	f8da 3018 	ldr.w	r3, [sl, #24]
 800306a:	9301      	str	r3, [sp, #4]
 800306c:	f44f 7316 	mov.w	r3, #600	; 0x258
 8003070:	9300      	str	r3, [sp, #0]
 8003072:	2244      	movs	r2, #68	; 0x44
 8003074:	f240 3302 	movw	r3, #770	; 0x302
 8003078:	211e      	movs	r1, #30
 800307a:	f002 fb70 	bl	800575e <Draw_Rectangle>
 800307e:	4c8c      	ldr	r4, [pc, #560]	; (80032b0 <Set_Screen+0x17ec>)
 8003080:	f8da 3018 	ldr.w	r3, [sl, #24]
 8003084:	9302      	str	r3, [sp, #8]
 8003086:	6823      	ldr	r3, [r4, #0]
 8003088:	9301      	str	r3, [sp, #4]
 800308a:	f8db 3004 	ldr.w	r3, [fp, #4]
 800308e:	4889      	ldr	r0, [pc, #548]	; (80032b4 <Set_Screen+0x17f0>)
 8003090:	9300      	str	r3, [sp, #0]
 8003092:	221e      	movs	r2, #30
 8003094:	2350      	movs	r3, #80	; 0x50
 8003096:	2111      	movs	r1, #17
 8003098:	f001 fee2 	bl	8004e60 <Short_Left_Colored_RU_DrawString_32>
 800309c:	f04f 0812 	mov.w	r8, #18
 80030a0:	230b      	movs	r3, #11
 80030a2:	e9cd 380a 	strd	r3, r8, [sp, #40]	; 0x28
 80030a6:	4d84      	ldr	r5, [pc, #528]	; (80032b8 <Set_Screen+0x17f4>)
 80030a8:	9509      	str	r5, [sp, #36]	; 0x24
 80030aa:	6823      	ldr	r3, [r4, #0]
 80030ac:	9308      	str	r3, [sp, #32]
 80030ae:	f8db 3004 	ldr.w	r3, [fp, #4]
 80030b2:	9307      	str	r3, [sp, #28]
 80030b4:	f8da 3018 	ldr.w	r3, [sl, #24]
 80030b8:	9306      	str	r3, [sp, #24]
 80030ba:	f44f 70f0 	mov.w	r0, #480	; 0x1e0
 80030be:	f44f 7348 	mov.w	r3, #800	; 0x320
 80030c2:	e9cd 3004 	strd	r3, r0, [sp, #16]
 80030c6:	2650      	movs	r6, #80	; 0x50
 80030c8:	f44f 73eb 	mov.w	r3, #470	; 0x1d6
 80030cc:	f04f 0c0a 	mov.w	ip, #10
 80030d0:	e9cd 3602 	strd	r3, r6, [sp, #8]
 80030d4:	2332      	movs	r3, #50	; 0x32
 80030d6:	e9cd 3c00 	strd	r3, ip, [sp]
 80030da:	4f78      	ldr	r7, [pc, #480]	; (80032bc <Set_Screen+0x17f8>)
 80030dc:	4878      	ldr	r0, [pc, #480]	; (80032c0 <Set_Screen+0x17fc>)
 80030de:	f9b7 3002 	ldrsh.w	r3, [r7, #2]
 80030e2:	2202      	movs	r2, #2
 80030e4:	2100      	movs	r1, #0
 80030e6:	f002 f933 	bl	8005350 <Centred_DrawNumber_16_32bit_controled>
 80030ea:	f8da 3018 	ldr.w	r3, [sl, #24]
 80030ee:	9302      	str	r3, [sp, #8]
 80030f0:	6823      	ldr	r3, [r4, #0]
 80030f2:	9301      	str	r3, [sp, #4]
 80030f4:	f8db 3008 	ldr.w	r3, [fp, #8]
 80030f8:	4872      	ldr	r0, [pc, #456]	; (80032c4 <Set_Screen+0x1800>)
 80030fa:	9300      	str	r3, [sp, #0]
 80030fc:	4641      	mov	r1, r8
 80030fe:	236e      	movs	r3, #110	; 0x6e
 8003100:	221e      	movs	r2, #30
 8003102:	f001 fead 	bl	8004e60 <Short_Left_Colored_RU_DrawString_32>
 8003106:	230b      	movs	r3, #11
 8003108:	e9cd 5309 	strd	r5, r3, [sp, #36]	; 0x24
 800310c:	f8cd 802c 	str.w	r8, [sp, #44]	; 0x2c
 8003110:	6823      	ldr	r3, [r4, #0]
 8003112:	9308      	str	r3, [sp, #32]
 8003114:	f8db 3008 	ldr.w	r3, [fp, #8]
 8003118:	9307      	str	r3, [sp, #28]
 800311a:	f44f 7ef0 	mov.w	lr, #480	; 0x1e0
 800311e:	f44f 7248 	mov.w	r2, #800	; 0x320
 8003122:	2501      	movs	r5, #1
 8003124:	f8da 3018 	ldr.w	r3, [sl, #24]
 8003128:	9306      	str	r3, [sp, #24]
 800312a:	e9cd 2e04 	strd	r2, lr, [sp, #16]
 800312e:	2600      	movs	r6, #0
 8003130:	f04f 096e 	mov.w	r9, #110	; 0x6e
 8003134:	f44f 72eb 	mov.w	r2, #470	; 0x1d6
 8003138:	e9cd 2902 	strd	r2, r9, [sp, #8]
 800313c:	e9cd 5600 	strd	r5, r6, [sp]
 8003140:	462a      	mov	r2, r5
 8003142:	f9b7 3002 	ldrsh.w	r3, [r7, #2]
 8003146:	4860      	ldr	r0, [pc, #384]	; (80032c8 <Set_Screen+0x1804>)
 8003148:	4631      	mov	r1, r6
 800314a:	f002 f901 	bl	8005350 <Centred_DrawNumber_16_32bit_controled>
 800314e:	4a5f      	ldr	r2, [pc, #380]	; (80032cc <Set_Screen+0x1808>)
 8003150:	485f      	ldr	r0, [pc, #380]	; (80032d0 <Set_Screen+0x180c>)
 8003152:	6813      	ldr	r3, [r2, #0]
 8003154:	f8da 2018 	ldr.w	r2, [sl, #24]
 8003158:	9202      	str	r2, [sp, #8]
 800315a:	6822      	ldr	r2, [r4, #0]
 800315c:	210c      	movs	r1, #12
 800315e:	e9cd 3200 	strd	r3, r2, [sp]
 8003162:	464b      	mov	r3, r9
 8003164:	f240 2249 	movw	r2, #585	; 0x249
 8003168:	f001 fe7a 	bl	8004e60 <Short_Left_Colored_RU_DrawString_32>
 800316c:	f8da 3018 	ldr.w	r3, [sl, #24]
 8003170:	9302      	str	r3, [sp, #8]
 8003172:	6823      	ldr	r3, [r4, #0]
 8003174:	9301      	str	r3, [sp, #4]
 8003176:	f8db 300c 	ldr.w	r3, [fp, #12]
 800317a:	4856      	ldr	r0, [pc, #344]	; (80032d4 <Set_Screen+0x1810>)
 800317c:	9300      	str	r3, [sp, #0]
 800317e:	221e      	movs	r2, #30
 8003180:	238c      	movs	r3, #140	; 0x8c
 8003182:	210c      	movs	r1, #12
 8003184:	f001 fe6c 	bl	8004e60 <Short_Left_Colored_RU_DrawString_32>
 8003188:	f8da 3018 	ldr.w	r3, [sl, #24]
 800318c:	9302      	str	r3, [sp, #8]
 800318e:	6823      	ldr	r3, [r4, #0]
 8003190:	9301      	str	r3, [sp, #4]
 8003192:	f8db 3010 	ldr.w	r3, [fp, #16]
 8003196:	4850      	ldr	r0, [pc, #320]	; (80032d8 <Set_Screen+0x1814>)
 8003198:	9300      	str	r3, [sp, #0]
 800319a:	221e      	movs	r2, #30
 800319c:	23aa      	movs	r3, #170	; 0xaa
 800319e:	2114      	movs	r1, #20
 80031a0:	f001 fe5e 	bl	8004e60 <Short_Left_Colored_RU_DrawString_32>
 80031a4:	4b44      	ldr	r3, [pc, #272]	; (80032b8 <Set_Screen+0x17f4>)
 80031a6:	f8cd 802c 	str.w	r8, [sp, #44]	; 0x2c
 80031aa:	210b      	movs	r1, #11
 80031ac:	910a      	str	r1, [sp, #40]	; 0x28
 80031ae:	9309      	str	r3, [sp, #36]	; 0x24
 80031b0:	6823      	ldr	r3, [r4, #0]
 80031b2:	9308      	str	r3, [sp, #32]
 80031b4:	f8db 3010 	ldr.w	r3, [fp, #16]
 80031b8:	9307      	str	r3, [sp, #28]
 80031ba:	f44f 7148 	mov.w	r1, #800	; 0x320
 80031be:	f44f 79f0 	mov.w	r9, #480	; 0x1e0
 80031c2:	f8da 3018 	ldr.w	r3, [sl, #24]
 80031c6:	9306      	str	r3, [sp, #24]
 80031c8:	e9cd 1904 	strd	r1, r9, [sp, #16]
 80031cc:	f44f 71eb 	mov.w	r1, #470	; 0x1d6
 80031d0:	f04f 09aa 	mov.w	r9, #170	; 0xaa
 80031d4:	e9cd 1902 	strd	r1, r9, [sp, #8]
 80031d8:	e9cd 5600 	strd	r5, r6, [sp]
 80031dc:	462a      	mov	r2, r5
 80031de:	f9b7 3002 	ldrsh.w	r3, [r7, #2]
 80031e2:	4631      	mov	r1, r6
 80031e4:	4628      	mov	r0, r5
 80031e6:	f002 f8b3 	bl	8005350 <Centred_DrawNumber_16_32bit_controled>
 80031ea:	4a38      	ldr	r2, [pc, #224]	; (80032cc <Set_Screen+0x1808>)
 80031ec:	483b      	ldr	r0, [pc, #236]	; (80032dc <Set_Screen+0x1818>)
 80031ee:	6813      	ldr	r3, [r2, #0]
 80031f0:	f8da 2018 	ldr.w	r2, [sl, #24]
 80031f4:	9202      	str	r2, [sp, #8]
 80031f6:	6822      	ldr	r2, [r4, #0]
 80031f8:	2106      	movs	r1, #6
 80031fa:	e9cd 3200 	strd	r3, r2, [sp]
 80031fe:	464b      	mov	r3, r9
 8003200:	f44f 7216 	mov.w	r2, #600	; 0x258
 8003204:	f001 fe2c 	bl	8004e60 <Short_Left_Colored_RU_DrawString_32>
 8003208:	f8da 3018 	ldr.w	r3, [sl, #24]
 800320c:	9302      	str	r3, [sp, #8]
 800320e:	6823      	ldr	r3, [r4, #0]
 8003210:	9301      	str	r3, [sp, #4]
 8003212:	f8db 3014 	ldr.w	r3, [fp, #20]
 8003216:	4832      	ldr	r0, [pc, #200]	; (80032e0 <Set_Screen+0x181c>)
 8003218:	9300      	str	r3, [sp, #0]
 800321a:	221e      	movs	r2, #30
 800321c:	23c8      	movs	r3, #200	; 0xc8
 800321e:	2115      	movs	r1, #21
 8003220:	f001 fe1e 	bl	8004e60 <Short_Left_Colored_RU_DrawString_32>
 8003224:	f8da 3018 	ldr.w	r3, [sl, #24]
 8003228:	9302      	str	r3, [sp, #8]
 800322a:	6823      	ldr	r3, [r4, #0]
 800322c:	9301      	str	r3, [sp, #4]
 800322e:	f8db 3018 	ldr.w	r3, [fp, #24]
 8003232:	482c      	ldr	r0, [pc, #176]	; (80032e4 <Set_Screen+0x1820>)
 8003234:	9300      	str	r3, [sp, #0]
 8003236:	221e      	movs	r2, #30
 8003238:	23e6      	movs	r3, #230	; 0xe6
 800323a:	2113      	movs	r1, #19
 800323c:	f001 fe10 	bl	8004e60 <Short_Left_Colored_RU_DrawString_32>
 8003240:	4b1d      	ldr	r3, [pc, #116]	; (80032b8 <Set_Screen+0x17f4>)
 8003242:	f8cd 802c 	str.w	r8, [sp, #44]	; 0x2c
 8003246:	210b      	movs	r1, #11
 8003248:	910a      	str	r1, [sp, #40]	; 0x28
 800324a:	9309      	str	r3, [sp, #36]	; 0x24
 800324c:	6823      	ldr	r3, [r4, #0]
 800324e:	9308      	str	r3, [sp, #32]
 8003250:	f8db 300c 	ldr.w	r3, [fp, #12]
 8003254:	9307      	str	r3, [sp, #28]
 8003256:	f8da 3018 	ldr.w	r3, [sl, #24]
 800325a:	9306      	str	r3, [sp, #24]
 800325c:	f44f 7bf0 	mov.w	fp, #480	; 0x1e0
 8003260:	f44f 7348 	mov.w	r3, #800	; 0x320
 8003264:	e9cd 3b04 	strd	r3, fp, [sp, #16]
 8003268:	f04f 08c8 	mov.w	r8, #200	; 0xc8
 800326c:	f44f 73eb 	mov.w	r3, #470	; 0x1d6
 8003270:	e9cd 3802 	strd	r3, r8, [sp, #8]
 8003274:	e9cd 5600 	strd	r5, r6, [sp]
 8003278:	462a      	mov	r2, r5
 800327a:	f9b7 3002 	ldrsh.w	r3, [r7, #2]
 800327e:	4631      	mov	r1, r6
 8003280:	4628      	mov	r0, r5
 8003282:	f002 f865 	bl	8005350 <Centred_DrawNumber_16_32bit_controled>
 8003286:	4a11      	ldr	r2, [pc, #68]	; (80032cc <Set_Screen+0x1808>)
 8003288:	4817      	ldr	r0, [pc, #92]	; (80032e8 <Set_Screen+0x1824>)
 800328a:	6813      	ldr	r3, [r2, #0]
 800328c:	f8da 2018 	ldr.w	r2, [sl, #24]
 8003290:	9202      	str	r2, [sp, #8]
 8003292:	6822      	ldr	r2, [r4, #0]
 8003294:	2107      	movs	r1, #7
 8003296:	e9cd 3200 	strd	r3, r2, [sp]
 800329a:	4643      	mov	r3, r8
 800329c:	f44f 7216 	mov.w	r2, #600	; 0x258
 80032a0:	f001 fdde 	bl	8004e60 <Short_Left_Colored_RU_DrawString_32>
 80032a4:	2306      	movs	r3, #6
 80032a6:	80bb      	strh	r3, [r7, #4]
 80032a8:	f7fe be40 	b.w	8001f2c <Set_Screen+0x468>
 80032ac:	08009337 	.word	0x08009337
 80032b0:	20000230 	.word	0x20000230
 80032b4:	08009340 	.word	0x08009340
 80032b8:	0800bf68 	.word	0x0800bf68
 80032bc:	20000234 	.word	0x20000234
 80032c0:	200001e4 	.word	0x200001e4
 80032c4:	0800935e 	.word	0x0800935e
 80032c8:	200001e0 	.word	0x200001e0
 80032cc:	20000000 	.word	0x20000000
 80032d0:	08009381 	.word	0x08009381
 80032d4:	08009398 	.word	0x08009398
 80032d8:	080093b0 	.word	0x080093b0
 80032dc:	080093d6 	.word	0x080093d6
 80032e0:	080093e2 	.word	0x080093e2
 80032e4:	0800940a 	.word	0x0800940a
 80032e8:	0800942e 	.word	0x0800942e
 80032ec:	4c8d      	ldr	r4, [pc, #564]	; (8003524 <Set_Screen+0x1a60>)
 80032ee:	f8da 301c 	ldr.w	r3, [sl, #28]
 80032f2:	9302      	str	r3, [sp, #8]
 80032f4:	6823      	ldr	r3, [r4, #0]
 80032f6:	9301      	str	r3, [sp, #4]
 80032f8:	f8db 3000 	ldr.w	r3, [fp]
 80032fc:	488a      	ldr	r0, [pc, #552]	; (8003528 <Set_Screen+0x1a64>)
 80032fe:	9300      	str	r3, [sp, #0]
 8003300:	2214      	movs	r2, #20
 8003302:	2346      	movs	r3, #70	; 0x46
 8003304:	211e      	movs	r1, #30
 8003306:	f001 fdab 	bl	8004e60 <Short_Left_Colored_RU_DrawString_32>
 800330a:	230b      	movs	r3, #11
 800330c:	2212      	movs	r2, #18
 800330e:	e9cd 320a 	strd	r3, r2, [sp, #40]	; 0x28
 8003312:	4e86      	ldr	r6, [pc, #536]	; (800352c <Set_Screen+0x1a68>)
 8003314:	9609      	str	r6, [sp, #36]	; 0x24
 8003316:	6823      	ldr	r3, [r4, #0]
 8003318:	9308      	str	r3, [sp, #32]
 800331a:	f8db 3000 	ldr.w	r3, [fp]
 800331e:	9307      	str	r3, [sp, #28]
 8003320:	f8da 301c 	ldr.w	r3, [sl, #28]
 8003324:	9306      	str	r3, [sp, #24]
 8003326:	f44f 772f 	mov.w	r7, #700	; 0x2bc
 800332a:	2346      	movs	r3, #70	; 0x46
 800332c:	f44f 7848 	mov.w	r8, #800	; 0x320
 8003330:	f44f 79f0 	mov.w	r9, #480	; 0x1e0
 8003334:	e9cd 7302 	strd	r7, r3, [sp, #8]
 8003338:	2201      	movs	r2, #1
 800333a:	2303      	movs	r3, #3
 800333c:	e9cd 3200 	strd	r3, r2, [sp]
 8003340:	e9cd 8904 	strd	r8, r9, [sp, #16]
 8003344:	4d7a      	ldr	r5, [pc, #488]	; (8003530 <Set_Screen+0x1a6c>)
 8003346:	487b      	ldr	r0, [pc, #492]	; (8003534 <Set_Screen+0x1a70>)
 8003348:	f9b5 3002 	ldrsh.w	r3, [r5, #2]
 800334c:	2100      	movs	r1, #0
 800334e:	f001 ffff 	bl	8005350 <Centred_DrawNumber_16_32bit_controled>
 8003352:	f8da 301c 	ldr.w	r3, [sl, #28]
 8003356:	9302      	str	r3, [sp, #8]
 8003358:	6823      	ldr	r3, [r4, #0]
 800335a:	9301      	str	r3, [sp, #4]
 800335c:	f8db 3004 	ldr.w	r3, [fp, #4]
 8003360:	4875      	ldr	r0, [pc, #468]	; (8003538 <Set_Screen+0x1a74>)
 8003362:	9300      	str	r3, [sp, #0]
 8003364:	2214      	movs	r2, #20
 8003366:	236e      	movs	r3, #110	; 0x6e
 8003368:	211e      	movs	r1, #30
 800336a:	f001 fd79 	bl	8004e60 <Short_Left_Colored_RU_DrawString_32>
 800336e:	230b      	movs	r3, #11
 8003370:	2112      	movs	r1, #18
 8003372:	e9cd 310a 	strd	r3, r1, [sp, #40]	; 0x28
 8003376:	9609      	str	r6, [sp, #36]	; 0x24
 8003378:	6823      	ldr	r3, [r4, #0]
 800337a:	9308      	str	r3, [sp, #32]
 800337c:	f8db 3004 	ldr.w	r3, [fp, #4]
 8003380:	9307      	str	r3, [sp, #28]
 8003382:	f8da 301c 	ldr.w	r3, [sl, #28]
 8003386:	f8cd 8010 	str.w	r8, [sp, #16]
 800338a:	e9cd 9305 	strd	r9, r3, [sp, #20]
 800338e:	236e      	movs	r3, #110	; 0x6e
 8003390:	e9cd 7302 	strd	r7, r3, [sp, #8]
 8003394:	200a      	movs	r0, #10
 8003396:	233c      	movs	r3, #60	; 0x3c
 8003398:	e9cd 3000 	strd	r3, r0, [sp]
 800339c:	2202      	movs	r2, #2
 800339e:	f9b5 3002 	ldrsh.w	r3, [r5, #2]
 80033a2:	4866      	ldr	r0, [pc, #408]	; (800353c <Set_Screen+0x1a78>)
 80033a4:	2100      	movs	r1, #0
 80033a6:	f001 ffd3 	bl	8005350 <Centred_DrawNumber_16_32bit_controled>
 80033aa:	f8da 301c 	ldr.w	r3, [sl, #28]
 80033ae:	9302      	str	r3, [sp, #8]
 80033b0:	6823      	ldr	r3, [r4, #0]
 80033b2:	9301      	str	r3, [sp, #4]
 80033b4:	f8db 3008 	ldr.w	r3, [fp, #8]
 80033b8:	4861      	ldr	r0, [pc, #388]	; (8003540 <Set_Screen+0x1a7c>)
 80033ba:	9300      	str	r3, [sp, #0]
 80033bc:	2214      	movs	r2, #20
 80033be:	2396      	movs	r3, #150	; 0x96
 80033c0:	211e      	movs	r1, #30
 80033c2:	f001 fd4d 	bl	8004e60 <Short_Left_Colored_RU_DrawString_32>
 80033c6:	f04f 0c12 	mov.w	ip, #18
 80033ca:	230b      	movs	r3, #11
 80033cc:	e9cd 3c0a 	strd	r3, ip, [sp, #40]	; 0x28
 80033d0:	9609      	str	r6, [sp, #36]	; 0x24
 80033d2:	6823      	ldr	r3, [r4, #0]
 80033d4:	9308      	str	r3, [sp, #32]
 80033d6:	f8db 3008 	ldr.w	r3, [fp, #8]
 80033da:	9307      	str	r3, [sp, #28]
 80033dc:	f8da 301c 	ldr.w	r3, [sl, #28]
 80033e0:	f8cd 8010 	str.w	r8, [sp, #16]
 80033e4:	e9cd 9305 	strd	r9, r3, [sp, #20]
 80033e8:	2396      	movs	r3, #150	; 0x96
 80033ea:	f241 3e88 	movw	lr, #5000	; 0x1388
 80033ee:	e9cd 7302 	strd	r7, r3, [sp, #8]
 80033f2:	f24c 3350 	movw	r3, #50000	; 0xc350
 80033f6:	e9cd 3e00 	strd	r3, lr, [sp]
 80033fa:	2205      	movs	r2, #5
 80033fc:	f9b5 3002 	ldrsh.w	r3, [r5, #2]
 8003400:	4850      	ldr	r0, [pc, #320]	; (8003544 <Set_Screen+0x1a80>)
 8003402:	2100      	movs	r1, #0
 8003404:	f001 ffa4 	bl	8005350 <Centred_DrawNumber_16_32bit_controled>
 8003408:	f8da 301c 	ldr.w	r3, [sl, #28]
 800340c:	9302      	str	r3, [sp, #8]
 800340e:	6823      	ldr	r3, [r4, #0]
 8003410:	9301      	str	r3, [sp, #4]
 8003412:	f8db 300c 	ldr.w	r3, [fp, #12]
 8003416:	484c      	ldr	r0, [pc, #304]	; (8003548 <Set_Screen+0x1a84>)
 8003418:	9300      	str	r3, [sp, #0]
 800341a:	2214      	movs	r2, #20
 800341c:	23be      	movs	r3, #190	; 0xbe
 800341e:	211e      	movs	r1, #30
 8003420:	f001 fd1e 	bl	8004e60 <Short_Left_Colored_RU_DrawString_32>
 8003424:	230b      	movs	r3, #11
 8003426:	2212      	movs	r2, #18
 8003428:	e9cd 320a 	strd	r3, r2, [sp, #40]	; 0x28
 800342c:	9609      	str	r6, [sp, #36]	; 0x24
 800342e:	6823      	ldr	r3, [r4, #0]
 8003430:	9308      	str	r3, [sp, #32]
 8003432:	f8db 300c 	ldr.w	r3, [fp, #12]
 8003436:	9307      	str	r3, [sp, #28]
 8003438:	f8da 301c 	ldr.w	r3, [sl, #28]
 800343c:	f8cd 8010 	str.w	r8, [sp, #16]
 8003440:	e9cd 9305 	strd	r9, r3, [sp, #20]
 8003444:	23be      	movs	r3, #190	; 0xbe
 8003446:	e9cd 7302 	strd	r7, r3, [sp, #8]
 800344a:	2164      	movs	r1, #100	; 0x64
 800344c:	f44f 7361 	mov.w	r3, #900	; 0x384
 8003450:	e9cd 3100 	strd	r3, r1, [sp]
 8003454:	483d      	ldr	r0, [pc, #244]	; (800354c <Set_Screen+0x1a88>)
 8003456:	f9b5 3002 	ldrsh.w	r3, [r5, #2]
 800345a:	2203      	movs	r2, #3
 800345c:	2100      	movs	r1, #0
 800345e:	f001 ff77 	bl	8005350 <Centred_DrawNumber_16_32bit_controled>
 8003462:	4b3b      	ldr	r3, [pc, #236]	; (8003550 <Set_Screen+0x1a8c>)
 8003464:	f893 3028 	ldrb.w	r3, [r3, #40]	; 0x28
 8003468:	2b00      	cmp	r3, #0
 800346a:	d14d      	bne.n	8003508 <Set_Screen+0x1a44>
 800346c:	f8da 301c 	ldr.w	r3, [sl, #28]
 8003470:	9302      	str	r3, [sp, #8]
 8003472:	6823      	ldr	r3, [r4, #0]
 8003474:	9301      	str	r3, [sp, #4]
 8003476:	f8db 3010 	ldr.w	r3, [fp, #16]
 800347a:	4836      	ldr	r0, [pc, #216]	; (8003554 <Set_Screen+0x1a90>)
 800347c:	9300      	str	r3, [sp, #0]
 800347e:	2214      	movs	r2, #20
 8003480:	23e6      	movs	r3, #230	; 0xe6
 8003482:	211e      	movs	r1, #30
 8003484:	4f34      	ldr	r7, [pc, #208]	; (8003558 <Set_Screen+0x1a94>)
 8003486:	f8df 80e0 	ldr.w	r8, [pc, #224]	; 8003568 <Set_Screen+0x1aa4>
 800348a:	f001 fce9 	bl	8004e60 <Short_Left_Colored_RU_DrawString_32>
 800348e:	69fb      	ldr	r3, [r7, #28]
 8003490:	9302      	str	r3, [sp, #8]
 8003492:	6823      	ldr	r3, [r4, #0]
 8003494:	9301      	str	r3, [sp, #4]
 8003496:	f8d8 3014 	ldr.w	r3, [r8, #20]
 800349a:	4830      	ldr	r0, [pc, #192]	; (800355c <Set_Screen+0x1a98>)
 800349c:	9300      	str	r3, [sp, #0]
 800349e:	2214      	movs	r2, #20
 80034a0:	f44f 7387 	mov.w	r3, #270	; 0x10e
 80034a4:	211e      	movs	r1, #30
 80034a6:	f001 fcdb 	bl	8004e60 <Short_Left_Colored_RU_DrawString_32>
 80034aa:	230b      	movs	r3, #11
 80034ac:	f04f 0c12 	mov.w	ip, #18
 80034b0:	e9cd 3c0a 	strd	r3, ip, [sp, #40]	; 0x28
 80034b4:	9609      	str	r6, [sp, #36]	; 0x24
 80034b6:	6823      	ldr	r3, [r4, #0]
 80034b8:	9308      	str	r3, [sp, #32]
 80034ba:	f8d8 3014 	ldr.w	r3, [r8, #20]
 80034be:	9307      	str	r3, [sp, #28]
 80034c0:	69fb      	ldr	r3, [r7, #28]
 80034c2:	9306      	str	r3, [sp, #24]
 80034c4:	f44f 7ef0 	mov.w	lr, #480	; 0x1e0
 80034c8:	f44f 7348 	mov.w	r3, #800	; 0x320
 80034cc:	e9cd 3e04 	strd	r3, lr, [sp, #16]
 80034d0:	f44f 7887 	mov.w	r8, #270	; 0x10e
 80034d4:	f44f 732f 	mov.w	r3, #700	; 0x2bc
 80034d8:	e9cd 3802 	strd	r3, r8, [sp, #8]
 80034dc:	f04f 0964 	mov.w	r9, #100	; 0x64
 80034e0:	f44f 7361 	mov.w	r3, #900	; 0x384
 80034e4:	e9cd 3900 	strd	r3, r9, [sp]
 80034e8:	481d      	ldr	r0, [pc, #116]	; (8003560 <Set_Screen+0x1a9c>)
 80034ea:	f9b5 3002 	ldrsh.w	r3, [r5, #2]
 80034ee:	2203      	movs	r2, #3
 80034f0:	2100      	movs	r1, #0
 80034f2:	f001 ff2d 	bl	8005350 <Centred_DrawNumber_16_32bit_controled>
 80034f6:	2305      	movs	r3, #5
 80034f8:	80ab      	strh	r3, [r5, #4]
 80034fa:	f9b5 3000 	ldrsh.w	r3, [r5]
 80034fe:	2b04      	cmp	r3, #4
 8003500:	f47e ad14 	bne.w	8001f2c <Set_Screen+0x468>
 8003504:	f7fe bd0f 	b.w	8001f26 <Set_Screen+0x462>
 8003508:	f8da 301c 	ldr.w	r3, [sl, #28]
 800350c:	9302      	str	r3, [sp, #8]
 800350e:	6823      	ldr	r3, [r4, #0]
 8003510:	9301      	str	r3, [sp, #4]
 8003512:	f8db 3010 	ldr.w	r3, [fp, #16]
 8003516:	9300      	str	r3, [sp, #0]
 8003518:	4812      	ldr	r0, [pc, #72]	; (8003564 <Set_Screen+0x1aa0>)
 800351a:	23e6      	movs	r3, #230	; 0xe6
 800351c:	2214      	movs	r2, #20
 800351e:	211e      	movs	r1, #30
 8003520:	e7b0      	b.n	8003484 <Set_Screen+0x19c0>
 8003522:	bf00      	nop
 8003524:	20000230 	.word	0x20000230
 8003528:	0800943c 	.word	0x0800943c
 800352c:	0800bf68 	.word	0x0800bf68
 8003530:	20000234 	.word	0x20000234
 8003534:	20000218 	.word	0x20000218
 8003538:	08009470 	.word	0x08009470
 800353c:	2000021c 	.word	0x2000021c
 8003540:	080094a7 	.word	0x080094a7
 8003544:	20000220 	.word	0x20000220
 8003548:	080094d8 	.word	0x080094d8
 800354c:	20000224 	.word	0x20000224
 8003550:	20000200 	.word	0x20000200
 8003554:	0800950f 	.word	0x0800950f
 8003558:	2000024c 	.word	0x2000024c
 800355c:	08009577 	.word	0x08009577
 8003560:	2000022c 	.word	0x2000022c
 8003564:	08009543 	.word	0x08009543
 8003568:	200000a4 	.word	0x200000a4
 800356c:	4c84      	ldr	r4, [pc, #528]	; (8003780 <Set_Screen+0x1cbc>)
 800356e:	f8da 3054 	ldr.w	r3, [sl, #84]	; 0x54
 8003572:	9302      	str	r3, [sp, #8]
 8003574:	6823      	ldr	r3, [r4, #0]
 8003576:	9301      	str	r3, [sp, #4]
 8003578:	f8db 3000 	ldr.w	r3, [fp]
 800357c:	9300      	str	r3, [sp, #0]
 800357e:	4881      	ldr	r0, [pc, #516]	; (8003784 <Set_Screen+0x1cc0>)
 8003580:	4e81      	ldr	r6, [pc, #516]	; (8003788 <Set_Screen+0x1cc4>)
 8003582:	4d82      	ldr	r5, [pc, #520]	; (800378c <Set_Screen+0x1cc8>)
 8003584:	2346      	movs	r3, #70	; 0x46
 8003586:	2264      	movs	r2, #100	; 0x64
 8003588:	2111      	movs	r1, #17
 800358a:	f001 fc69 	bl	8004e60 <Short_Left_Colored_RU_DrawString_32>
 800358e:	f8da 3054 	ldr.w	r3, [sl, #84]	; 0x54
 8003592:	9302      	str	r3, [sp, #8]
 8003594:	6823      	ldr	r3, [r4, #0]
 8003596:	9301      	str	r3, [sp, #4]
 8003598:	f8db 3004 	ldr.w	r3, [fp, #4]
 800359c:	9300      	str	r3, [sp, #0]
 800359e:	487c      	ldr	r0, [pc, #496]	; (8003790 <Set_Screen+0x1ccc>)
 80035a0:	236e      	movs	r3, #110	; 0x6e
 80035a2:	2264      	movs	r2, #100	; 0x64
 80035a4:	2111      	movs	r1, #17
 80035a6:	f001 fc5b 	bl	8004e60 <Short_Left_Colored_RU_DrawString_32>
 80035aa:	f8da 3054 	ldr.w	r3, [sl, #84]	; 0x54
 80035ae:	9302      	str	r3, [sp, #8]
 80035b0:	6823      	ldr	r3, [r4, #0]
 80035b2:	9301      	str	r3, [sp, #4]
 80035b4:	f8db 3008 	ldr.w	r3, [fp, #8]
 80035b8:	9300      	str	r3, [sp, #0]
 80035ba:	4876      	ldr	r0, [pc, #472]	; (8003794 <Set_Screen+0x1cd0>)
 80035bc:	2396      	movs	r3, #150	; 0x96
 80035be:	2264      	movs	r2, #100	; 0x64
 80035c0:	2111      	movs	r1, #17
 80035c2:	f001 fc4d 	bl	8004e60 <Short_Left_Colored_RU_DrawString_32>
 80035c6:	f8da 3054 	ldr.w	r3, [sl, #84]	; 0x54
 80035ca:	9302      	str	r3, [sp, #8]
 80035cc:	6823      	ldr	r3, [r4, #0]
 80035ce:	9301      	str	r3, [sp, #4]
 80035d0:	f8db 300c 	ldr.w	r3, [fp, #12]
 80035d4:	9300      	str	r3, [sp, #0]
 80035d6:	4870      	ldr	r0, [pc, #448]	; (8003798 <Set_Screen+0x1cd4>)
 80035d8:	23be      	movs	r3, #190	; 0xbe
 80035da:	2264      	movs	r2, #100	; 0x64
 80035dc:	2111      	movs	r1, #17
 80035de:	f001 fc3f 	bl	8004e60 <Short_Left_Colored_RU_DrawString_32>
 80035e2:	f8da 3054 	ldr.w	r3, [sl, #84]	; 0x54
 80035e6:	9302      	str	r3, [sp, #8]
 80035e8:	6823      	ldr	r3, [r4, #0]
 80035ea:	9301      	str	r3, [sp, #4]
 80035ec:	f8db 3010 	ldr.w	r3, [fp, #16]
 80035f0:	9300      	str	r3, [sp, #0]
 80035f2:	486a      	ldr	r0, [pc, #424]	; (800379c <Set_Screen+0x1cd8>)
 80035f4:	23e6      	movs	r3, #230	; 0xe6
 80035f6:	2264      	movs	r2, #100	; 0x64
 80035f8:	2111      	movs	r1, #17
 80035fa:	f001 fc31 	bl	8004e60 <Short_Left_Colored_RU_DrawString_32>
 80035fe:	f8da 3054 	ldr.w	r3, [sl, #84]	; 0x54
 8003602:	9302      	str	r3, [sp, #8]
 8003604:	6823      	ldr	r3, [r4, #0]
 8003606:	9301      	str	r3, [sp, #4]
 8003608:	f8db 3014 	ldr.w	r3, [fp, #20]
 800360c:	9300      	str	r3, [sp, #0]
 800360e:	270b      	movs	r7, #11
 8003610:	f04f 0812 	mov.w	r8, #18
 8003614:	4862      	ldr	r0, [pc, #392]	; (80037a0 <Set_Screen+0x1cdc>)
 8003616:	f44f 7387 	mov.w	r3, #270	; 0x10e
 800361a:	2264      	movs	r2, #100	; 0x64
 800361c:	2111      	movs	r1, #17
 800361e:	f001 fc1f 	bl	8004e60 <Short_Left_Colored_RU_DrawString_32>
 8003622:	e9cd 780a 	strd	r7, r8, [sp, #40]	; 0x28
 8003626:	9609      	str	r6, [sp, #36]	; 0x24
 8003628:	6823      	ldr	r3, [r4, #0]
 800362a:	9308      	str	r3, [sp, #32]
 800362c:	f8db 3000 	ldr.w	r3, [fp]
 8003630:	9307      	str	r3, [sp, #28]
 8003632:	f8da 3054 	ldr.w	r3, [sl, #84]	; 0x54
 8003636:	9306      	str	r3, [sp, #24]
 8003638:	f44f 72f0 	mov.w	r2, #480	; 0x1e0
 800363c:	f44f 7348 	mov.w	r3, #800	; 0x320
 8003640:	f44f 79eb 	mov.w	r9, #470	; 0x1d6
 8003644:	e9cd 3204 	strd	r3, r2, [sp, #16]
 8003648:	2346      	movs	r3, #70	; 0x46
 800364a:	e9cd 9302 	strd	r9, r3, [sp, #8]
 800364e:	2100      	movs	r1, #0
 8003650:	23ff      	movs	r3, #255	; 0xff
 8003652:	e9cd 3100 	strd	r3, r1, [sp]
 8003656:	2203      	movs	r2, #3
 8003658:	f9b5 3002 	ldrsh.w	r3, [r5, #2]
 800365c:	4851      	ldr	r0, [pc, #324]	; (80037a4 <Set_Screen+0x1ce0>)
 800365e:	f001 fe77 	bl	8005350 <Centred_DrawNumber_16_32bit_controled>
 8003662:	e9cd 780a 	strd	r7, r8, [sp, #40]	; 0x28
 8003666:	9609      	str	r6, [sp, #36]	; 0x24
 8003668:	6823      	ldr	r3, [r4, #0]
 800366a:	9308      	str	r3, [sp, #32]
 800366c:	f8db 3004 	ldr.w	r3, [fp, #4]
 8003670:	9307      	str	r3, [sp, #28]
 8003672:	f8da 3054 	ldr.w	r3, [sl, #84]	; 0x54
 8003676:	9306      	str	r3, [sp, #24]
 8003678:	f44f 71f0 	mov.w	r1, #480	; 0x1e0
 800367c:	f44f 7348 	mov.w	r3, #800	; 0x320
 8003680:	e9cd 3104 	strd	r3, r1, [sp, #16]
 8003684:	236e      	movs	r3, #110	; 0x6e
 8003686:	e9cd 9302 	strd	r9, r3, [sp, #8]
 800368a:	f44f 5016 	mov.w	r0, #9600	; 0x2580
 800368e:	f44f 33e1 	mov.w	r3, #115200	; 0x1c200
 8003692:	e9cd 3000 	strd	r3, r0, [sp]
 8003696:	2206      	movs	r2, #6
 8003698:	f9b5 3002 	ldrsh.w	r3, [r5, #2]
 800369c:	4842      	ldr	r0, [pc, #264]	; (80037a8 <Set_Screen+0x1ce4>)
 800369e:	2100      	movs	r1, #0
 80036a0:	f001 fe56 	bl	8005350 <Centred_DrawNumber_16_32bit_controled>
 80036a4:	e9cd 780a 	strd	r7, r8, [sp, #40]	; 0x28
 80036a8:	9609      	str	r6, [sp, #36]	; 0x24
 80036aa:	6823      	ldr	r3, [r4, #0]
 80036ac:	9308      	str	r3, [sp, #32]
 80036ae:	f8db 3008 	ldr.w	r3, [fp, #8]
 80036b2:	9307      	str	r3, [sp, #28]
 80036b4:	f8da 3054 	ldr.w	r3, [sl, #84]	; 0x54
 80036b8:	9306      	str	r3, [sp, #24]
 80036ba:	f44f 7cf0 	mov.w	ip, #480	; 0x1e0
 80036be:	f44f 7348 	mov.w	r3, #800	; 0x320
 80036c2:	e9cd 3c04 	strd	r3, ip, [sp, #16]
 80036c6:	2396      	movs	r3, #150	; 0x96
 80036c8:	e9cd 9302 	strd	r9, r3, [sp, #8]
 80036cc:	2201      	movs	r2, #1
 80036ce:	2302      	movs	r3, #2
 80036d0:	e9cd 3200 	strd	r3, r2, [sp]
 80036d4:	2100      	movs	r1, #0
 80036d6:	f9b5 3002 	ldrsh.w	r3, [r5, #2]
 80036da:	4834      	ldr	r0, [pc, #208]	; (80037ac <Set_Screen+0x1ce8>)
 80036dc:	f001 fe38 	bl	8005350 <Centred_DrawNumber_16_32bit_controled>
 80036e0:	e9cd 780a 	strd	r7, r8, [sp, #40]	; 0x28
 80036e4:	9609      	str	r6, [sp, #36]	; 0x24
 80036e6:	6823      	ldr	r3, [r4, #0]
 80036e8:	9308      	str	r3, [sp, #32]
 80036ea:	f8db 300c 	ldr.w	r3, [fp, #12]
 80036ee:	9307      	str	r3, [sp, #28]
 80036f0:	f8da 3054 	ldr.w	r3, [sl, #84]	; 0x54
 80036f4:	9306      	str	r3, [sp, #24]
 80036f6:	f44f 7ef0 	mov.w	lr, #480	; 0x1e0
 80036fa:	f44f 7348 	mov.w	r3, #800	; 0x320
 80036fe:	e9cd 3e04 	strd	r3, lr, [sp, #16]
 8003702:	23be      	movs	r3, #190	; 0xbe
 8003704:	e9cd 9302 	strd	r9, r3, [sp, #8]
 8003708:	220a      	movs	r2, #10
 800370a:	2364      	movs	r3, #100	; 0x64
 800370c:	e9cd 3200 	strd	r3, r2, [sp]
 8003710:	2100      	movs	r1, #0
 8003712:	f9b5 3002 	ldrsh.w	r3, [r5, #2]
 8003716:	4826      	ldr	r0, [pc, #152]	; (80037b0 <Set_Screen+0x1cec>)
 8003718:	2203      	movs	r2, #3
 800371a:	f001 fe19 	bl	8005350 <Centred_DrawNumber_16_32bit_controled>
 800371e:	e9cd 780a 	strd	r7, r8, [sp, #40]	; 0x28
 8003722:	9609      	str	r6, [sp, #36]	; 0x24
 8003724:	6823      	ldr	r3, [r4, #0]
 8003726:	9308      	str	r3, [sp, #32]
 8003728:	f8db 3010 	ldr.w	r3, [fp, #16]
 800372c:	9307      	str	r3, [sp, #28]
 800372e:	f8da 3054 	ldr.w	r3, [sl, #84]	; 0x54
 8003732:	9306      	str	r3, [sp, #24]
 8003734:	f44f 71f0 	mov.w	r1, #480	; 0x1e0
 8003738:	f44f 7348 	mov.w	r3, #800	; 0x320
 800373c:	e9cd 3104 	strd	r3, r1, [sp, #16]
 8003740:	23e6      	movs	r3, #230	; 0xe6
 8003742:	e9cd 9302 	strd	r9, r3, [sp, #8]
 8003746:	200a      	movs	r0, #10
 8003748:	2364      	movs	r3, #100	; 0x64
 800374a:	e9cd 3000 	strd	r3, r0, [sp]
 800374e:	2203      	movs	r2, #3
 8003750:	f9b5 3002 	ldrsh.w	r3, [r5, #2]
 8003754:	4817      	ldr	r0, [pc, #92]	; (80037b4 <Set_Screen+0x1cf0>)
 8003756:	2100      	movs	r1, #0
 8003758:	f001 fdfa 	bl	8005350 <Centred_DrawNumber_16_32bit_controled>
 800375c:	4b16      	ldr	r3, [pc, #88]	; (80037b8 <Set_Screen+0x1cf4>)
 800375e:	f8da 2054 	ldr.w	r2, [sl, #84]	; 0x54
 8003762:	681b      	ldr	r3, [r3, #0]
 8003764:	4815      	ldr	r0, [pc, #84]	; (80037bc <Set_Screen+0x1cf8>)
 8003766:	2105      	movs	r1, #5
 8003768:	80a9      	strh	r1, [r5, #4]
 800376a:	9202      	str	r2, [sp, #8]
 800376c:	6822      	ldr	r2, [r4, #0]
 800376e:	e9cd 3200 	strd	r3, r2, [sp]
 8003772:	236e      	movs	r3, #110	; 0x6e
 8003774:	f240 2249 	movw	r2, #585	; 0x249
 8003778:	f001 fb72 	bl	8004e60 <Short_Left_Colored_RU_DrawString_32>
 800377c:	f7fe bbd6 	b.w	8001f2c <Set_Screen+0x468>
 8003780:	20000230 	.word	0x20000230
 8003784:	080095af 	.word	0x080095af
 8003788:	0800bf68 	.word	0x0800bf68
 800378c:	20000234 	.word	0x20000234
 8003790:	080095c6 	.word	0x080095c6
 8003794:	080095e0 	.word	0x080095e0
 8003798:	080095fa 	.word	0x080095fa
 800379c:	0800961a 	.word	0x0800961a
 80037a0:	08009639 	.word	0x08009639
 80037a4:	200002d4 	.word	0x200002d4
 80037a8:	200002d8 	.word	0x200002d8
 80037ac:	200002dc 	.word	0x200002dc
 80037b0:	200002e8 	.word	0x200002e8
 80037b4:	200002ec 	.word	0x200002ec
 80037b8:	20000000 	.word	0x20000000
 80037bc:	0800965a 	.word	0x0800965a

080037c0 <TimedBitValue_handler>:
 80037c0:	7803      	ldrb	r3, [r0, #0]
 80037c2:	7841      	ldrb	r1, [r0, #1]
 80037c4:	2900      	cmp	r1, #0
 80037c6:	bf14      	ite	ne
 80037c8:	2200      	movne	r2, #0
 80037ca:	f003 0201 	andeq.w	r2, r3, #1
 80037ce:	b10a      	cbz	r2, 80037d4 <TimedBitValue_handler+0x14>
 80037d0:	8882      	ldrh	r2, [r0, #4]
 80037d2:	8042      	strh	r2, [r0, #2]
 80037d4:	7043      	strb	r3, [r0, #1]
 80037d6:	b123      	cbz	r3, 80037e2 <TimedBitValue_handler+0x22>
 80037d8:	8843      	ldrh	r3, [r0, #2]
 80037da:	b903      	cbnz	r3, 80037de <TimedBitValue_handler+0x1e>
 80037dc:	7003      	strb	r3, [r0, #0]
 80037de:	3b01      	subs	r3, #1
 80037e0:	b29b      	uxth	r3, r3
 80037e2:	8043      	strh	r3, [r0, #2]
 80037e4:	4770      	bx	lr
	...

080037e8 <MX_UART7_Init>:
 80037e8:	b508      	push	{r3, lr}
 80037ea:	4917      	ldr	r1, [pc, #92]	; (8003848 <MX_UART7_Init+0x60>)
 80037ec:	4b17      	ldr	r3, [pc, #92]	; (800384c <MX_UART7_Init+0x64>)
 80037ee:	4a18      	ldr	r2, [pc, #96]	; (8003850 <MX_UART7_Init+0x68>)
 80037f0:	601a      	str	r2, [r3, #0]
 80037f2:	684a      	ldr	r2, [r1, #4]
 80037f4:	605a      	str	r2, [r3, #4]
 80037f6:	68ca      	ldr	r2, [r1, #12]
 80037f8:	6889      	ldr	r1, [r1, #8]
 80037fa:	1e10      	subs	r0, r2, #0
 80037fc:	bf18      	it	ne
 80037fe:	2001      	movne	r0, #1
 8003800:	3901      	subs	r1, #1
 8003802:	bf18      	it	ne
 8003804:	2101      	movne	r1, #1
 8003806:	0300      	lsls	r0, r0, #12
 8003808:	0349      	lsls	r1, r1, #13
 800380a:	2a01      	cmp	r2, #1
 800380c:	6098      	str	r0, [r3, #8]
 800380e:	60d9      	str	r1, [r3, #12]
 8003810:	d00e      	beq.n	8003830 <MX_UART7_Init+0x48>
 8003812:	2a02      	cmp	r2, #2
 8003814:	d00f      	beq.n	8003836 <MX_UART7_Init+0x4e>
 8003816:	b902      	cbnz	r2, 800381a <MX_UART7_Init+0x32>
 8003818:	611a      	str	r2, [r3, #16]
 800381a:	2200      	movs	r2, #0
 800381c:	210c      	movs	r1, #12
 800381e:	480b      	ldr	r0, [pc, #44]	; (800384c <MX_UART7_Init+0x64>)
 8003820:	61da      	str	r2, [r3, #28]
 8003822:	e9c3 1205 	strd	r1, r2, [r3, #20]
 8003826:	f003 fe01 	bl	800742c <HAL_UART_Init>
 800382a:	b138      	cbz	r0, 800383c <MX_UART7_Init+0x54>
 800382c:	b672      	cpsid	i
 800382e:	e7fe      	b.n	800382e <MX_UART7_Init+0x46>
 8003830:	f44f 6280 	mov.w	r2, #1024	; 0x400
 8003834:	e7f0      	b.n	8003818 <MX_UART7_Init+0x30>
 8003836:	f44f 62c0 	mov.w	r2, #1536	; 0x600
 800383a:	e7ed      	b.n	8003818 <MX_UART7_Init+0x30>
 800383c:	4a04      	ldr	r2, [pc, #16]	; (8003850 <MX_UART7_Init+0x68>)
 800383e:	68d3      	ldr	r3, [r2, #12]
 8003840:	f043 0320 	orr.w	r3, r3, #32
 8003844:	60d3      	str	r3, [r2, #12]
 8003846:	bd08      	pop	{r3, pc}
 8003848:	200002d4 	.word	0x200002d4
 800384c:	20000b28 	.word	0x20000b28
 8003850:	40007800 	.word	0x40007800

08003854 <SystemClock_Config>:
 8003854:	b510      	push	{r4, lr}
 8003856:	b094      	sub	sp, #80	; 0x50
 8003858:	2210      	movs	r2, #16
 800385a:	2100      	movs	r1, #0
 800385c:	a80a      	add	r0, sp, #40	; 0x28
 800385e:	f004 f8c9 	bl	80079f4 <memset>
 8003862:	2214      	movs	r2, #20
 8003864:	2100      	movs	r1, #0
 8003866:	a803      	add	r0, sp, #12
 8003868:	f004 f8c4 	bl	80079f4 <memset>
 800386c:	4b22      	ldr	r3, [pc, #136]	; (80038f8 <SystemClock_Config+0xa4>)
 800386e:	2100      	movs	r1, #0
 8003870:	9101      	str	r1, [sp, #4]
 8003872:	6c1a      	ldr	r2, [r3, #64]	; 0x40
 8003874:	f042 5280 	orr.w	r2, r2, #268435456	; 0x10000000
 8003878:	641a      	str	r2, [r3, #64]	; 0x40
 800387a:	6c1b      	ldr	r3, [r3, #64]	; 0x40
 800387c:	f003 5380 	and.w	r3, r3, #268435456	; 0x10000000
 8003880:	9301      	str	r3, [sp, #4]
 8003882:	9b01      	ldr	r3, [sp, #4]
 8003884:	4b1d      	ldr	r3, [pc, #116]	; (80038fc <SystemClock_Config+0xa8>)
 8003886:	9102      	str	r1, [sp, #8]
 8003888:	681a      	ldr	r2, [r3, #0]
 800388a:	f442 4240 	orr.w	r2, r2, #49152	; 0xc000
 800388e:	601a      	str	r2, [r3, #0]
 8003890:	681b      	ldr	r3, [r3, #0]
 8003892:	f403 4340 	and.w	r3, r3, #49152	; 0xc000
 8003896:	9302      	str	r3, [sp, #8]
 8003898:	9b02      	ldr	r3, [sp, #8]
 800389a:	2101      	movs	r1, #1
 800389c:	f44f 3380 	mov.w	r3, #65536	; 0x10000
 80038a0:	2402      	movs	r4, #2
 80038a2:	e9cd 1308 	strd	r1, r3, [sp, #32]
 80038a6:	f44f 0380 	mov.w	r3, #4194304	; 0x400000
 80038aa:	e9cd 430e 	strd	r4, r3, [sp, #56]	; 0x38
 80038ae:	22b4      	movs	r2, #180	; 0xb4
 80038b0:	2304      	movs	r3, #4
 80038b2:	a808      	add	r0, sp, #32
 80038b4:	e9cd 3210 	strd	r3, r2, [sp, #64]	; 0x40
 80038b8:	e9cd 4312 	strd	r4, r3, [sp, #72]	; 0x48
 80038bc:	f002 fcbc 	bl	8006238 <HAL_RCC_OscConfig>
 80038c0:	b108      	cbz	r0, 80038c6 <SystemClock_Config+0x72>
 80038c2:	b672      	cpsid	i
 80038c4:	e7fe      	b.n	80038c4 <SystemClock_Config+0x70>
 80038c6:	f002 fc7d 	bl	80061c4 <HAL_PWREx_EnableOverDrive>
 80038ca:	b108      	cbz	r0, 80038d0 <SystemClock_Config+0x7c>
 80038cc:	b672      	cpsid	i
 80038ce:	e7fe      	b.n	80038ce <SystemClock_Config+0x7a>
 80038d0:	230f      	movs	r3, #15
 80038d2:	e9cd 3403 	strd	r3, r4, [sp, #12]
 80038d6:	9005      	str	r0, [sp, #20]
 80038d8:	f44f 52a0 	mov.w	r2, #5120	; 0x1400
 80038dc:	f44f 5380 	mov.w	r3, #4096	; 0x1000
 80038e0:	2105      	movs	r1, #5
 80038e2:	a803      	add	r0, sp, #12
 80038e4:	e9cd 2306 	strd	r2, r3, [sp, #24]
 80038e8:	f002 fe80 	bl	80065ec <HAL_RCC_ClockConfig>
 80038ec:	b108      	cbz	r0, 80038f2 <SystemClock_Config+0x9e>
 80038ee:	b672      	cpsid	i
 80038f0:	e7fe      	b.n	80038f0 <SystemClock_Config+0x9c>
 80038f2:	b014      	add	sp, #80	; 0x50
 80038f4:	bd10      	pop	{r4, pc}
 80038f6:	bf00      	nop
 80038f8:	40023800 	.word	0x40023800
 80038fc:	40007000 	.word	0x40007000

08003900 <BSP_SDRAM_Initialization_Sequence>:
 8003900:	e92d 41f3 	stmdb	sp!, {r0, r1, r4, r5, r6, r7, r8, lr}
 8003904:	2601      	movs	r6, #1
 8003906:	f04f 0800 	mov.w	r8, #0
 800390a:	2710      	movs	r7, #16
 800390c:	e9c1 6700 	strd	r6, r7, [r1]
 8003910:	e9c1 6802 	strd	r6, r8, [r1, #8]
 8003914:	f64f 72ff 	movw	r2, #65535	; 0xffff
 8003918:	460c      	mov	r4, r1
 800391a:	4605      	mov	r5, r0
 800391c:	f8cd 8004 	str.w	r8, [sp, #4]
 8003920:	f003 f868 	bl	80069f4 <HAL_SDRAM_SendCommand>
 8003924:	4630      	mov	r0, r6
 8003926:	f001 ff8b 	bl	8005840 <HAL_Delay>
 800392a:	2302      	movs	r3, #2
 800392c:	e9c4 3700 	strd	r3, r7, [r4]
 8003930:	4621      	mov	r1, r4
 8003932:	e9c4 6802 	strd	r6, r8, [r4, #8]
 8003936:	f64f 72ff 	movw	r2, #65535	; 0xffff
 800393a:	4628      	mov	r0, r5
 800393c:	f003 f85a 	bl	80069f4 <HAL_SDRAM_SendCommand>
 8003940:	2303      	movs	r3, #3
 8003942:	e9c4 3700 	strd	r3, r7, [r4]
 8003946:	2308      	movs	r3, #8
 8003948:	e9c4 3802 	strd	r3, r8, [r4, #8]
 800394c:	4621      	mov	r1, r4
 800394e:	f64f 72ff 	movw	r2, #65535	; 0xffff
 8003952:	4628      	mov	r0, r5
 8003954:	f003 f84e 	bl	80069f4 <HAL_SDRAM_SendCommand>
 8003958:	f44f 7308 	mov.w	r3, #544	; 0x220
 800395c:	9301      	str	r3, [sp, #4]
 800395e:	2304      	movs	r3, #4
 8003960:	e9c4 3700 	strd	r3, r7, [r4]
 8003964:	9b01      	ldr	r3, [sp, #4]
 8003966:	60e3      	str	r3, [r4, #12]
 8003968:	60a6      	str	r6, [r4, #8]
 800396a:	f64f 72ff 	movw	r2, #65535	; 0xffff
 800396e:	4621      	mov	r1, r4
 8003970:	4628      	mov	r0, r5
 8003972:	f003 f83f 	bl	80069f4 <HAL_SDRAM_SendCommand>
 8003976:	682b      	ldr	r3, [r5, #0]
 8003978:	f240 72c6 	movw	r2, #1990	; 0x7c6
 800397c:	615a      	str	r2, [r3, #20]
 800397e:	b002      	add	sp, #8
 8003980:	e8bd 81f0 	ldmia.w	sp!, {r4, r5, r6, r7, r8, pc}

08003984 <main>:
 8003984:	e92d 4ff0 	stmdb	sp!, {r4, r5, r6, r7, r8, r9, sl, fp, lr}
 8003988:	4ba1      	ldr	r3, [pc, #644]	; (8003c10 <main+0x28c>)
 800398a:	4ea2      	ldr	r6, [pc, #648]	; (8003c14 <main+0x290>)
 800398c:	4da2      	ldr	r5, [pc, #648]	; (8003c18 <main+0x294>)
 800398e:	f04f 0c00 	mov.w	ip, #0
 8003992:	f240 42d2 	movw	r2, #1234	; 0x4d2
 8003996:	ed2d 8b02 	vpush	{d8}
 800399a:	e9c3 c200 	strd	ip, r2, [r3]
 800399e:	f640 720a 	movw	r2, #3850	; 0xf0a
 80039a2:	60da      	str	r2, [r3, #12]
 80039a4:	4b9d      	ldr	r3, [pc, #628]	; (8003c1c <main+0x298>)
 80039a6:	2205      	movs	r2, #5
 80039a8:	e9c3 2200 	strd	r2, r2, [r3]
 80039ac:	609a      	str	r2, [r3, #8]
 80039ae:	2701      	movs	r7, #1
 80039b0:	220f      	movs	r2, #15
 80039b2:	e9c3 7204 	strd	r7, r2, [r3, #16]
 80039b6:	60df      	str	r7, [r3, #12]
 80039b8:	ce0f      	ldmia	r6!, {r0, r1, r2, r3}
 80039ba:	462c      	mov	r4, r5
 80039bc:	c40f      	stmia	r4!, {r0, r1, r2, r3}
 80039be:	e896 0007 	ldmia.w	r6, {r0, r1, r2}
 80039c2:	682b      	ldr	r3, [r5, #0]
 80039c4:	f8c5 c00c 	str.w	ip, [r5, #12]
 80039c8:	3301      	adds	r3, #1
 80039ca:	e884 0007 	stmia.w	r4, {r0, r1, r2}
 80039ce:	b09f      	sub	sp, #124	; 0x7c
 80039d0:	f885 c010 	strb.w	ip, [r5, #16]
 80039d4:	d107      	bne.n	80039e6 <main+0x62>
 80039d6:	f44f 33e1 	mov.w	r3, #115200	; 0x1c200
 80039da:	e9c5 3701 	strd	r3, r7, [r5, #4]
 80039de:	2364      	movs	r3, #100	; 0x64
 80039e0:	e9c5 3305 	strd	r3, r3, [r5, #20]
 80039e4:	602f      	str	r7, [r5, #0]
 80039e6:	4f8e      	ldr	r7, [pc, #568]	; (8003c20 <main+0x29c>)
 80039e8:	4b8e      	ldr	r3, [pc, #568]	; (8003c24 <main+0x2a0>)
 80039ea:	603b      	str	r3, [r7, #0]
 80039ec:	2400      	movs	r4, #0
 80039ee:	782b      	ldrb	r3, [r5, #0]
 80039f0:	713b      	strb	r3, [r7, #4]
 80039f2:	f04f 0a02 	mov.w	sl, #2
 80039f6:	81fc      	strh	r4, [r7, #14]
 80039f8:	f8a7 a616 	strh.w	sl, [r7, #1558]	; 0x616
 80039fc:	f001 fef4 	bl	80057e8 <HAL_Init>
 8003a00:	f7ff ff28 	bl	8003854 <SystemClock_Config>
 8003a04:	2214      	movs	r2, #20
 8003a06:	4621      	mov	r1, r4
 8003a08:	a811      	add	r0, sp, #68	; 0x44
 8003a0a:	f003 fff3 	bl	80079f4 <memset>
 8003a0e:	4b86      	ldr	r3, [pc, #536]	; (8003c28 <main+0x2a4>)
 8003a10:	9400      	str	r4, [sp, #0]
 8003a12:	6b1a      	ldr	r2, [r3, #48]	; 0x30
 8003a14:	4885      	ldr	r0, [pc, #532]	; (8003c2c <main+0x2a8>)
 8003a16:	f042 0210 	orr.w	r2, r2, #16
 8003a1a:	631a      	str	r2, [r3, #48]	; 0x30
 8003a1c:	6b1a      	ldr	r2, [r3, #48]	; 0x30
 8003a1e:	f002 0210 	and.w	r2, r2, #16
 8003a22:	9200      	str	r2, [sp, #0]
 8003a24:	9a00      	ldr	r2, [sp, #0]
 8003a26:	9401      	str	r4, [sp, #4]
 8003a28:	6b1a      	ldr	r2, [r3, #48]	; 0x30
 8003a2a:	f442 7280 	orr.w	r2, r2, #256	; 0x100
 8003a2e:	631a      	str	r2, [r3, #48]	; 0x30
 8003a30:	6b1a      	ldr	r2, [r3, #48]	; 0x30
 8003a32:	f402 7280 	and.w	r2, r2, #256	; 0x100
 8003a36:	9201      	str	r2, [sp, #4]
 8003a38:	9a01      	ldr	r2, [sp, #4]
 8003a3a:	9402      	str	r4, [sp, #8]
 8003a3c:	6b1a      	ldr	r2, [r3, #48]	; 0x30
 8003a3e:	f042 0220 	orr.w	r2, r2, #32
 8003a42:	631a      	str	r2, [r3, #48]	; 0x30
 8003a44:	6b1a      	ldr	r2, [r3, #48]	; 0x30
 8003a46:	f002 0220 	and.w	r2, r2, #32
 8003a4a:	9202      	str	r2, [sp, #8]
 8003a4c:	9a02      	ldr	r2, [sp, #8]
 8003a4e:	9403      	str	r4, [sp, #12]
 8003a50:	6b1a      	ldr	r2, [r3, #48]	; 0x30
 8003a52:	f042 0280 	orr.w	r2, r2, #128	; 0x80
 8003a56:	631a      	str	r2, [r3, #48]	; 0x30
 8003a58:	6b1a      	ldr	r2, [r3, #48]	; 0x30
 8003a5a:	f002 0280 	and.w	r2, r2, #128	; 0x80
 8003a5e:	9203      	str	r2, [sp, #12]
 8003a60:	9a03      	ldr	r2, [sp, #12]
 8003a62:	9404      	str	r4, [sp, #16]
 8003a64:	6b1a      	ldr	r2, [r3, #48]	; 0x30
 8003a66:	f042 0204 	orr.w	r2, r2, #4
 8003a6a:	631a      	str	r2, [r3, #48]	; 0x30
 8003a6c:	6b1a      	ldr	r2, [r3, #48]	; 0x30
 8003a6e:	f002 0204 	and.w	r2, r2, #4
 8003a72:	9204      	str	r2, [sp, #16]
 8003a74:	9a04      	ldr	r2, [sp, #16]
 8003a76:	9405      	str	r4, [sp, #20]
 8003a78:	6b1a      	ldr	r2, [r3, #48]	; 0x30
 8003a7a:	f042 0201 	orr.w	r2, r2, #1
 8003a7e:	631a      	str	r2, [r3, #48]	; 0x30
 8003a80:	6b1a      	ldr	r2, [r3, #48]	; 0x30
 8003a82:	f002 0201 	and.w	r2, r2, #1
 8003a86:	9205      	str	r2, [sp, #20]
 8003a88:	9a05      	ldr	r2, [sp, #20]
 8003a8a:	9406      	str	r4, [sp, #24]
 8003a8c:	6b1a      	ldr	r2, [r3, #48]	; 0x30
 8003a8e:	ea42 020a 	orr.w	r2, r2, sl
 8003a92:	631a      	str	r2, [r3, #48]	; 0x30
 8003a94:	6b1a      	ldr	r2, [r3, #48]	; 0x30
 8003a96:	ea02 020a 	and.w	r2, r2, sl
 8003a9a:	9206      	str	r2, [sp, #24]
 8003a9c:	9a06      	ldr	r2, [sp, #24]
 8003a9e:	9407      	str	r4, [sp, #28]
 8003aa0:	6b1a      	ldr	r2, [r3, #48]	; 0x30
 8003aa2:	f442 7200 	orr.w	r2, r2, #512	; 0x200
 8003aa6:	631a      	str	r2, [r3, #48]	; 0x30
 8003aa8:	6b1a      	ldr	r2, [r3, #48]	; 0x30
 8003aaa:	f402 7200 	and.w	r2, r2, #512	; 0x200
 8003aae:	9207      	str	r2, [sp, #28]
 8003ab0:	9a07      	ldr	r2, [sp, #28]
 8003ab2:	9408      	str	r4, [sp, #32]
 8003ab4:	6b1a      	ldr	r2, [r3, #48]	; 0x30
 8003ab6:	f042 0240 	orr.w	r2, r2, #64	; 0x40
 8003aba:	631a      	str	r2, [r3, #48]	; 0x30
 8003abc:	6b1a      	ldr	r2, [r3, #48]	; 0x30
 8003abe:	f002 0240 	and.w	r2, r2, #64	; 0x40
 8003ac2:	9208      	str	r2, [sp, #32]
 8003ac4:	9a08      	ldr	r2, [sp, #32]
 8003ac6:	9409      	str	r4, [sp, #36]	; 0x24
 8003ac8:	6b1a      	ldr	r2, [r3, #48]	; 0x30
 8003aca:	f042 0208 	orr.w	r2, r2, #8
 8003ace:	631a      	str	r2, [r3, #48]	; 0x30
 8003ad0:	6b1a      	ldr	r2, [r3, #48]	; 0x30
 8003ad2:	f002 0208 	and.w	r2, r2, #8
 8003ad6:	9209      	str	r2, [sp, #36]	; 0x24
 8003ad8:	9a09      	ldr	r2, [sp, #36]	; 0x24
 8003ada:	940a      	str	r4, [sp, #40]	; 0x28
 8003adc:	6b1a      	ldr	r2, [r3, #48]	; 0x30
 8003ade:	f442 6280 	orr.w	r2, r2, #1024	; 0x400
 8003ae2:	631a      	str	r2, [r3, #48]	; 0x30
 8003ae4:	6b1b      	ldr	r3, [r3, #48]	; 0x30
 8003ae6:	f403 6380 	and.w	r3, r3, #1024	; 0x400
 8003aea:	4622      	mov	r2, r4
 8003aec:	2108      	movs	r1, #8
 8003aee:	930a      	str	r3, [sp, #40]	; 0x28
 8003af0:	9b0a      	ldr	r3, [sp, #40]	; 0x28
 8003af2:	f002 fa25 	bl	8005f40 <HAL_GPIO_WritePin>
 8003af6:	484e      	ldr	r0, [pc, #312]	; (8003c30 <main+0x2ac>)
 8003af8:	4622      	mov	r2, r4
 8003afa:	f44f 7180 	mov.w	r1, #256	; 0x100
 8003afe:	f002 fa1f 	bl	8005f40 <HAL_GPIO_WritePin>
 8003b02:	2201      	movs	r2, #1
 8003b04:	484b      	ldr	r0, [pc, #300]	; (8003c34 <main+0x2b0>)
 8003b06:	2110      	movs	r1, #16
 8003b08:	f002 fa1a 	bl	8005f40 <HAL_GPIO_WritePin>
 8003b0c:	2601      	movs	r6, #1
 8003b0e:	4847      	ldr	r0, [pc, #284]	; (8003c2c <main+0x2a8>)
 8003b10:	a911      	add	r1, sp, #68	; 0x44
 8003b12:	f04f 0b08 	mov.w	fp, #8
 8003b16:	e9cd b611 	strd	fp, r6, [sp, #68]	; 0x44
 8003b1a:	e9cd 4413 	strd	r4, r4, [sp, #76]	; 0x4c
 8003b1e:	f44f 7980 	mov.w	r9, #256	; 0x100
 8003b22:	f002 f921 	bl	8005d68 <HAL_GPIO_Init>
 8003b26:	2303      	movs	r3, #3
 8003b28:	4841      	ldr	r0, [pc, #260]	; (8003c30 <main+0x2ac>)
 8003b2a:	9314      	str	r3, [sp, #80]	; 0x50
 8003b2c:	a911      	add	r1, sp, #68	; 0x44
 8003b2e:	e9cd 9611 	strd	r9, r6, [sp, #68]	; 0x44
 8003b32:	9413      	str	r4, [sp, #76]	; 0x4c
 8003b34:	f04f 0810 	mov.w	r8, #16
 8003b38:	f002 f916 	bl	8005d68 <HAL_GPIO_Init>
 8003b3c:	2303      	movs	r3, #3
 8003b3e:	483d      	ldr	r0, [pc, #244]	; (8003c34 <main+0x2b0>)
 8003b40:	9314      	str	r3, [sp, #80]	; 0x50
 8003b42:	a911      	add	r1, sp, #68	; 0x44
 8003b44:	e9cd 8611 	strd	r8, r6, [sp, #68]	; 0x44
 8003b48:	9613      	str	r6, [sp, #76]	; 0x4c
 8003b4a:	f002 f90d 	bl	8005d68 <HAL_GPIO_Init>
 8003b4e:	2320      	movs	r3, #32
 8003b50:	4839      	ldr	r0, [pc, #228]	; (8003c38 <main+0x2b4>)
 8003b52:	9613      	str	r6, [sp, #76]	; 0x4c
 8003b54:	a911      	add	r1, sp, #68	; 0x44
 8003b56:	e9cd 3411 	strd	r3, r4, [sp, #68]	; 0x44
 8003b5a:	f002 f905 	bl	8005d68 <HAL_GPIO_Init>
 8003b5e:	f64f 73c0 	movw	r3, #65472	; 0xffc0
 8003b62:	4836      	ldr	r0, [pc, #216]	; (8003c3c <main+0x2b8>)
 8003b64:	9613      	str	r6, [sp, #76]	; 0x4c
 8003b66:	a911      	add	r1, sp, #68	; 0x44
 8003b68:	e9cd 3411 	strd	r3, r4, [sp, #68]	; 0x44
 8003b6c:	f002 f8fc 	bl	8005d68 <HAL_GPIO_Init>
 8003b70:	f44f 7370 	mov.w	r3, #960	; 0x3c0
 8003b74:	4832      	ldr	r0, [pc, #200]	; (8003c40 <main+0x2bc>)
 8003b76:	9613      	str	r6, [sp, #76]	; 0x4c
 8003b78:	a911      	add	r1, sp, #68	; 0x44
 8003b7a:	e9cd 3411 	strd	r3, r4, [sp, #68]	; 0x44
 8003b7e:	f002 f8f3 	bl	8005d68 <HAL_GPIO_Init>
 8003b82:	4830      	ldr	r0, [pc, #192]	; (8003c44 <main+0x2c0>)
 8003b84:	9613      	str	r6, [sp, #76]	; 0x4c
 8003b86:	a911      	add	r1, sp, #68	; 0x44
 8003b88:	e9cd 6411 	strd	r6, r4, [sp, #68]	; 0x44
 8003b8c:	f002 f8ec 	bl	8005d68 <HAL_GPIO_Init>
 8003b90:	4b2d      	ldr	r3, [pc, #180]	; (8003c48 <main+0x2c4>)
 8003b92:	4a2e      	ldr	r2, [pc, #184]	; (8003c4c <main+0x2c8>)
 8003b94:	e9c3 460a 	strd	r4, r6, [r3, #40]	; 0x28
 8003b98:	e9c3 440c 	strd	r4, r4, [r3, #48]	; 0x30
 8003b9c:	4618      	mov	r0, r3
 8003b9e:	e9c3 2400 	strd	r2, r4, [r3]
 8003ba2:	e9c3 6402 	strd	r6, r4, [r3, #8]
 8003ba6:	f001 ff16 	bl	80059d6 <HAL_DMA2D_Init>
 8003baa:	4b27      	ldr	r3, [pc, #156]	; (8003c48 <main+0x2c4>)
 8003bac:	b108      	cbz	r0, 8003bb2 <main+0x22e>
 8003bae:	b672      	cpsid	i
 8003bb0:	e7fe      	b.n	8003bb0 <main+0x22c>
 8003bb2:	4631      	mov	r1, r6
 8003bb4:	4618      	mov	r0, r3
 8003bb6:	f001 ff3b 	bl	8005a30 <HAL_DMA2D_ConfigLayer>
 8003bba:	b108      	cbz	r0, 8003bc0 <main+0x23c>
 8003bbc:	b672      	cpsid	i
 8003bbe:	e7fe      	b.n	8003bbe <main+0x23a>
 8003bc0:	4b23      	ldr	r3, [pc, #140]	; (8003c50 <main+0x2cc>)
 8003bc2:	4a24      	ldr	r2, [pc, #144]	; (8003c54 <main+0x2d0>)
 8003bc4:	61d8      	str	r0, [r3, #28]
 8003bc6:	e9c3 2000 	strd	r2, r0, [r3]
 8003bca:	2240      	movs	r2, #64	; 0x40
 8003bcc:	e9c3 2905 	strd	r2, r9, [r3, #20]
 8003bd0:	f44f 6200 	mov.w	r2, #2048	; 0x800
 8003bd4:	f44f 5980 	mov.w	r9, #4096	; 0x1000
 8003bd8:	e9c3 2908 	strd	r2, r9, [r3, #32]
 8003bdc:	f44f 4280 	mov.w	r2, #16384	; 0x4000
 8003be0:	629a      	str	r2, [r3, #40]	; 0x28
 8003be2:	2205      	movs	r2, #5
 8003be4:	e9cd 2b13 	strd	r2, fp, [sp, #76]	; 0x4c
 8003be8:	a911      	add	r1, sp, #68	; 0x44
 8003bea:	2204      	movs	r2, #4
 8003bec:	4618      	mov	r0, r3
 8003bee:	e9cd ab11 	strd	sl, fp, [sp, #68]	; 0x44
 8003bf2:	e9cd 2a15 	strd	r2, sl, [sp, #84]	; 0x54
 8003bf6:	f8cd a05c 	str.w	sl, [sp, #92]	; 0x5c
 8003bfa:	e9c3 6b02 	strd	r6, fp, [r3, #8]
 8003bfe:	f8c3 8010 	str.w	r8, [r3, #16]
 8003c02:	f002 fed7 	bl	80069b4 <HAL_SDRAM_Init>
 8003c06:	4682      	mov	sl, r0
 8003c08:	b330      	cbz	r0, 8003c58 <main+0x2d4>
 8003c0a:	b672      	cpsid	i
 8003c0c:	e7fe      	b.n	8003c0c <main+0x288>
 8003c0e:	bf00      	nop
 8003c10:	200002c0 	.word	0x200002c0
 8003c14:	08060000 	.word	0x08060000
 8003c18:	200002d4 	.word	0x200002d4
 8003c1c:	200001d0 	.word	0x200001d0
 8003c20:	200002f0 	.word	0x200002f0
 8003c24:	40007800 	.word	0x40007800
 8003c28:	40023800 	.word	0x40023800
 8003c2c:	40021000 	.word	0x40021000
 8003c30:	40021400 	.word	0x40021400
 8003c34:	40020000 	.word	0x40020000
 8003c38:	40022400 	.word	0x40022400
 8003c3c:	40021c00 	.word	0x40021c00
 8003c40:	40020800 	.word	0x40020800
 8003c44:	40022000 	.word	0x40022000
 8003c48:	20000924 	.word	0x20000924
 8003c4c:	4002b000 	.word	0x4002b000
 8003c50:	20000a0c 	.word	0x20000a0c
 8003c54:	a0000140 	.word	0xa0000140
 8003c58:	2234      	movs	r2, #52	; 0x34
 8003c5a:	4601      	mov	r1, r0
 8003c5c:	a811      	add	r0, sp, #68	; 0x44
 8003c5e:	f003 fec9 	bl	80079f4 <memset>
 8003c62:	4c6e      	ldr	r4, [pc, #440]	; (8003e1c <main+0x498>)
 8003c64:	4b6e      	ldr	r3, [pc, #440]	; (8003e20 <main+0x49c>)
 8003c66:	f8a4 a034 	strh.w	sl, [r4, #52]	; 0x34
 8003c6a:	e9c4 3a00 	strd	r3, sl, [r4]
 8003c6e:	232f      	movs	r3, #47	; 0x2f
 8003c70:	e9c4 3a05 	strd	r3, sl, [r4, #20]
 8003c74:	f04f 0c57 	mov.w	ip, #87	; 0x57
 8003c78:	231f      	movs	r3, #31
 8003c7a:	e9c4 c307 	strd	ip, r3, [r4, #28]
 8003c7e:	f240 3e77 	movw	lr, #887	; 0x377
 8003c82:	f240 13ff 	movw	r3, #511	; 0x1ff
 8003c86:	e9c4 e309 	strd	lr, r3, [r4, #36]	; 0x24
 8003c8a:	f240 3b9f 	movw	fp, #927	; 0x39f
 8003c8e:	f44f 7303 	mov.w	r3, #524	; 0x20c
 8003c92:	4620      	mov	r0, r4
 8003c94:	e9c4 aa02 	strd	sl, sl, [r4, #8]
 8003c98:	e9c4 b30b 	strd	fp, r3, [r4, #44]	; 0x2c
 8003c9c:	f8c4 a010 	str.w	sl, [r4, #16]
 8003ca0:	f884 a036 	strb.w	sl, [r4, #54]	; 0x36
 8003ca4:	f002 f9d4 	bl	8006050 <HAL_LTDC_Init>
 8003ca8:	4602      	mov	r2, r0
 8003caa:	b108      	cbz	r0, 8003cb0 <main+0x32c>
 8003cac:	b672      	cpsid	i
 8003cae:	e7fe      	b.n	8003cae <main+0x32a>
 8003cb0:	f44f 7148 	mov.w	r1, #800	; 0x320
 8003cb4:	e9cd 1012 	strd	r1, r0, [sp, #72]	; 0x48
 8003cb8:	f44f 73f0 	mov.w	r3, #480	; 0x1e0
 8003cbc:	9011      	str	r0, [sp, #68]	; 0x44
 8003cbe:	20ff      	movs	r0, #255	; 0xff
 8003cc0:	e9cd 3614 	strd	r3, r6, [sp, #80]	; 0x50
 8003cc4:	e9cd 0216 	strd	r0, r2, [sp, #88]	; 0x58
 8003cc8:	f44f 66c0 	mov.w	r6, #1536	; 0x600
 8003ccc:	2007      	movs	r0, #7
 8003cce:	e9cd 6018 	strd	r6, r0, [sp, #96]	; 0x60
 8003cd2:	f04f 4040 	mov.w	r0, #3221225472	; 0xc0000000
 8003cd6:	e9cd 011a 	strd	r0, r1, [sp, #104]	; 0x68
 8003cda:	a911      	add	r1, sp, #68	; 0x44
 8003cdc:	4620      	mov	r0, r4
 8003cde:	931c      	str	r3, [sp, #112]	; 0x70
 8003ce0:	f8ad 2074 	strh.w	r2, [sp, #116]	; 0x74
 8003ce4:	f88d 2076 	strb.w	r2, [sp, #118]	; 0x76
 8003ce8:	f002 fa1e 	bl	8006128 <HAL_LTDC_ConfigLayer>
 8003cec:	b108      	cbz	r0, 8003cf2 <main+0x36e>
 8003cee:	b672      	cpsid	i
 8003cf0:	e7fe      	b.n	8003cf0 <main+0x36c>
 8003cf2:	4b4c      	ldr	r3, [pc, #304]	; (8003e24 <main+0x4a0>)
 8003cf4:	494c      	ldr	r1, [pc, #304]	; (8003e28 <main+0x4a4>)
 8003cf6:	6298      	str	r0, [r3, #40]	; 0x28
 8003cf8:	f44f 7282 	mov.w	r2, #260	; 0x104
 8003cfc:	e9c3 1200 	strd	r1, r2, [r3]
 8003d00:	f44f 7400 	mov.w	r4, #512	; 0x200
 8003d04:	2218      	movs	r2, #24
 8003d06:	e9c3 4206 	strd	r4, r2, [r3, #24]
 8003d0a:	e9c3 0002 	strd	r0, r0, [r3, #8]
 8003d0e:	e9c3 0004 	strd	r0, r0, [r3, #16]
 8003d12:	e9c3 0008 	strd	r0, r0, [r3, #32]
 8003d16:	220a      	movs	r2, #10
 8003d18:	4618      	mov	r0, r3
 8003d1a:	62da      	str	r2, [r3, #44]	; 0x2c
 8003d1c:	f002 fe88 	bl	8006a30 <HAL_SPI_Init>
 8003d20:	4604      	mov	r4, r0
 8003d22:	b108      	cbz	r0, 8003d28 <main+0x3a4>
 8003d24:	b672      	cpsid	i
 8003d26:	e7fe      	b.n	8003d26 <main+0x3a2>
 8003d28:	f7ff fd5e 	bl	80037e8 <MX_UART7_Init>
 8003d2c:	4642      	mov	r2, r8
 8003d2e:	4621      	mov	r1, r4
 8003d30:	a80d      	add	r0, sp, #52	; 0x34
 8003d32:	f003 fe5f 	bl	80079f4 <memset>
 8003d36:	221c      	movs	r2, #28
 8003d38:	4621      	mov	r1, r4
 8003d3a:	a811      	add	r0, sp, #68	; 0x44
 8003d3c:	4e3b      	ldr	r6, [pc, #236]	; (8003e2c <main+0x4a8>)
 8003d3e:	e9cd 440b 	strd	r4, r4, [sp, #44]	; 0x2c
 8003d42:	f003 fe57 	bl	80079f4 <memset>
 8003d46:	4b3a      	ldr	r3, [pc, #232]	; (8003e30 <main+0x4ac>)
 8003d48:	60b4      	str	r4, [r6, #8]
 8003d4a:	e9c6 3400 	strd	r3, r4, [r6]
 8003d4e:	4630      	mov	r0, r6
 8003d50:	f242 7310 	movw	r3, #10000	; 0x2710
 8003d54:	e9c6 3403 	strd	r3, r4, [r6, #12]
 8003d58:	61b4      	str	r4, [r6, #24]
 8003d5a:	f003 f89b 	bl	8006e94 <HAL_TIM_Base_Init>
 8003d5e:	b108      	cbz	r0, 8003d64 <main+0x3e0>
 8003d60:	b672      	cpsid	i
 8003d62:	e7fe      	b.n	8003d62 <main+0x3de>
 8003d64:	a90d      	add	r1, sp, #52	; 0x34
 8003d66:	4630      	mov	r0, r6
 8003d68:	f8cd 9034 	str.w	r9, [sp, #52]	; 0x34
 8003d6c:	f003 f983 	bl	8007076 <HAL_TIM_ConfigClockSource>
 8003d70:	b108      	cbz	r0, 8003d76 <main+0x3f2>
 8003d72:	b672      	cpsid	i
 8003d74:	e7fe      	b.n	8003d74 <main+0x3f0>
 8003d76:	4630      	mov	r0, r6
 8003d78:	f003 f8b8 	bl	8006eec <HAL_TIM_PWM_Init>
 8003d7c:	b108      	cbz	r0, 8003d82 <main+0x3fe>
 8003d7e:	b672      	cpsid	i
 8003d80:	e7fe      	b.n	8003d80 <main+0x3fc>
 8003d82:	e9cd 000b 	strd	r0, r0, [sp, #44]	; 0x2c
 8003d86:	a90b      	add	r1, sp, #44	; 0x2c
 8003d88:	4630      	mov	r0, r6
 8003d8a:	f003 fa83 	bl	8007294 <HAL_TIMEx_MasterConfigSynchronization>
 8003d8e:	b108      	cbz	r0, 8003d94 <main+0x410>
 8003d90:	b672      	cpsid	i
 8003d92:	e7fe      	b.n	8003d92 <main+0x40e>
 8003d94:	2300      	movs	r3, #0
 8003d96:	2260      	movs	r2, #96	; 0x60
 8003d98:	e9cd 2311 	strd	r2, r3, [sp, #68]	; 0x44
 8003d9c:	4823      	ldr	r0, [pc, #140]	; (8003e2c <main+0x4a8>)
 8003d9e:	9313      	str	r3, [sp, #76]	; 0x4c
 8003da0:	2208      	movs	r2, #8
 8003da2:	a911      	add	r1, sp, #68	; 0x44
 8003da4:	9315      	str	r3, [sp, #84]	; 0x54
 8003da6:	f003 f903 	bl	8006fb0 <HAL_TIM_PWM_ConfigChannel>
 8003daa:	b108      	cbz	r0, 8003db0 <main+0x42c>
 8003dac:	b672      	cpsid	i
 8003dae:	e7fe      	b.n	8003dae <main+0x42a>
 8003db0:	481e      	ldr	r0, [pc, #120]	; (8003e2c <main+0x4a8>)
 8003db2:	220c      	movs	r2, #12
 8003db4:	a911      	add	r1, sp, #68	; 0x44
 8003db6:	f003 f8fb 	bl	8006fb0 <HAL_TIM_PWM_ConfigChannel>
 8003dba:	4606      	mov	r6, r0
 8003dbc:	b108      	cbz	r0, 8003dc2 <main+0x43e>
 8003dbe:	b672      	cpsid	i
 8003dc0:	e7fe      	b.n	8003dc0 <main+0x43c>
 8003dc2:	481a      	ldr	r0, [pc, #104]	; (8003e2c <main+0x4a8>)
 8003dc4:	4c1b      	ldr	r4, [pc, #108]	; (8003e34 <main+0x4b0>)
 8003dc6:	f000 fa57 	bl	8004278 <HAL_TIM_MspPostInit>
 8003dca:	2210      	movs	r2, #16
 8003dcc:	4631      	mov	r1, r6
 8003dce:	a811      	add	r0, sp, #68	; 0x44
 8003dd0:	f003 fe10 	bl	80079f4 <memset>
 8003dd4:	4b18      	ldr	r3, [pc, #96]	; (8003e38 <main+0x4b4>)
 8003dd6:	60a6      	str	r6, [r4, #8]
 8003dd8:	e9c4 3600 	strd	r3, r6, [r4]
 8003ddc:	4b17      	ldr	r3, [pc, #92]	; (8003e3c <main+0x4b8>)
 8003dde:	4620      	mov	r0, r4
 8003de0:	e9c4 3603 	strd	r3, r6, [r4, #12]
 8003de4:	2380      	movs	r3, #128	; 0x80
 8003de6:	e9cd 660d 	strd	r6, r6, [sp, #52]	; 0x34
 8003dea:	61a3      	str	r3, [r4, #24]
 8003dec:	f003 f852 	bl	8006e94 <HAL_TIM_Base_Init>
 8003df0:	b108      	cbz	r0, 8003df6 <main+0x472>
 8003df2:	b672      	cpsid	i
 8003df4:	e7fe      	b.n	8003df4 <main+0x470>
 8003df6:	f44f 5380 	mov.w	r3, #4096	; 0x1000
 8003dfa:	a911      	add	r1, sp, #68	; 0x44
 8003dfc:	4620      	mov	r0, r4
 8003dfe:	9311      	str	r3, [sp, #68]	; 0x44
 8003e00:	f003 f939 	bl	8007076 <HAL_TIM_ConfigClockSource>
 8003e04:	b108      	cbz	r0, 8003e0a <main+0x486>
 8003e06:	b672      	cpsid	i
 8003e08:	e7fe      	b.n	8003e08 <main+0x484>
 8003e0a:	e9cd 000d 	strd	r0, r0, [sp, #52]	; 0x34
 8003e0e:	a90d      	add	r1, sp, #52	; 0x34
 8003e10:	4620      	mov	r0, r4
 8003e12:	f003 fa3f 	bl	8007294 <HAL_TIMEx_MasterConfigSynchronization>
 8003e16:	b198      	cbz	r0, 8003e40 <main+0x4bc>
 8003e18:	b672      	cpsid	i
 8003e1a:	e7fe      	b.n	8003e1a <main+0x496>
 8003e1c:	20000964 	.word	0x20000964
 8003e20:	40016800 	.word	0x40016800
 8003e24:	20000a40 	.word	0x20000a40
 8003e28:	40013000 	.word	0x40013000
 8003e2c:	20000a98 	.word	0x20000a98
 8003e30:	40000800 	.word	0x40000800
 8003e34:	20000ae0 	.word	0x20000ae0
 8003e38:	40000c00 	.word	0x40000c00
 8003e3c:	00015f90 	.word	0x00015f90
 8003e40:	4b53      	ldr	r3, [pc, #332]	; (8003f90 <main+0x60c>)
 8003e42:	2108      	movs	r1, #8
 8003e44:	63d8      	str	r0, [r3, #60]	; 0x3c
 8003e46:	6418      	str	r0, [r3, #64]	; 0x40
 8003e48:	4852      	ldr	r0, [pc, #328]	; (8003f94 <main+0x610>)
 8003e4a:	f003 fa21 	bl	8007290 <HAL_TIM_PWM_Start>
 8003e4e:	210c      	movs	r1, #12
 8003e50:	4850      	ldr	r0, [pc, #320]	; (8003f94 <main+0x610>)
 8003e52:	f003 fa1d 	bl	8007290 <HAL_TIM_PWM_Start>
 8003e56:	4950      	ldr	r1, [pc, #320]	; (8003f98 <main+0x614>)
 8003e58:	4850      	ldr	r0, [pc, #320]	; (8003f9c <main+0x618>)
 8003e5a:	f7ff fd51 	bl	8003900 <BSP_SDRAM_Initialization_Sequence>
 8003e5e:	2164      	movs	r1, #100	; 0x64
 8003e60:	484f      	ldr	r0, [pc, #316]	; (8003fa0 <main+0x61c>)
 8003e62:	f001 fe3e 	bl	8005ae2 <HAL_DMA2D_ConfigDeadTime>
 8003e66:	484e      	ldr	r0, [pc, #312]	; (8003fa0 <main+0x61c>)
 8003e68:	f001 fe26 	bl	8005ab8 <HAL_DMA2D_EnableDeadTime>
 8003e6c:	4b4d      	ldr	r3, [pc, #308]	; (8003fa4 <main+0x620>)
 8003e6e:	f04f 4240 	mov.w	r2, #3221225472	; 0xc0000000
 8003e72:	601a      	str	r2, [r3, #0]
 8003e74:	2101      	movs	r1, #1
 8003e76:	681a      	ldr	r2, [r3, #0]
 8003e78:	3101      	adds	r1, #1
 8003e7a:	f502 128c 	add.w	r2, r2, #1146880	; 0x118000
 8003e7e:	f502 52a0 	add.w	r2, r2, #5120	; 0x1400
 8003e82:	291d      	cmp	r1, #29
 8003e84:	f843 2f04 	str.w	r2, [r3, #4]!
 8003e88:	d1f5      	bne.n	8003e76 <main+0x4f2>
 8003e8a:	f7fd f9b5 	bl	80011f8 <Screens_init>
 8003e8e:	4e46      	ldr	r6, [pc, #280]	; (8003fa8 <main+0x624>)
 8003e90:	4846      	ldr	r0, [pc, #280]	; (8003fac <main+0x628>)
 8003e92:	4c47      	ldr	r4, [pc, #284]	; (8003fb0 <main+0x62c>)
 8003e94:	f8df 9134 	ldr.w	r9, [pc, #308]	; 8003fcc <main+0x648>
 8003e98:	ed9f 8a46 	vldr	s16, [pc, #280]	; 8003fb4 <main+0x630>
 8003e9c:	f8df 80f0 	ldr.w	r8, [pc, #240]	; 8003f90 <main+0x60c>
 8003ea0:	2201      	movs	r2, #1
 8003ea2:	2108      	movs	r1, #8
 8003ea4:	f002 f84c 	bl	8005f40 <HAL_GPIO_WritePin>
 8003ea8:	2301      	movs	r3, #1
 8003eaa:	4843      	ldr	r0, [pc, #268]	; (8003fb8 <main+0x634>)
 8003eac:	7033      	strb	r3, [r6, #0]
 8003eae:	7023      	strb	r3, [r4, #0]
 8003eb0:	f002 fea8 	bl	8006c04 <HAL_TIM_Base_Start_IT>
 8003eb4:	4b41      	ldr	r3, [pc, #260]	; (8003fbc <main+0x638>)
 8003eb6:	f44f 727a 	mov.w	r2, #1000	; 0x3e8
 8003eba:	809a      	strh	r2, [r3, #4]
 8003ebc:	815a      	strh	r2, [r3, #10]
 8003ebe:	821a      	strh	r2, [r3, #16]
 8003ec0:	82da      	strh	r2, [r3, #22]
 8003ec2:	839a      	strh	r2, [r3, #28]
 8003ec4:	7833      	ldrb	r3, [r6, #0]
 8003ec6:	b303      	cbz	r3, 8003f0a <main+0x586>
 8003ec8:	edd9 7a00 	vldr	s15, [r9]
 8003ecc:	4b3c      	ldr	r3, [pc, #240]	; (8003fc0 <main+0x63c>)
 8003ece:	eeb8 7a67 	vcvt.f32.u32	s14, s15
 8003ed2:	edd5 7a05 	vldr	s15, [r5, #20]
 8003ed6:	eef8 6ae7 	vcvt.f32.s32	s13, s15
 8003eda:	eec6 7a88 	vdiv.f32	s15, s13, s16
 8003ede:	ee67 7a87 	vmul.f32	s15, s15, s14
 8003ee2:	eefc 7ae7 	vcvt.u32.f32	s15, s15
 8003ee6:	edc8 7a0f 	vstr	s15, [r8, #60]	; 0x3c
 8003eea:	edd5 7a06 	vldr	s15, [r5, #24]
 8003eee:	ed93 7a00 	vldr	s14, [r3]
 8003ef2:	eef8 6ae7 	vcvt.f32.s32	s13, s15
 8003ef6:	eeb8 7a47 	vcvt.f32.u32	s14, s14
 8003efa:	eec6 7a88 	vdiv.f32	s15, s13, s16
 8003efe:	ee67 7a87 	vmul.f32	s15, s15, s14
 8003f02:	eefc 7ae7 	vcvt.u32.f32	s15, s15
 8003f06:	edc8 7a10 	vstr	s15, [r8, #64]	; 0x40
 8003f0a:	7c2b      	ldrb	r3, [r5, #16]
 8003f0c:	b35b      	cbz	r3, 8003f66 <main+0x5e2>
 8003f0e:	b672      	cpsid	i
 8003f10:	f001 fe7e 	bl	8005c10 <HAL_FLASH_Unlock>
 8003f14:	2100      	movs	r1, #0
 8003f16:	2007      	movs	r0, #7
 8003f18:	f001 ff04 	bl	8005d24 <FLASH_Erase_Sector>
 8003f1c:	4b29      	ldr	r3, [pc, #164]	; (8003fc4 <main+0x640>)
 8003f1e:	68d9      	ldr	r1, [r3, #12]
 8003f20:	f011 0c01 	ands.w	ip, r1, #1
 8003f24:	d1fb      	bne.n	8003f1e <main+0x59a>
 8003f26:	f8df a0a8 	ldr.w	sl, [pc, #168]	; 8003fd0 <main+0x64c>
 8003f2a:	e8ba 000f 	ldmia.w	sl!, {r0, r1, r2, r3}
 8003f2e:	f10d 0e44 	add.w	lr, sp, #68	; 0x44
 8003f32:	e8ae 000f 	stmia.w	lr!, {r0, r1, r2, r3}
 8003f36:	e89a 0007 	ldmia.w	sl, {r0, r1, r2}
 8003f3a:	f8df a098 	ldr.w	sl, [pc, #152]	; 8003fd4 <main+0x650>
 8003f3e:	e88e 0007 	stmia.w	lr, {r0, r1, r2}
 8003f42:	4661      	mov	r1, ip
 8003f44:	291b      	cmp	r1, #27
 8003f46:	f8ca 1000 	str.w	r1, [sl]
 8003f4a:	d910      	bls.n	8003f6e <main+0x5ea>
 8003f4c:	f001 fe72 	bl	8005c34 <HAL_FLASH_Lock>
 8003f50:	b662      	cpsie	i
 8003f52:	f7ff fc49 	bl	80037e8 <MX_UART7_Init>
 8003f56:	2301      	movs	r3, #1
 8003f58:	4a1b      	ldr	r2, [pc, #108]	; (8003fc8 <main+0x644>)
 8003f5a:	7023      	strb	r3, [r4, #0]
 8003f5c:	2300      	movs	r3, #0
 8003f5e:	742b      	strb	r3, [r5, #16]
 8003f60:	6013      	str	r3, [r2, #0]
 8003f62:	782b      	ldrb	r3, [r5, #0]
 8003f64:	713b      	strb	r3, [r7, #4]
 8003f66:	7820      	ldrb	r0, [r4, #0]
 8003f68:	f7fd fdac 	bl	8001ac4 <Set_Screen>
 8003f6c:	e7aa      	b.n	8003ec4 <main+0x540>
 8003f6e:	f101 0378 	add.w	r3, r1, #120	; 0x78
 8003f72:	446b      	add	r3, sp
 8003f74:	f101 6100 	add.w	r1, r1, #134217728	; 0x8000000
 8003f78:	f813 2c34 	ldrb.w	r2, [r3, #-52]
 8003f7c:	2300      	movs	r3, #0
 8003f7e:	f501 21c0 	add.w	r1, r1, #393216	; 0x60000
 8003f82:	4618      	mov	r0, r3
 8003f84:	f001 fe88 	bl	8005c98 <HAL_FLASH_Program>
 8003f88:	f8da 1000 	ldr.w	r1, [sl]
 8003f8c:	3101      	adds	r1, #1
 8003f8e:	e7d9      	b.n	8003f44 <main+0x5c0>
 8003f90:	40000800 	.word	0x40000800
 8003f94:	20000a98 	.word	0x20000a98
 8003f98:	20000910 	.word	0x20000910
 8003f9c:	20000a0c 	.word	0x20000a0c
 8003fa0:	20000924 	.word	0x20000924
 8003fa4:	2000024c 	.word	0x2000024c
 8003fa8:	20000248 	.word	0x20000248
 8003fac:	40021000 	.word	0x40021000
 8003fb0:	20000018 	.word	0x20000018
 8003fb4:	42c80000 	.word	0x42c80000
 8003fb8:	20000ae0 	.word	0x20000ae0
 8003fbc:	20000106 	.word	0x20000106
 8003fc0:	20000908 	.word	0x20000908
 8003fc4:	40023c00 	.word	0x40023c00
 8003fc8:	20000234 	.word	0x20000234
 8003fcc:	2000090c 	.word	0x2000090c
 8003fd0:	200002d4 	.word	0x200002d4
 8003fd4:	20000920 	.word	0x20000920

08003fd8 <Error_Handler>:
 8003fd8:	b672      	cpsid	i
 8003fda:	e7fe      	b.n	8003fda <Error_Handler+0x2>

08003fdc <HAL_MspInit>:
 8003fdc:	b082      	sub	sp, #8
 8003fde:	4b0c      	ldr	r3, [pc, #48]	; (8004010 <HAL_MspInit+0x34>)
 8003fe0:	2100      	movs	r1, #0
 8003fe2:	9100      	str	r1, [sp, #0]
 8003fe4:	6c5a      	ldr	r2, [r3, #68]	; 0x44
 8003fe6:	f442 4280 	orr.w	r2, r2, #16384	; 0x4000
 8003fea:	645a      	str	r2, [r3, #68]	; 0x44
 8003fec:	6c5a      	ldr	r2, [r3, #68]	; 0x44
 8003fee:	f402 4280 	and.w	r2, r2, #16384	; 0x4000
 8003ff2:	9200      	str	r2, [sp, #0]
 8003ff4:	9a00      	ldr	r2, [sp, #0]
 8003ff6:	9101      	str	r1, [sp, #4]
 8003ff8:	6c1a      	ldr	r2, [r3, #64]	; 0x40
 8003ffa:	f042 5280 	orr.w	r2, r2, #268435456	; 0x10000000
 8003ffe:	641a      	str	r2, [r3, #64]	; 0x40
 8004000:	6c1b      	ldr	r3, [r3, #64]	; 0x40
 8004002:	f003 5380 	and.w	r3, r3, #268435456	; 0x10000000
 8004006:	9301      	str	r3, [sp, #4]
 8004008:	9b01      	ldr	r3, [sp, #4]
 800400a:	b002      	add	sp, #8
 800400c:	4770      	bx	lr
 800400e:	bf00      	nop
 8004010:	40023800 	.word	0x40023800

08004014 <HAL_DMA2D_MspInit>:
 8004014:	6802      	ldr	r2, [r0, #0]
 8004016:	4b09      	ldr	r3, [pc, #36]	; (800403c <HAL_DMA2D_MspInit+0x28>)
 8004018:	429a      	cmp	r2, r3
 800401a:	b082      	sub	sp, #8
 800401c:	d10b      	bne.n	8004036 <HAL_DMA2D_MspInit+0x22>
 800401e:	2300      	movs	r3, #0
 8004020:	9301      	str	r3, [sp, #4]
 8004022:	4b07      	ldr	r3, [pc, #28]	; (8004040 <HAL_DMA2D_MspInit+0x2c>)
 8004024:	6b1a      	ldr	r2, [r3, #48]	; 0x30
 8004026:	f442 0200 	orr.w	r2, r2, #8388608	; 0x800000
 800402a:	631a      	str	r2, [r3, #48]	; 0x30
 800402c:	6b1b      	ldr	r3, [r3, #48]	; 0x30
 800402e:	f403 0300 	and.w	r3, r3, #8388608	; 0x800000
 8004032:	9301      	str	r3, [sp, #4]
 8004034:	9b01      	ldr	r3, [sp, #4]
 8004036:	b002      	add	sp, #8
 8004038:	4770      	bx	lr
 800403a:	bf00      	nop
 800403c:	4002b000 	.word	0x4002b000
 8004040:	40023800 	.word	0x40023800

08004044 <HAL_LTDC_MspInit>:
 8004044:	e92d 41f0 	stmdb	sp!, {r4, r5, r6, r7, r8, lr}
 8004048:	b098      	sub	sp, #96	; 0x60
 800404a:	4604      	mov	r4, r0
 800404c:	2214      	movs	r2, #20
 800404e:	2100      	movs	r1, #0
 8004050:	a807      	add	r0, sp, #28
 8004052:	f003 fccf 	bl	80079f4 <memset>
 8004056:	2230      	movs	r2, #48	; 0x30
 8004058:	eb0d 0002 	add.w	r0, sp, r2
 800405c:	2100      	movs	r1, #0
 800405e:	f003 fcc9 	bl	80079f4 <memset>
 8004062:	6822      	ldr	r2, [r4, #0]
 8004064:	4b48      	ldr	r3, [pc, #288]	; (8004188 <HAL_LTDC_MspInit+0x144>)
 8004066:	429a      	cmp	r2, r3
 8004068:	f040 808b 	bne.w	8004182 <HAL_LTDC_MspInit+0x13e>
 800406c:	2308      	movs	r3, #8
 800406e:	930c      	str	r3, [sp, #48]	; 0x30
 8004070:	2332      	movs	r3, #50	; 0x32
 8004072:	9310      	str	r3, [sp, #64]	; 0x40
 8004074:	a80c      	add	r0, sp, #48	; 0x30
 8004076:	2302      	movs	r3, #2
 8004078:	9312      	str	r3, [sp, #72]	; 0x48
 800407a:	f002 fb71 	bl	8006760 <HAL_RCCEx_PeriphCLKConfig>
 800407e:	b108      	cbz	r0, 8004084 <HAL_LTDC_MspInit+0x40>
 8004080:	f7ff ffaa 	bl	8003fd8 <Error_Handler>
 8004084:	4b41      	ldr	r3, [pc, #260]	; (800418c <HAL_LTDC_MspInit+0x148>)
 8004086:	4842      	ldr	r0, [pc, #264]	; (8004190 <HAL_LTDC_MspInit+0x14c>)
 8004088:	2400      	movs	r4, #0
 800408a:	9401      	str	r4, [sp, #4]
 800408c:	6c5a      	ldr	r2, [r3, #68]	; 0x44
 800408e:	f042 6280 	orr.w	r2, r2, #67108864	; 0x4000000
 8004092:	645a      	str	r2, [r3, #68]	; 0x44
 8004094:	6c5a      	ldr	r2, [r3, #68]	; 0x44
 8004096:	f002 6280 	and.w	r2, r2, #67108864	; 0x4000000
 800409a:	9201      	str	r2, [sp, #4]
 800409c:	9a01      	ldr	r2, [sp, #4]
 800409e:	9402      	str	r4, [sp, #8]
 80040a0:	6b1a      	ldr	r2, [r3, #48]	; 0x30
 80040a2:	f442 7280 	orr.w	r2, r2, #256	; 0x100
 80040a6:	631a      	str	r2, [r3, #48]	; 0x30
 80040a8:	6b1a      	ldr	r2, [r3, #48]	; 0x30
 80040aa:	f402 7280 	and.w	r2, r2, #256	; 0x100
 80040ae:	9202      	str	r2, [sp, #8]
 80040b0:	9a02      	ldr	r2, [sp, #8]
 80040b2:	9403      	str	r4, [sp, #12]
 80040b4:	6b1a      	ldr	r2, [r3, #48]	; 0x30
 80040b6:	f042 0220 	orr.w	r2, r2, #32
 80040ba:	631a      	str	r2, [r3, #48]	; 0x30
 80040bc:	6b1a      	ldr	r2, [r3, #48]	; 0x30
 80040be:	f002 0220 	and.w	r2, r2, #32
 80040c2:	9203      	str	r2, [sp, #12]
 80040c4:	9a03      	ldr	r2, [sp, #12]
 80040c6:	9404      	str	r4, [sp, #16]
 80040c8:	6b1a      	ldr	r2, [r3, #48]	; 0x30
 80040ca:	f042 0202 	orr.w	r2, r2, #2
 80040ce:	631a      	str	r2, [r3, #48]	; 0x30
 80040d0:	6b1a      	ldr	r2, [r3, #48]	; 0x30
 80040d2:	f002 0202 	and.w	r2, r2, #2
 80040d6:	9204      	str	r2, [sp, #16]
 80040d8:	9a04      	ldr	r2, [sp, #16]
 80040da:	9405      	str	r4, [sp, #20]
 80040dc:	6b1a      	ldr	r2, [r3, #48]	; 0x30
 80040de:	f442 7200 	orr.w	r2, r2, #512	; 0x200
 80040e2:	631a      	str	r2, [r3, #48]	; 0x30
 80040e4:	6b1a      	ldr	r2, [r3, #48]	; 0x30
 80040e6:	f402 7200 	and.w	r2, r2, #512	; 0x200
 80040ea:	9205      	str	r2, [sp, #20]
 80040ec:	9a05      	ldr	r2, [sp, #20]
 80040ee:	9406      	str	r4, [sp, #24]
 80040f0:	6b1a      	ldr	r2, [r3, #48]	; 0x30
 80040f2:	f442 6280 	orr.w	r2, r2, #1024	; 0x400
 80040f6:	631a      	str	r2, [r3, #48]	; 0x30
 80040f8:	6b1b      	ldr	r3, [r3, #48]	; 0x30
 80040fa:	9409      	str	r4, [sp, #36]	; 0x24
 80040fc:	f403 6380 	and.w	r3, r3, #1024	; 0x400
 8004100:	9306      	str	r3, [sp, #24]
 8004102:	2502      	movs	r5, #2
 8004104:	2603      	movs	r6, #3
 8004106:	270e      	movs	r7, #14
 8004108:	9b06      	ldr	r3, [sp, #24]
 800410a:	a907      	add	r1, sp, #28
 800410c:	f44f 4346 	mov.w	r3, #50688	; 0xc600
 8004110:	e9cd 3507 	strd	r3, r5, [sp, #28]
 8004114:	f44f 6880 	mov.w	r8, #1024	; 0x400
 8004118:	e9cd 670a 	strd	r6, r7, [sp, #40]	; 0x28
 800411c:	f001 fe24 	bl	8005d68 <HAL_GPIO_Init>
 8004120:	481c      	ldr	r0, [pc, #112]	; (8004194 <HAL_LTDC_MspInit+0x150>)
 8004122:	970b      	str	r7, [sp, #44]	; 0x2c
 8004124:	a907      	add	r1, sp, #28
 8004126:	e9cd 8507 	strd	r8, r5, [sp, #28]
 800412a:	e9cd 4609 	strd	r4, r6, [sp, #36]	; 0x24
 800412e:	f001 fe1b 	bl	8005d68 <HAL_GPIO_Init>
 8004132:	2309      	movs	r3, #9
 8004134:	4818      	ldr	r0, [pc, #96]	; (8004198 <HAL_LTDC_MspInit+0x154>)
 8004136:	930b      	str	r3, [sp, #44]	; 0x2c
 8004138:	a907      	add	r1, sp, #28
 800413a:	e9cd 5507 	strd	r5, r5, [sp, #28]
 800413e:	e9cd 4609 	strd	r4, r6, [sp, #36]	; 0x24
 8004142:	f001 fe11 	bl	8005d68 <HAL_GPIO_Init>
 8004146:	f24f 73df 	movw	r3, #63455	; 0xf7df
 800414a:	4814      	ldr	r0, [pc, #80]	; (800419c <HAL_LTDC_MspInit+0x158>)
 800414c:	970b      	str	r7, [sp, #44]	; 0x2c
 800414e:	a907      	add	r1, sp, #28
 8004150:	e9cd 3507 	strd	r3, r5, [sp, #28]
 8004154:	e9cd 4609 	strd	r4, r6, [sp, #36]	; 0x24
 8004158:	f001 fe06 	bl	8005d68 <HAL_GPIO_Init>
 800415c:	480e      	ldr	r0, [pc, #56]	; (8004198 <HAL_LTDC_MspInit+0x154>)
 800415e:	970b      	str	r7, [sp, #44]	; 0x2c
 8004160:	a907      	add	r1, sp, #28
 8004162:	e9cd 8507 	strd	r8, r5, [sp, #28]
 8004166:	e9cd 4609 	strd	r4, r6, [sp, #36]	; 0x24
 800416a:	f001 fdfd 	bl	8005d68 <HAL_GPIO_Init>
 800416e:	237f      	movs	r3, #127	; 0x7f
 8004170:	480b      	ldr	r0, [pc, #44]	; (80041a0 <HAL_LTDC_MspInit+0x15c>)
 8004172:	970b      	str	r7, [sp, #44]	; 0x2c
 8004174:	a907      	add	r1, sp, #28
 8004176:	e9cd 3507 	strd	r3, r5, [sp, #28]
 800417a:	e9cd 4609 	strd	r4, r6, [sp, #36]	; 0x24
 800417e:	f001 fdf3 	bl	8005d68 <HAL_GPIO_Init>
 8004182:	b018      	add	sp, #96	; 0x60
 8004184:	e8bd 81f0 	ldmia.w	sp!, {r4, r5, r6, r7, r8, pc}
 8004188:	40016800 	.word	0x40016800
 800418c:	40023800 	.word	0x40023800
 8004190:	40022000 	.word	0x40022000
 8004194:	40021400 	.word	0x40021400
 8004198:	40020400 	.word	0x40020400
 800419c:	40022400 	.word	0x40022400
 80041a0:	40022800 	.word	0x40022800

080041a4 <HAL_SPI_MspInit>:
 80041a4:	b510      	push	{r4, lr}
 80041a6:	4604      	mov	r4, r0
 80041a8:	b088      	sub	sp, #32
 80041aa:	2214      	movs	r2, #20
 80041ac:	2100      	movs	r1, #0
 80041ae:	a803      	add	r0, sp, #12
 80041b0:	f003 fc20 	bl	80079f4 <memset>
 80041b4:	6822      	ldr	r2, [r4, #0]
 80041b6:	4b14      	ldr	r3, [pc, #80]	; (8004208 <HAL_SPI_MspInit+0x64>)
 80041b8:	429a      	cmp	r2, r3
 80041ba:	d122      	bne.n	8004202 <HAL_SPI_MspInit+0x5e>
 80041bc:	f503 3384 	add.w	r3, r3, #67584	; 0x10800
 80041c0:	2100      	movs	r1, #0
 80041c2:	9101      	str	r1, [sp, #4]
 80041c4:	6c5a      	ldr	r2, [r3, #68]	; 0x44
 80041c6:	4811      	ldr	r0, [pc, #68]	; (800420c <HAL_SPI_MspInit+0x68>)
 80041c8:	f442 5280 	orr.w	r2, r2, #4096	; 0x1000
 80041cc:	645a      	str	r2, [r3, #68]	; 0x44
 80041ce:	6c5a      	ldr	r2, [r3, #68]	; 0x44
 80041d0:	f402 5280 	and.w	r2, r2, #4096	; 0x1000
 80041d4:	9201      	str	r2, [sp, #4]
 80041d6:	9a01      	ldr	r2, [sp, #4]
 80041d8:	9102      	str	r1, [sp, #8]
 80041da:	6b1a      	ldr	r2, [r3, #48]	; 0x30
 80041dc:	f042 0201 	orr.w	r2, r2, #1
 80041e0:	631a      	str	r2, [r3, #48]	; 0x30
 80041e2:	6b1b      	ldr	r3, [r3, #48]	; 0x30
 80041e4:	f003 0301 	and.w	r3, r3, #1
 80041e8:	9302      	str	r3, [sp, #8]
 80041ea:	9b02      	ldr	r3, [sp, #8]
 80041ec:	22e0      	movs	r2, #224	; 0xe0
 80041ee:	2302      	movs	r3, #2
 80041f0:	2103      	movs	r1, #3
 80041f2:	e9cd 2303 	strd	r2, r3, [sp, #12]
 80041f6:	2305      	movs	r3, #5
 80041f8:	e9cd 1306 	strd	r1, r3, [sp, #24]
 80041fc:	a903      	add	r1, sp, #12
 80041fe:	f001 fdb3 	bl	8005d68 <HAL_GPIO_Init>
 8004202:	b008      	add	sp, #32
 8004204:	bd10      	pop	{r4, pc}
 8004206:	bf00      	nop
 8004208:	40013000 	.word	0x40013000
 800420c:	40020000 	.word	0x40020000

08004210 <HAL_TIM_Base_MspInit>:
 8004210:	b507      	push	{r0, r1, r2, lr}
 8004212:	6803      	ldr	r3, [r0, #0]
 8004214:	4a15      	ldr	r2, [pc, #84]	; (800426c <HAL_TIM_Base_MspInit+0x5c>)
 8004216:	4293      	cmp	r3, r2
 8004218:	d10e      	bne.n	8004238 <HAL_TIM_Base_MspInit+0x28>
 800421a:	2300      	movs	r3, #0
 800421c:	9300      	str	r3, [sp, #0]
 800421e:	4b14      	ldr	r3, [pc, #80]	; (8004270 <HAL_TIM_Base_MspInit+0x60>)
 8004220:	6c1a      	ldr	r2, [r3, #64]	; 0x40
 8004222:	f042 0204 	orr.w	r2, r2, #4
 8004226:	641a      	str	r2, [r3, #64]	; 0x40
 8004228:	6c1b      	ldr	r3, [r3, #64]	; 0x40
 800422a:	f003 0304 	and.w	r3, r3, #4
 800422e:	9300      	str	r3, [sp, #0]
 8004230:	9b00      	ldr	r3, [sp, #0]
 8004232:	b003      	add	sp, #12
 8004234:	f85d fb04 	ldr.w	pc, [sp], #4
 8004238:	4a0e      	ldr	r2, [pc, #56]	; (8004274 <HAL_TIM_Base_MspInit+0x64>)
 800423a:	4293      	cmp	r3, r2
 800423c:	d1f9      	bne.n	8004232 <HAL_TIM_Base_MspInit+0x22>
 800423e:	4b0c      	ldr	r3, [pc, #48]	; (8004270 <HAL_TIM_Base_MspInit+0x60>)
 8004240:	2200      	movs	r2, #0
 8004242:	9201      	str	r2, [sp, #4]
 8004244:	6c19      	ldr	r1, [r3, #64]	; 0x40
 8004246:	f041 0108 	orr.w	r1, r1, #8
 800424a:	6419      	str	r1, [r3, #64]	; 0x40
 800424c:	6c1b      	ldr	r3, [r3, #64]	; 0x40
 800424e:	f003 0308 	and.w	r3, r3, #8
 8004252:	9301      	str	r3, [sp, #4]
 8004254:	2101      	movs	r1, #1
 8004256:	2032      	movs	r0, #50	; 0x32
 8004258:	9b01      	ldr	r3, [sp, #4]
 800425a:	f001 fb17 	bl	800588c <HAL_NVIC_SetPriority>
 800425e:	2032      	movs	r0, #50	; 0x32
 8004260:	b003      	add	sp, #12
 8004262:	f85d eb04 	ldr.w	lr, [sp], #4
 8004266:	f001 bb43 	b.w	80058f0 <HAL_NVIC_EnableIRQ>
 800426a:	bf00      	nop
 800426c:	40000800 	.word	0x40000800
 8004270:	40023800 	.word	0x40023800
 8004274:	40000c00 	.word	0x40000c00

08004278 <HAL_TIM_MspPostInit>:
 8004278:	b510      	push	{r4, lr}
 800427a:	4604      	mov	r4, r0
 800427c:	b086      	sub	sp, #24
 800427e:	2214      	movs	r2, #20
 8004280:	2100      	movs	r1, #0
 8004282:	a801      	add	r0, sp, #4
 8004284:	f003 fbb6 	bl	80079f4 <memset>
 8004288:	6822      	ldr	r2, [r4, #0]
 800428a:	4b0d      	ldr	r3, [pc, #52]	; (80042c0 <HAL_TIM_MspPostInit+0x48>)
 800428c:	429a      	cmp	r2, r3
 800428e:	d115      	bne.n	80042bc <HAL_TIM_MspPostInit+0x44>
 8004290:	2300      	movs	r3, #0
 8004292:	9300      	str	r3, [sp, #0]
 8004294:	4b0b      	ldr	r3, [pc, #44]	; (80042c4 <HAL_TIM_MspPostInit+0x4c>)
 8004296:	480c      	ldr	r0, [pc, #48]	; (80042c8 <HAL_TIM_MspPostInit+0x50>)
 8004298:	6b1a      	ldr	r2, [r3, #48]	; 0x30
 800429a:	f042 0202 	orr.w	r2, r2, #2
 800429e:	631a      	str	r2, [r3, #48]	; 0x30
 80042a0:	6b1b      	ldr	r3, [r3, #48]	; 0x30
 80042a2:	f003 0302 	and.w	r3, r3, #2
 80042a6:	9300      	str	r3, [sp, #0]
 80042a8:	9b00      	ldr	r3, [sp, #0]
 80042aa:	f44f 7240 	mov.w	r2, #768	; 0x300
 80042ae:	2302      	movs	r3, #2
 80042b0:	a901      	add	r1, sp, #4
 80042b2:	e9cd 2301 	strd	r2, r3, [sp, #4]
 80042b6:	9305      	str	r3, [sp, #20]
 80042b8:	f001 fd56 	bl	8005d68 <HAL_GPIO_Init>
 80042bc:	b006      	add	sp, #24
 80042be:	bd10      	pop	{r4, pc}
 80042c0:	40000800 	.word	0x40000800
 80042c4:	40023800 	.word	0x40023800
 80042c8:	40020400 	.word	0x40020400

080042cc <HAL_UART_MspInit>:
 80042cc:	b510      	push	{r4, lr}
 80042ce:	4604      	mov	r4, r0
 80042d0:	b088      	sub	sp, #32
 80042d2:	2214      	movs	r2, #20
 80042d4:	2100      	movs	r1, #0
 80042d6:	a803      	add	r0, sp, #12
 80042d8:	f003 fb8c 	bl	80079f4 <memset>
 80042dc:	6822      	ldr	r2, [r4, #0]
 80042de:	4b18      	ldr	r3, [pc, #96]	; (8004340 <HAL_UART_MspInit+0x74>)
 80042e0:	429a      	cmp	r2, r3
 80042e2:	d12a      	bne.n	800433a <HAL_UART_MspInit+0x6e>
 80042e4:	f503 33e0 	add.w	r3, r3, #114688	; 0x1c000
 80042e8:	2400      	movs	r4, #0
 80042ea:	9401      	str	r4, [sp, #4]
 80042ec:	6c1a      	ldr	r2, [r3, #64]	; 0x40
 80042ee:	4815      	ldr	r0, [pc, #84]	; (8004344 <HAL_UART_MspInit+0x78>)
 80042f0:	f042 4280 	orr.w	r2, r2, #1073741824	; 0x40000000
 80042f4:	641a      	str	r2, [r3, #64]	; 0x40
 80042f6:	6c1a      	ldr	r2, [r3, #64]	; 0x40
 80042f8:	f002 4280 	and.w	r2, r2, #1073741824	; 0x40000000
 80042fc:	9201      	str	r2, [sp, #4]
 80042fe:	9a01      	ldr	r2, [sp, #4]
 8004300:	9402      	str	r4, [sp, #8]
 8004302:	6b1a      	ldr	r2, [r3, #48]	; 0x30
 8004304:	f042 0220 	orr.w	r2, r2, #32
 8004308:	631a      	str	r2, [r3, #48]	; 0x30
 800430a:	6b1b      	ldr	r3, [r3, #48]	; 0x30
 800430c:	f003 0320 	and.w	r3, r3, #32
 8004310:	9302      	str	r3, [sp, #8]
 8004312:	22c0      	movs	r2, #192	; 0xc0
 8004314:	9b02      	ldr	r3, [sp, #8]
 8004316:	2302      	movs	r3, #2
 8004318:	e9cd 2303 	strd	r2, r3, [sp, #12]
 800431c:	2103      	movs	r1, #3
 800431e:	2308      	movs	r3, #8
 8004320:	e9cd 1306 	strd	r1, r3, [sp, #24]
 8004324:	a903      	add	r1, sp, #12
 8004326:	f001 fd1f 	bl	8005d68 <HAL_GPIO_Init>
 800432a:	2052      	movs	r0, #82	; 0x52
 800432c:	4622      	mov	r2, r4
 800432e:	4621      	mov	r1, r4
 8004330:	f001 faac 	bl	800588c <HAL_NVIC_SetPriority>
 8004334:	2052      	movs	r0, #82	; 0x52
 8004336:	f001 fadb 	bl	80058f0 <HAL_NVIC_EnableIRQ>
 800433a:	b008      	add	sp, #32
 800433c:	bd10      	pop	{r4, pc}
 800433e:	bf00      	nop
 8004340:	40007800 	.word	0x40007800
 8004344:	40021400 	.word	0x40021400

08004348 <HAL_SDRAM_MspInit>:
 8004348:	b5f0      	push	{r4, r5, r6, r7, lr}
 800434a:	b087      	sub	sp, #28
 800434c:	2300      	movs	r3, #0
 800434e:	9303      	str	r3, [sp, #12]
 8004350:	4b25      	ldr	r3, [pc, #148]	; (80043e8 <HAL_SDRAM_MspInit+0xa0>)
 8004352:	681c      	ldr	r4, [r3, #0]
 8004354:	2c00      	cmp	r4, #0
 8004356:	d144      	bne.n	80043e2 <HAL_SDRAM_MspInit+0x9a>
 8004358:	2201      	movs	r2, #1
 800435a:	601a      	str	r2, [r3, #0]
 800435c:	4b23      	ldr	r3, [pc, #140]	; (80043ec <HAL_SDRAM_MspInit+0xa4>)
 800435e:	9400      	str	r4, [sp, #0]
 8004360:	6b9a      	ldr	r2, [r3, #56]	; 0x38
 8004362:	4823      	ldr	r0, [pc, #140]	; (80043f0 <HAL_SDRAM_MspInit+0xa8>)
 8004364:	f042 0201 	orr.w	r2, r2, #1
 8004368:	639a      	str	r2, [r3, #56]	; 0x38
 800436a:	6b9b      	ldr	r3, [r3, #56]	; 0x38
 800436c:	f003 0301 	and.w	r3, r3, #1
 8004370:	9300      	str	r3, [sp, #0]
 8004372:	2702      	movs	r7, #2
 8004374:	2603      	movs	r6, #3
 8004376:	250c      	movs	r5, #12
 8004378:	9b00      	ldr	r3, [sp, #0]
 800437a:	a901      	add	r1, sp, #4
 800437c:	f64f 033f 	movw	r3, #63551	; 0xf83f
 8004380:	e9cd 3701 	strd	r3, r7, [sp, #4]
 8004384:	e9cd 6504 	strd	r6, r5, [sp, #16]
 8004388:	f001 fcee 	bl	8005d68 <HAL_GPIO_Init>
 800438c:	230d      	movs	r3, #13
 800438e:	4819      	ldr	r0, [pc, #100]	; (80043f4 <HAL_SDRAM_MspInit+0xac>)
 8004390:	9505      	str	r5, [sp, #20]
 8004392:	a901      	add	r1, sp, #4
 8004394:	e9cd 3701 	strd	r3, r7, [sp, #4]
 8004398:	e9cd 4603 	strd	r4, r6, [sp, #12]
 800439c:	f001 fce4 	bl	8005d68 <HAL_GPIO_Init>
 80043a0:	f248 1337 	movw	r3, #33079	; 0x8137
 80043a4:	4814      	ldr	r0, [pc, #80]	; (80043f8 <HAL_SDRAM_MspInit+0xb0>)
 80043a6:	9505      	str	r5, [sp, #20]
 80043a8:	a901      	add	r1, sp, #4
 80043aa:	e9cd 3701 	strd	r3, r7, [sp, #4]
 80043ae:	e9cd 4603 	strd	r4, r6, [sp, #12]
 80043b2:	f001 fcd9 	bl	8005d68 <HAL_GPIO_Init>
 80043b6:	f64f 7383 	movw	r3, #65411	; 0xff83
 80043ba:	4810      	ldr	r0, [pc, #64]	; (80043fc <HAL_SDRAM_MspInit+0xb4>)
 80043bc:	9505      	str	r5, [sp, #20]
 80043be:	a901      	add	r1, sp, #4
 80043c0:	e9cd 3701 	strd	r3, r7, [sp, #4]
 80043c4:	e9cd 4603 	strd	r4, r6, [sp, #12]
 80043c8:	f001 fcce 	bl	8005d68 <HAL_GPIO_Init>
 80043cc:	f24c 7303 	movw	r3, #50947	; 0xc703
 80043d0:	480b      	ldr	r0, [pc, #44]	; (8004400 <HAL_SDRAM_MspInit+0xb8>)
 80043d2:	9505      	str	r5, [sp, #20]
 80043d4:	a901      	add	r1, sp, #4
 80043d6:	e9cd 3701 	strd	r3, r7, [sp, #4]
 80043da:	e9cd 4603 	strd	r4, r6, [sp, #12]
 80043de:	f001 fcc3 	bl	8005d68 <HAL_GPIO_Init>
 80043e2:	b007      	add	sp, #28
 80043e4:	bdf0      	pop	{r4, r5, r6, r7, pc}
 80043e6:	bf00      	nop
 80043e8:	20000b70 	.word	0x20000b70
 80043ec:	40023800 	.word	0x40023800
 80043f0:	40021400 	.word	0x40021400
 80043f4:	40020800 	.word	0x40020800
 80043f8:	40021800 	.word	0x40021800
 80043fc:	40021000 	.word	0x40021000
 8004400:	40020c00 	.word	0x40020c00

08004404 <NMI_Handler>:
 8004404:	e7fe      	b.n	8004404 <NMI_Handler>

08004406 <HardFault_Handler>:
 8004406:	e7fe      	b.n	8004406 <HardFault_Handler>

08004408 <MemManage_Handler>:
 8004408:	e7fe      	b.n	8004408 <MemManage_Handler>

0800440a <BusFault_Handler>:
 800440a:	e7fe      	b.n	800440a <BusFault_Handler>

0800440c <UsageFault_Handler>:
 800440c:	e7fe      	b.n	800440c <UsageFault_Handler>

0800440e <SVC_Handler>:
 800440e:	4770      	bx	lr

08004410 <DebugMon_Handler>:
 8004410:	4770      	bx	lr

08004412 <PendSV_Handler>:
 8004412:	4770      	bx	lr

08004414 <TIM5_IRQHandler>:
 8004414:	b508      	push	{r3, lr}
 8004416:	4a06      	ldr	r2, [pc, #24]	; (8004430 <TIM5_IRQHandler+0x1c>)
 8004418:	4806      	ldr	r0, [pc, #24]	; (8004434 <TIM5_IRQHandler+0x20>)
 800441a:	6813      	ldr	r3, [r2, #0]
 800441c:	3301      	adds	r3, #1
 800441e:	6013      	str	r3, [r2, #0]
 8004420:	f7fc feda 	bl	80011d8 <Slave_Clock_1ms>
 8004424:	e8bd 4008 	ldmia.w	sp!, {r3, lr}
 8004428:	4803      	ldr	r0, [pc, #12]	; (8004438 <TIM5_IRQHandler+0x24>)
 800442a:	f002 bc2b 	b.w	8006c84 <HAL_TIM_IRQHandler>
 800442e:	bf00      	nop
 8004430:	20000ba8 	.word	0x20000ba8
 8004434:	200002f0 	.word	0x200002f0
 8004438:	20000ae0 	.word	0x20000ae0

0800443c <UART7_IRQHandler>:
 800443c:	b510      	push	{r4, lr}
 800443e:	4c06      	ldr	r4, [pc, #24]	; (8004458 <UART7_IRQHandler+0x1c>)
 8004440:	4620      	mov	r0, r4
 8004442:	f7fc fd17 	bl	8000e74 <Slave_PORT_Processor>
 8004446:	4620      	mov	r0, r4
 8004448:	f7fc fd54 	bl	8000ef4 <Slave_Processor>
 800444c:	e8bd 4010 	ldmia.w	sp!, {r4, lr}
 8004450:	4802      	ldr	r0, [pc, #8]	; (800445c <UART7_IRQHandler+0x20>)
 8004452:	f003 b87f 	b.w	8007554 <HAL_UART_IRQHandler>
 8004456:	bf00      	nop
 8004458:	200002f0 	.word	0x200002f0
 800445c:	20000b28 	.word	0x20000b28

08004460 <KeyboardCheck>:
 8004460:	e92d 4ff0 	stmdb	sp!, {r4, r5, r6, r7, r8, r9, sl, fp, lr}
 8004464:	2120      	movs	r1, #32
 8004466:	b089      	sub	sp, #36	; 0x24
 8004468:	48b7      	ldr	r0, [pc, #732]	; (8004748 <KeyboardCheck+0x2e8>)
 800446a:	4cb8      	ldr	r4, [pc, #736]	; (800474c <KeyboardCheck+0x2ec>)
 800446c:	f001 fd62 	bl	8005f34 <HAL_GPIO_ReadPin>
 8004470:	fab0 f080 	clz	r0, r0
 8004474:	0940      	lsrs	r0, r0, #5
 8004476:	7020      	strb	r0, [r4, #0]
 8004478:	2140      	movs	r1, #64	; 0x40
 800447a:	48b5      	ldr	r0, [pc, #724]	; (8004750 <KeyboardCheck+0x2f0>)
 800447c:	f001 fd5a 	bl	8005f34 <HAL_GPIO_ReadPin>
 8004480:	fab0 f080 	clz	r0, r0
 8004484:	0940      	lsrs	r0, r0, #5
 8004486:	7060      	strb	r0, [r4, #1]
 8004488:	2180      	movs	r1, #128	; 0x80
 800448a:	48b1      	ldr	r0, [pc, #708]	; (8004750 <KeyboardCheck+0x2f0>)
 800448c:	f001 fd52 	bl	8005f34 <HAL_GPIO_ReadPin>
 8004490:	fab0 f080 	clz	r0, r0
 8004494:	0940      	lsrs	r0, r0, #5
 8004496:	70a0      	strb	r0, [r4, #2]
 8004498:	f44f 7180 	mov.w	r1, #256	; 0x100
 800449c:	48ac      	ldr	r0, [pc, #688]	; (8004750 <KeyboardCheck+0x2f0>)
 800449e:	f001 fd49 	bl	8005f34 <HAL_GPIO_ReadPin>
 80044a2:	fab0 f080 	clz	r0, r0
 80044a6:	0940      	lsrs	r0, r0, #5
 80044a8:	70e0      	strb	r0, [r4, #3]
 80044aa:	f44f 7100 	mov.w	r1, #512	; 0x200
 80044ae:	48a8      	ldr	r0, [pc, #672]	; (8004750 <KeyboardCheck+0x2f0>)
 80044b0:	f001 fd40 	bl	8005f34 <HAL_GPIO_ReadPin>
 80044b4:	fab0 f080 	clz	r0, r0
 80044b8:	0940      	lsrs	r0, r0, #5
 80044ba:	7120      	strb	r0, [r4, #4]
 80044bc:	f44f 6180 	mov.w	r1, #1024	; 0x400
 80044c0:	48a3      	ldr	r0, [pc, #652]	; (8004750 <KeyboardCheck+0x2f0>)
 80044c2:	f001 fd37 	bl	8005f34 <HAL_GPIO_ReadPin>
 80044c6:	fab0 f080 	clz	r0, r0
 80044ca:	0940      	lsrs	r0, r0, #5
 80044cc:	7160      	strb	r0, [r4, #5]
 80044ce:	f44f 6100 	mov.w	r1, #2048	; 0x800
 80044d2:	489f      	ldr	r0, [pc, #636]	; (8004750 <KeyboardCheck+0x2f0>)
 80044d4:	f001 fd2e 	bl	8005f34 <HAL_GPIO_ReadPin>
 80044d8:	fab0 f080 	clz	r0, r0
 80044dc:	0940      	lsrs	r0, r0, #5
 80044de:	71a0      	strb	r0, [r4, #6]
 80044e0:	f44f 5180 	mov.w	r1, #4096	; 0x1000
 80044e4:	489a      	ldr	r0, [pc, #616]	; (8004750 <KeyboardCheck+0x2f0>)
 80044e6:	f001 fd25 	bl	8005f34 <HAL_GPIO_ReadPin>
 80044ea:	fab0 f080 	clz	r0, r0
 80044ee:	0940      	lsrs	r0, r0, #5
 80044f0:	71e0      	strb	r0, [r4, #7]
 80044f2:	f44f 7100 	mov.w	r1, #512	; 0x200
 80044f6:	4897      	ldr	r0, [pc, #604]	; (8004754 <KeyboardCheck+0x2f4>)
 80044f8:	f001 fd1c 	bl	8005f34 <HAL_GPIO_ReadPin>
 80044fc:	fab0 f080 	clz	r0, r0
 8004500:	0940      	lsrs	r0, r0, #5
 8004502:	7220      	strb	r0, [r4, #8]
 8004504:	f44f 7180 	mov.w	r1, #256	; 0x100
 8004508:	4892      	ldr	r0, [pc, #584]	; (8004754 <KeyboardCheck+0x2f4>)
 800450a:	f001 fd13 	bl	8005f34 <HAL_GPIO_ReadPin>
 800450e:	fab0 f080 	clz	r0, r0
 8004512:	0940      	lsrs	r0, r0, #5
 8004514:	7260      	strb	r0, [r4, #9]
 8004516:	2180      	movs	r1, #128	; 0x80
 8004518:	488e      	ldr	r0, [pc, #568]	; (8004754 <KeyboardCheck+0x2f4>)
 800451a:	f001 fd0b 	bl	8005f34 <HAL_GPIO_ReadPin>
 800451e:	fab0 f080 	clz	r0, r0
 8004522:	0940      	lsrs	r0, r0, #5
 8004524:	72a0      	strb	r0, [r4, #10]
 8004526:	2140      	movs	r1, #64	; 0x40
 8004528:	488a      	ldr	r0, [pc, #552]	; (8004754 <KeyboardCheck+0x2f4>)
 800452a:	f001 fd03 	bl	8005f34 <HAL_GPIO_ReadPin>
 800452e:	fab0 f080 	clz	r0, r0
 8004532:	0940      	lsrs	r0, r0, #5
 8004534:	72e0      	strb	r0, [r4, #11]
 8004536:	2101      	movs	r1, #1
 8004538:	4887      	ldr	r0, [pc, #540]	; (8004758 <KeyboardCheck+0x2f8>)
 800453a:	f001 fcfb 	bl	8005f34 <HAL_GPIO_ReadPin>
 800453e:	fab0 f080 	clz	r0, r0
 8004542:	0940      	lsrs	r0, r0, #5
 8004544:	7320      	strb	r0, [r4, #12]
 8004546:	f44f 4100 	mov.w	r1, #32768	; 0x8000
 800454a:	4881      	ldr	r0, [pc, #516]	; (8004750 <KeyboardCheck+0x2f0>)
 800454c:	f001 fcf2 	bl	8005f34 <HAL_GPIO_ReadPin>
 8004550:	fab0 f080 	clz	r0, r0
 8004554:	0940      	lsrs	r0, r0, #5
 8004556:	7360      	strb	r0, [r4, #13]
 8004558:	f44f 4180 	mov.w	r1, #16384	; 0x4000
 800455c:	487c      	ldr	r0, [pc, #496]	; (8004750 <KeyboardCheck+0x2f0>)
 800455e:	f001 fce9 	bl	8005f34 <HAL_GPIO_ReadPin>
 8004562:	fab0 f080 	clz	r0, r0
 8004566:	0940      	lsrs	r0, r0, #5
 8004568:	73a0      	strb	r0, [r4, #14]
 800456a:	f44f 5100 	mov.w	r1, #8192	; 0x2000
 800456e:	4878      	ldr	r0, [pc, #480]	; (8004750 <KeyboardCheck+0x2f0>)
 8004570:	f001 fce0 	bl	8005f34 <HAL_GPIO_ReadPin>
 8004574:	4b79      	ldr	r3, [pc, #484]	; (800475c <KeyboardCheck+0x2fc>)
 8004576:	f894 8000 	ldrb.w	r8, [r4]
 800457a:	7819      	ldrb	r1, [r3, #0]
 800457c:	9007      	str	r0, [sp, #28]
 800457e:	fab0 f080 	clz	r0, r0
 8004582:	0940      	lsrs	r0, r0, #5
 8004584:	2900      	cmp	r1, #0
 8004586:	bf14      	ite	ne
 8004588:	2200      	movne	r2, #0
 800458a:	f008 0201 	andeq.w	r2, r8, #1
 800458e:	73e0      	strb	r0, [r4, #15]
 8004590:	b112      	cbz	r2, 8004598 <KeyboardCheck+0x138>
 8004592:	4a73      	ldr	r2, [pc, #460]	; (8004760 <KeyboardCheck+0x300>)
 8004594:	2101      	movs	r1, #1
 8004596:	7011      	strb	r1, [r2, #0]
 8004598:	f894 e001 	ldrb.w	lr, [r4, #1]
 800459c:	7859      	ldrb	r1, [r3, #1]
 800459e:	2900      	cmp	r1, #0
 80045a0:	bf14      	ite	ne
 80045a2:	2200      	movne	r2, #0
 80045a4:	f00e 0201 	andeq.w	r2, lr, #1
 80045a8:	b112      	cbz	r2, 80045b0 <KeyboardCheck+0x150>
 80045aa:	4a6d      	ldr	r2, [pc, #436]	; (8004760 <KeyboardCheck+0x300>)
 80045ac:	2101      	movs	r1, #1
 80045ae:	7051      	strb	r1, [r2, #1]
 80045b0:	f894 c002 	ldrb.w	ip, [r4, #2]
 80045b4:	7899      	ldrb	r1, [r3, #2]
 80045b6:	2900      	cmp	r1, #0
 80045b8:	bf14      	ite	ne
 80045ba:	2200      	movne	r2, #0
 80045bc:	f00c 0201 	andeq.w	r2, ip, #1
 80045c0:	b112      	cbz	r2, 80045c8 <KeyboardCheck+0x168>
 80045c2:	4a67      	ldr	r2, [pc, #412]	; (8004760 <KeyboardCheck+0x300>)
 80045c4:	2101      	movs	r1, #1
 80045c6:	7091      	strb	r1, [r2, #2]
 80045c8:	78e7      	ldrb	r7, [r4, #3]
 80045ca:	78d9      	ldrb	r1, [r3, #3]
 80045cc:	2900      	cmp	r1, #0
 80045ce:	bf14      	ite	ne
 80045d0:	2200      	movne	r2, #0
 80045d2:	f007 0201 	andeq.w	r2, r7, #1
 80045d6:	b112      	cbz	r2, 80045de <KeyboardCheck+0x17e>
 80045d8:	4a61      	ldr	r2, [pc, #388]	; (8004760 <KeyboardCheck+0x300>)
 80045da:	2101      	movs	r1, #1
 80045dc:	70d1      	strb	r1, [r2, #3]
 80045de:	7922      	ldrb	r2, [r4, #4]
 80045e0:	7919      	ldrb	r1, [r3, #4]
 80045e2:	9201      	str	r2, [sp, #4]
 80045e4:	2900      	cmp	r1, #0
 80045e6:	bf14      	ite	ne
 80045e8:	2200      	movne	r2, #0
 80045ea:	f002 0201 	andeq.w	r2, r2, #1
 80045ee:	b112      	cbz	r2, 80045f6 <KeyboardCheck+0x196>
 80045f0:	4a5b      	ldr	r2, [pc, #364]	; (8004760 <KeyboardCheck+0x300>)
 80045f2:	2101      	movs	r1, #1
 80045f4:	7111      	strb	r1, [r2, #4]
 80045f6:	7962      	ldrb	r2, [r4, #5]
 80045f8:	7959      	ldrb	r1, [r3, #5]
 80045fa:	9202      	str	r2, [sp, #8]
 80045fc:	2900      	cmp	r1, #0
 80045fe:	bf14      	ite	ne
 8004600:	2200      	movne	r2, #0
 8004602:	f002 0201 	andeq.w	r2, r2, #1
 8004606:	b112      	cbz	r2, 800460e <KeyboardCheck+0x1ae>
 8004608:	4a55      	ldr	r2, [pc, #340]	; (8004760 <KeyboardCheck+0x300>)
 800460a:	2101      	movs	r1, #1
 800460c:	7151      	strb	r1, [r2, #5]
 800460e:	79a2      	ldrb	r2, [r4, #6]
 8004610:	7999      	ldrb	r1, [r3, #6]
 8004612:	9203      	str	r2, [sp, #12]
 8004614:	2900      	cmp	r1, #0
 8004616:	bf14      	ite	ne
 8004618:	2200      	movne	r2, #0
 800461a:	f002 0201 	andeq.w	r2, r2, #1
 800461e:	b112      	cbz	r2, 8004626 <KeyboardCheck+0x1c6>
 8004620:	4a4f      	ldr	r2, [pc, #316]	; (8004760 <KeyboardCheck+0x300>)
 8004622:	2101      	movs	r1, #1
 8004624:	7191      	strb	r1, [r2, #6]
 8004626:	79e2      	ldrb	r2, [r4, #7]
 8004628:	79d9      	ldrb	r1, [r3, #7]
 800462a:	9204      	str	r2, [sp, #16]
 800462c:	2900      	cmp	r1, #0
 800462e:	bf14      	ite	ne
 8004630:	2200      	movne	r2, #0
 8004632:	f002 0201 	andeq.w	r2, r2, #1
 8004636:	b112      	cbz	r2, 800463e <KeyboardCheck+0x1de>
 8004638:	4a49      	ldr	r2, [pc, #292]	; (8004760 <KeyboardCheck+0x300>)
 800463a:	2101      	movs	r1, #1
 800463c:	71d1      	strb	r1, [r2, #7]
 800463e:	7a22      	ldrb	r2, [r4, #8]
 8004640:	7a19      	ldrb	r1, [r3, #8]
 8004642:	9205      	str	r2, [sp, #20]
 8004644:	2900      	cmp	r1, #0
 8004646:	bf14      	ite	ne
 8004648:	2200      	movne	r2, #0
 800464a:	f002 0201 	andeq.w	r2, r2, #1
 800464e:	b112      	cbz	r2, 8004656 <KeyboardCheck+0x1f6>
 8004650:	4a43      	ldr	r2, [pc, #268]	; (8004760 <KeyboardCheck+0x300>)
 8004652:	2101      	movs	r1, #1
 8004654:	7211      	strb	r1, [r2, #8]
 8004656:	7a66      	ldrb	r6, [r4, #9]
 8004658:	7a5a      	ldrb	r2, [r3, #9]
 800465a:	2a00      	cmp	r2, #0
 800465c:	bf14      	ite	ne
 800465e:	2300      	movne	r3, #0
 8004660:	f006 0301 	andeq.w	r3, r6, #1
 8004664:	b113      	cbz	r3, 800466c <KeyboardCheck+0x20c>
 8004666:	4b3e      	ldr	r3, [pc, #248]	; (8004760 <KeyboardCheck+0x300>)
 8004668:	2201      	movs	r2, #1
 800466a:	725a      	strb	r2, [r3, #9]
 800466c:	4a3b      	ldr	r2, [pc, #236]	; (800475c <KeyboardCheck+0x2fc>)
 800466e:	7aa5      	ldrb	r5, [r4, #10]
 8004670:	7a91      	ldrb	r1, [r2, #10]
 8004672:	2900      	cmp	r1, #0
 8004674:	bf14      	ite	ne
 8004676:	2300      	movne	r3, #0
 8004678:	f005 0301 	andeq.w	r3, r5, #1
 800467c:	b113      	cbz	r3, 8004684 <KeyboardCheck+0x224>
 800467e:	4b38      	ldr	r3, [pc, #224]	; (8004760 <KeyboardCheck+0x300>)
 8004680:	2101      	movs	r1, #1
 8004682:	7299      	strb	r1, [r3, #10]
 8004684:	4b31      	ldr	r3, [pc, #196]	; (800474c <KeyboardCheck+0x2ec>)
 8004686:	7ad1      	ldrb	r1, [r2, #11]
 8004688:	7adc      	ldrb	r4, [r3, #11]
 800468a:	2900      	cmp	r1, #0
 800468c:	bf14      	ite	ne
 800468e:	2200      	movne	r2, #0
 8004690:	f004 0201 	andeq.w	r2, r4, #1
 8004694:	b112      	cbz	r2, 800469c <KeyboardCheck+0x23c>
 8004696:	4a32      	ldr	r2, [pc, #200]	; (8004760 <KeyboardCheck+0x300>)
 8004698:	2101      	movs	r1, #1
 800469a:	72d1      	strb	r1, [r2, #11]
 800469c:	f8df 90bc 	ldr.w	r9, [pc, #188]	; 800475c <KeyboardCheck+0x2fc>
 80046a0:	7b19      	ldrb	r1, [r3, #12]
 80046a2:	f899 200c 	ldrb.w	r2, [r9, #12]
 80046a6:	2a00      	cmp	r2, #0
 80046a8:	bf14      	ite	ne
 80046aa:	2300      	movne	r3, #0
 80046ac:	f001 0301 	andeq.w	r3, r1, #1
 80046b0:	b113      	cbz	r3, 80046b8 <KeyboardCheck+0x258>
 80046b2:	4b2b      	ldr	r3, [pc, #172]	; (8004760 <KeyboardCheck+0x300>)
 80046b4:	2201      	movs	r2, #1
 80046b6:	731a      	strb	r2, [r3, #12]
 80046b8:	4b24      	ldr	r3, [pc, #144]	; (800474c <KeyboardCheck+0x2ec>)
 80046ba:	f899 a00d 	ldrb.w	sl, [r9, #13]
 80046be:	7b5a      	ldrb	r2, [r3, #13]
 80046c0:	f1ba 0f00 	cmp.w	sl, #0
 80046c4:	bf14      	ite	ne
 80046c6:	f04f 0900 	movne.w	r9, #0
 80046ca:	f002 0901 	andeq.w	r9, r2, #1
 80046ce:	f1b9 0f00 	cmp.w	r9, #0
 80046d2:	d005      	beq.n	80046e0 <KeyboardCheck+0x280>
 80046d4:	f8df 9088 	ldr.w	r9, [pc, #136]	; 8004760 <KeyboardCheck+0x300>
 80046d8:	f04f 0a01 	mov.w	sl, #1
 80046dc:	f889 a00d 	strb.w	sl, [r9, #13]
 80046e0:	f8df 9078 	ldr.w	r9, [pc, #120]	; 800475c <KeyboardCheck+0x2fc>
 80046e4:	7b9b      	ldrb	r3, [r3, #14]
 80046e6:	f899 b00e 	ldrb.w	fp, [r9, #14]
 80046ea:	9306      	str	r3, [sp, #24]
 80046ec:	f1bb 0f00 	cmp.w	fp, #0
 80046f0:	bf14      	ite	ne
 80046f2:	2300      	movne	r3, #0
 80046f4:	f003 0301 	andeq.w	r3, r3, #1
 80046f8:	b12b      	cbz	r3, 8004706 <KeyboardCheck+0x2a6>
 80046fa:	f8df a064 	ldr.w	sl, [pc, #100]	; 8004760 <KeyboardCheck+0x300>
 80046fe:	f04f 0b01 	mov.w	fp, #1
 8004702:	f88a b00e 	strb.w	fp, [sl, #14]
 8004706:	f899 900f 	ldrb.w	r9, [r9, #15]
 800470a:	9b07      	ldr	r3, [sp, #28]
 800470c:	ea43 0909 	orr.w	r9, r3, r9
 8004710:	fa5f f989 	uxtb.w	r9, r9
 8004714:	f1b9 0f00 	cmp.w	r9, #0
 8004718:	d105      	bne.n	8004726 <KeyboardCheck+0x2c6>
 800471a:	f8df 9044 	ldr.w	r9, [pc, #68]	; 8004760 <KeyboardCheck+0x300>
 800471e:	f04f 0a01 	mov.w	sl, #1
 8004722:	f889 a00f 	strb.w	sl, [r9, #15]
 8004726:	f8df 9034 	ldr.w	r9, [pc, #52]	; 800475c <KeyboardCheck+0x2fc>
 800472a:	9b01      	ldr	r3, [sp, #4]
 800472c:	f889 3004 	strb.w	r3, [r9, #4]
 8004730:	9b02      	ldr	r3, [sp, #8]
 8004732:	f889 3005 	strb.w	r3, [r9, #5]
 8004736:	9b03      	ldr	r3, [sp, #12]
 8004738:	f889 3006 	strb.w	r3, [r9, #6]
 800473c:	9b04      	ldr	r3, [sp, #16]
 800473e:	f889 3007 	strb.w	r3, [r9, #7]
 8004742:	9b05      	ldr	r3, [sp, #20]
 8004744:	e00e      	b.n	8004764 <KeyboardCheck+0x304>
 8004746:	bf00      	nop
 8004748:	40022400 	.word	0x40022400
 800474c:	20000b94 	.word	0x20000b94
 8004750:	40021c00 	.word	0x40021c00
 8004754:	40020800 	.word	0x40020800
 8004758:	40022000 	.word	0x40022000
 800475c:	20000b84 	.word	0x20000b84
 8004760:	20000b74 	.word	0x20000b74
 8004764:	f889 3008 	strb.w	r3, [r9, #8]
 8004768:	9b06      	ldr	r3, [sp, #24]
 800476a:	f889 8000 	strb.w	r8, [r9]
 800476e:	f889 e001 	strb.w	lr, [r9, #1]
 8004772:	f889 c002 	strb.w	ip, [r9, #2]
 8004776:	f889 7003 	strb.w	r7, [r9, #3]
 800477a:	f889 6009 	strb.w	r6, [r9, #9]
 800477e:	f889 500a 	strb.w	r5, [r9, #10]
 8004782:	f889 400b 	strb.w	r4, [r9, #11]
 8004786:	f889 100c 	strb.w	r1, [r9, #12]
 800478a:	f889 200d 	strb.w	r2, [r9, #13]
 800478e:	f889 300e 	strb.w	r3, [r9, #14]
 8004792:	f889 000f 	strb.w	r0, [r9, #15]
 8004796:	b009      	add	sp, #36	; 0x24
 8004798:	e8bd 8ff0 	ldmia.w	sp!, {r4, r5, r6, r7, r8, r9, sl, fp, pc}

0800479c <KeyboardClear>:
 800479c:	4b09      	ldr	r3, [pc, #36]	; (80047c4 <KeyboardClear+0x28>)
 800479e:	2200      	movs	r2, #0
 80047a0:	701a      	strb	r2, [r3, #0]
 80047a2:	705a      	strb	r2, [r3, #1]
 80047a4:	709a      	strb	r2, [r3, #2]
 80047a6:	70da      	strb	r2, [r3, #3]
 80047a8:	711a      	strb	r2, [r3, #4]
 80047aa:	715a      	strb	r2, [r3, #5]
 80047ac:	719a      	strb	r2, [r3, #6]
 80047ae:	71da      	strb	r2, [r3, #7]
 80047b0:	721a      	strb	r2, [r3, #8]
 80047b2:	725a      	strb	r2, [r3, #9]
 80047b4:	729a      	strb	r2, [r3, #10]
 80047b6:	72da      	strb	r2, [r3, #11]
 80047b8:	731a      	strb	r2, [r3, #12]
 80047ba:	735a      	strb	r2, [r3, #13]
 80047bc:	739a      	strb	r2, [r3, #14]
 80047be:	73da      	strb	r2, [r3, #15]
 80047c0:	4770      	bx	lr
 80047c2:	bf00      	nop
 80047c4:	20000b74 	.word	0x20000b74

080047c8 <KeyboardWork>:
 80047c8:	b5f7      	push	{r0, r1, r2, r4, r5, r6, r7, lr}
 80047ca:	4b91      	ldr	r3, [pc, #580]	; (8004a10 <KeyboardWork+0x248>)
 80047cc:	4c91      	ldr	r4, [pc, #580]	; (8004a14 <KeyboardWork+0x24c>)
 80047ce:	795a      	ldrb	r2, [r3, #5]
 80047d0:	791b      	ldrb	r3, [r3, #4]
 80047d2:	421a      	tst	r2, r3
 80047d4:	d004      	beq.n	80047e0 <KeyboardWork+0x18>
 80047d6:	2315      	movs	r3, #21
 80047d8:	7023      	strb	r3, [r4, #0]
 80047da:	4b8f      	ldr	r3, [pc, #572]	; (8004a18 <KeyboardWork+0x250>)
 80047dc:	2200      	movs	r2, #0
 80047de:	601a      	str	r2, [r3, #0]
 80047e0:	4e8e      	ldr	r6, [pc, #568]	; (8004a1c <KeyboardWork+0x254>)
 80047e2:	7823      	ldrb	r3, [r4, #0]
 80047e4:	7832      	ldrb	r2, [r6, #0]
 80047e6:	2b04      	cmp	r3, #4
 80047e8:	bf8c      	ite	hi
 80047ea:	2100      	movhi	r1, #0
 80047ec:	f002 0101 	andls.w	r1, r2, #1
 80047f0:	2900      	cmp	r1, #0
 80047f2:	d036      	beq.n	8004862 <KeyboardWork+0x9a>
 80047f4:	4a8a      	ldr	r2, [pc, #552]	; (8004a20 <KeyboardWork+0x258>)
 80047f6:	7013      	strb	r3, [r2, #0]
 80047f8:	2314      	movs	r3, #20
 80047fa:	7023      	strb	r3, [r4, #0]
 80047fc:	2300      	movs	r3, #0
 80047fe:	7033      	strb	r3, [r6, #0]
 8004800:	78b3      	ldrb	r3, [r6, #2]
 8004802:	2b00      	cmp	r3, #0
 8004804:	d148      	bne.n	8004898 <KeyboardWork+0xd0>
 8004806:	2500      	movs	r5, #0
 8004808:	78f3      	ldrb	r3, [r6, #3]
 800480a:	2b00      	cmp	r3, #0
 800480c:	d152      	bne.n	80048b4 <KeyboardWork+0xec>
 800480e:	2700      	movs	r7, #0
 8004810:	7873      	ldrb	r3, [r6, #1]
 8004812:	2b00      	cmp	r3, #0
 8004814:	f000 8089 	beq.w	800492a <KeyboardWork+0x162>
 8004818:	7823      	ldrb	r3, [r4, #0]
 800481a:	4a7f      	ldr	r2, [pc, #508]	; (8004a18 <KeyboardWork+0x250>)
 800481c:	2b03      	cmp	r3, #3
 800481e:	f9b2 c000 	ldrsh.w	ip, [r2]
 8004822:	f040 8117 	bne.w	8004a54 <KeyboardWork+0x28c>
 8004826:	497f      	ldr	r1, [pc, #508]	; (8004a24 <KeyboardWork+0x25c>)
 8004828:	7c0b      	ldrb	r3, [r1, #16]
 800482a:	2b00      	cmp	r3, #0
 800482c:	d054      	beq.n	80048d8 <KeyboardWork+0x110>
 800482e:	f10c 30ff 	add.w	r0, ip, #4294967295
 8004832:	2300      	movs	r3, #0
 8004834:	2812      	cmp	r0, #18
 8004836:	d84f      	bhi.n	80048d8 <KeyboardWork+0x110>
 8004838:	e8df f010 	tbh	[pc, r0, lsl #1]
 800483c:	00ba004c 	.word	0x00ba004c
 8004840:	00c000bd 	.word	0x00c000bd
 8004844:	00c600c3 	.word	0x00c600c3
 8004848:	00cc00c9 	.word	0x00cc00c9
 800484c:	00d200cf 	.word	0x00d200cf
 8004850:	00d800d5 	.word	0x00d800d5
 8004854:	00e000dc 	.word	0x00e000dc
 8004858:	00e700e4 	.word	0x00e700e4
 800485c:	01040100 	.word	0x01040100
 8004860:	0108      	.short	0x0108
 8004862:	2b14      	cmp	r3, #20
 8004864:	bf14      	ite	ne
 8004866:	2000      	movne	r0, #0
 8004868:	f002 0001 	andeq.w	r0, r2, #1
 800486c:	b120      	cbz	r0, 8004878 <KeyboardWork+0xb0>
 800486e:	4b6c      	ldr	r3, [pc, #432]	; (8004a20 <KeyboardWork+0x258>)
 8004870:	7031      	strb	r1, [r6, #0]
 8004872:	781b      	ldrb	r3, [r3, #0]
 8004874:	7023      	strb	r3, [r4, #0]
 8004876:	e7c3      	b.n	8004800 <KeyboardWork+0x38>
 8004878:	1f59      	subs	r1, r3, #5
 800487a:	2b15      	cmp	r3, #21
 800487c:	bf18      	it	ne
 800487e:	2902      	cmpne	r1, #2
 8004880:	bf94      	ite	ls
 8004882:	2301      	movls	r3, #1
 8004884:	2300      	movhi	r3, #0
 8004886:	4213      	tst	r3, r2
 8004888:	d0ba      	beq.n	8004800 <KeyboardWork+0x38>
 800488a:	4a65      	ldr	r2, [pc, #404]	; (8004a20 <KeyboardWork+0x258>)
 800488c:	2301      	movs	r3, #1
 800488e:	7023      	strb	r3, [r4, #0]
 8004890:	7013      	strb	r3, [r2, #0]
 8004892:	4b61      	ldr	r3, [pc, #388]	; (8004a18 <KeyboardWork+0x250>)
 8004894:	8058      	strh	r0, [r3, #2]
 8004896:	e7b3      	b.n	8004800 <KeyboardWork+0x38>
 8004898:	4b5f      	ldr	r3, [pc, #380]	; (8004a18 <KeyboardWork+0x250>)
 800489a:	f9b3 5002 	ldrsh.w	r5, [r3, #2]
 800489e:	b13d      	cbz	r5, 80048b0 <KeyboardWork+0xe8>
 80048a0:	3d01      	subs	r5, #1
 80048a2:	b22d      	sxth	r5, r5
 80048a4:	805d      	strh	r5, [r3, #2]
 80048a6:	2d00      	cmp	r5, #0
 80048a8:	d1ad      	bne.n	8004806 <KeyboardWork+0x3e>
 80048aa:	88da      	ldrh	r2, [r3, #6]
 80048ac:	805a      	strh	r2, [r3, #2]
 80048ae:	e7ab      	b.n	8004808 <KeyboardWork+0x40>
 80048b0:	2501      	movs	r5, #1
 80048b2:	e7a9      	b.n	8004808 <KeyboardWork+0x40>
 80048b4:	4a58      	ldr	r2, [pc, #352]	; (8004a18 <KeyboardWork+0x250>)
 80048b6:	f9b2 3002 	ldrsh.w	r3, [r2, #2]
 80048ba:	b14b      	cbz	r3, 80048d0 <KeyboardWork+0x108>
 80048bc:	f9b2 1006 	ldrsh.w	r1, [r2, #6]
 80048c0:	3301      	adds	r3, #1
 80048c2:	b21b      	sxth	r3, r3
 80048c4:	4299      	cmp	r1, r3
 80048c6:	8053      	strh	r3, [r2, #2]
 80048c8:	bfbc      	itt	lt
 80048ca:	2301      	movlt	r3, #1
 80048cc:	8053      	strhlt	r3, [r2, #2]
 80048ce:	e79e      	b.n	800480e <KeyboardWork+0x46>
 80048d0:	2701      	movs	r7, #1
 80048d2:	e79d      	b.n	8004810 <KeyboardWork+0x48>
 80048d4:	4854      	ldr	r0, [pc, #336]	; (8004a28 <KeyboardWork+0x260>)
 80048d6:	60c3      	str	r3, [r0, #12]
 80048d8:	6808      	ldr	r0, [r1, #0]
 80048da:	68cb      	ldr	r3, [r1, #12]
 80048dc:	4298      	cmp	r0, r3
 80048de:	f04f 0300 	mov.w	r3, #0
 80048e2:	600b      	str	r3, [r1, #0]
 80048e4:	bf04      	itt	eq
 80048e6:	2301      	moveq	r3, #1
 80048e8:	740b      	strbeq	r3, [r1, #16]
 80048ea:	7821      	ldrb	r1, [r4, #0]
 80048ec:	2907      	cmp	r1, #7
 80048ee:	d10a      	bne.n	8004906 <KeyboardWork+0x13e>
 80048f0:	f1bc 0f04 	cmp.w	ip, #4
 80048f4:	d107      	bne.n	8004906 <KeyboardWork+0x13e>
 80048f6:	484d      	ldr	r0, [pc, #308]	; (8004a2c <KeyboardWork+0x264>)
 80048f8:	f890 3028 	ldrb.w	r3, [r0, #40]	; 0x28
 80048fc:	fab3 f383 	clz	r3, r3
 8004900:	095b      	lsrs	r3, r3, #5
 8004902:	f880 3028 	strb.w	r3, [r0, #40]	; 0x28
 8004906:	f9b2 3006 	ldrsh.w	r3, [r2, #6]
 800490a:	b133      	cbz	r3, 800491a <KeyboardWork+0x152>
 800490c:	f9b2 3002 	ldrsh.w	r3, [r2, #2]
 8004910:	2b00      	cmp	r3, #0
 8004912:	f000 80d4 	beq.w	8004abe <KeyboardWork+0x2f6>
 8004916:	2300      	movs	r3, #0
 8004918:	8053      	strh	r3, [r2, #2]
 800491a:	2915      	cmp	r1, #21
 800491c:	d105      	bne.n	800492a <KeyboardWork+0x162>
 800491e:	f1bc 0f05 	cmp.w	ip, #5
 8004922:	bf02      	ittt	eq
 8004924:	4b42      	ldreq	r3, [pc, #264]	; (8004a30 <KeyboardWork+0x268>)
 8004926:	2201      	moveq	r2, #1
 8004928:	741a      	strbeq	r2, [r3, #16]
 800492a:	7933      	ldrb	r3, [r6, #4]
 800492c:	b173      	cbz	r3, 800494c <KeyboardWork+0x184>
 800492e:	483a      	ldr	r0, [pc, #232]	; (8004a18 <KeyboardWork+0x250>)
 8004930:	f9b0 1002 	ldrsh.w	r1, [r0, #2]
 8004934:	2900      	cmp	r1, #0
 8004936:	f040 80ca 	bne.w	8004ace <KeyboardWork+0x306>
 800493a:	8803      	ldrh	r3, [r0, #0]
 800493c:	f9b0 2004 	ldrsh.w	r2, [r0, #4]
 8004940:	3301      	adds	r3, #1
 8004942:	b21b      	sxth	r3, r3
 8004944:	429a      	cmp	r2, r3
 8004946:	8003      	strh	r3, [r0, #0]
 8004948:	da00      	bge.n	800494c <KeyboardWork+0x184>
 800494a:	8001      	strh	r1, [r0, #0]
 800494c:	7973      	ldrb	r3, [r6, #5]
 800494e:	b16b      	cbz	r3, 800496c <KeyboardWork+0x1a4>
 8004950:	4831      	ldr	r0, [pc, #196]	; (8004a18 <KeyboardWork+0x250>)
 8004952:	f9b0 1002 	ldrsh.w	r1, [r0, #2]
 8004956:	2900      	cmp	r1, #0
 8004958:	f040 80c2 	bne.w	8004ae0 <KeyboardWork+0x318>
 800495c:	8803      	ldrh	r3, [r0, #0]
 800495e:	3b01      	subs	r3, #1
 8004960:	b21b      	sxth	r3, r3
 8004962:	2b00      	cmp	r3, #0
 8004964:	8003      	strh	r3, [r0, #0]
 8004966:	da01      	bge.n	800496c <KeyboardWork+0x1a4>
 8004968:	8883      	ldrh	r3, [r0, #4]
 800496a:	8003      	strh	r3, [r0, #0]
 800496c:	7823      	ldrb	r3, [r4, #0]
 800496e:	2b05      	cmp	r3, #5
 8004970:	d810      	bhi.n	8004994 <KeyboardWork+0x1cc>
 8004972:	b10d      	cbz	r5, 8004978 <KeyboardWork+0x1b0>
 8004974:	3301      	adds	r3, #1
 8004976:	7023      	strb	r3, [r4, #0]
 8004978:	b117      	cbz	r7, 8004980 <KeyboardWork+0x1b8>
 800497a:	7823      	ldrb	r3, [r4, #0]
 800497c:	3b01      	subs	r3, #1
 800497e:	7023      	strb	r3, [r4, #0]
 8004980:	78b2      	ldrb	r2, [r6, #2]
 8004982:	78f1      	ldrb	r1, [r6, #3]
 8004984:	7823      	ldrb	r3, [r4, #0]
 8004986:	430a      	orrs	r2, r1
 8004988:	d004      	beq.n	8004994 <KeyboardWork+0x1cc>
 800498a:	2b05      	cmp	r3, #5
 800498c:	f240 80b1 	bls.w	8004af2 <KeyboardWork+0x32a>
 8004990:	2301      	movs	r3, #1
 8004992:	7023      	strb	r3, [r4, #0]
 8004994:	4b27      	ldr	r3, [pc, #156]	; (8004a34 <KeyboardWork+0x26c>)
 8004996:	7822      	ldrb	r2, [r4, #0]
 8004998:	7819      	ldrb	r1, [r3, #0]
 800499a:	4291      	cmp	r1, r2
 800499c:	bf1f      	itttt	ne
 800499e:	701a      	strbne	r2, [r3, #0]
 80049a0:	4b25      	ldrne	r3, [pc, #148]	; (8004a38 <KeyboardWork+0x270>)
 80049a2:	2201      	movne	r2, #1
 80049a4:	701a      	strbne	r2, [r3, #0]
 80049a6:	b003      	add	sp, #12
 80049a8:	e8bd 40f0 	ldmia.w	sp!, {r4, r5, r6, r7, lr}
 80049ac:	f7ff bef6 	b.w	800479c <KeyboardClear>
 80049b0:	481d      	ldr	r0, [pc, #116]	; (8004a28 <KeyboardWork+0x260>)
 80049b2:	6203      	str	r3, [r0, #32]
 80049b4:	e790      	b.n	80048d8 <KeyboardWork+0x110>
 80049b6:	481c      	ldr	r0, [pc, #112]	; (8004a28 <KeyboardWork+0x260>)
 80049b8:	6343      	str	r3, [r0, #52]	; 0x34
 80049ba:	e78d      	b.n	80048d8 <KeyboardWork+0x110>
 80049bc:	481a      	ldr	r0, [pc, #104]	; (8004a28 <KeyboardWork+0x260>)
 80049be:	66c3      	str	r3, [r0, #108]	; 0x6c
 80049c0:	e78a      	b.n	80048d8 <KeyboardWork+0x110>
 80049c2:	4819      	ldr	r0, [pc, #100]	; (8004a28 <KeyboardWork+0x260>)
 80049c4:	6743      	str	r3, [r0, #116]	; 0x74
 80049c6:	e787      	b.n	80048d8 <KeyboardWork+0x110>
 80049c8:	4817      	ldr	r0, [pc, #92]	; (8004a28 <KeyboardWork+0x260>)
 80049ca:	67c3      	str	r3, [r0, #124]	; 0x7c
 80049cc:	e784      	b.n	80048d8 <KeyboardWork+0x110>
 80049ce:	4816      	ldr	r0, [pc, #88]	; (8004a28 <KeyboardWork+0x260>)
 80049d0:	6183      	str	r3, [r0, #24]
 80049d2:	e781      	b.n	80048d8 <KeyboardWork+0x110>
 80049d4:	4814      	ldr	r0, [pc, #80]	; (8004a28 <KeyboardWork+0x260>)
 80049d6:	62c3      	str	r3, [r0, #44]	; 0x2c
 80049d8:	e77e      	b.n	80048d8 <KeyboardWork+0x110>
 80049da:	4813      	ldr	r0, [pc, #76]	; (8004a28 <KeyboardWork+0x260>)
 80049dc:	6403      	str	r3, [r0, #64]	; 0x40
 80049de:	e77b      	b.n	80048d8 <KeyboardWork+0x110>
 80049e0:	4811      	ldr	r0, [pc, #68]	; (8004a28 <KeyboardWork+0x260>)
 80049e2:	6603      	str	r3, [r0, #96]	; 0x60
 80049e4:	e778      	b.n	80048d8 <KeyboardWork+0x110>
 80049e6:	4810      	ldr	r0, [pc, #64]	; (8004a28 <KeyboardWork+0x260>)
 80049e8:	6643      	str	r3, [r0, #100]	; 0x64
 80049ea:	e775      	b.n	80048d8 <KeyboardWork+0x110>
 80049ec:	480e      	ldr	r0, [pc, #56]	; (8004a28 <KeyboardWork+0x260>)
 80049ee:	f8c0 3098 	str.w	r3, [r0, #152]	; 0x98
 80049f2:	e771      	b.n	80048d8 <KeyboardWork+0x110>
 80049f4:	480c      	ldr	r0, [pc, #48]	; (8004a28 <KeyboardWork+0x260>)
 80049f6:	f8c0 309c 	str.w	r3, [r0, #156]	; 0x9c
 80049fa:	e76d      	b.n	80048d8 <KeyboardWork+0x110>
 80049fc:	480a      	ldr	r0, [pc, #40]	; (8004a28 <KeyboardWork+0x260>)
 80049fe:	f8c0 30a0 	str.w	r3, [r0, #160]	; 0xa0
 8004a02:	e769      	b.n	80048d8 <KeyboardWork+0x110>
 8004a04:	4808      	ldr	r0, [pc, #32]	; (8004a28 <KeyboardWork+0x260>)
 8004a06:	6503      	str	r3, [r0, #80]	; 0x50
 8004a08:	e766      	b.n	80048d8 <KeyboardWork+0x110>
 8004a0a:	4807      	ldr	r0, [pc, #28]	; (8004a28 <KeyboardWork+0x260>)
 8004a0c:	6583      	str	r3, [r0, #88]	; 0x58
 8004a0e:	e763      	b.n	80048d8 <KeyboardWork+0x110>
 8004a10:	20000b94 	.word	0x20000b94
 8004a14:	20000018 	.word	0x20000018
 8004a18:	20000234 	.word	0x20000234
 8004a1c:	20000b74 	.word	0x20000b74
 8004a20:	2000001a 	.word	0x2000001a
 8004a24:	200002c0 	.word	0x200002c0
 8004a28:	20000124 	.word	0x20000124
 8004a2c:	20000200 	.word	0x20000200
 8004a30:	200002d4 	.word	0x200002d4
 8004a34:	20000019 	.word	0x20000019
 8004a38:	20000b6c 	.word	0x20000b6c
 8004a3c:	482f      	ldr	r0, [pc, #188]	; (8004afc <KeyboardWork+0x334>)
 8004a3e:	f8c0 308c 	str.w	r3, [r0, #140]	; 0x8c
 8004a42:	e749      	b.n	80048d8 <KeyboardWork+0x110>
 8004a44:	482d      	ldr	r0, [pc, #180]	; (8004afc <KeyboardWork+0x334>)
 8004a46:	f8c0 3084 	str.w	r3, [r0, #132]	; 0x84
 8004a4a:	e745      	b.n	80048d8 <KeyboardWork+0x110>
 8004a4c:	482b      	ldr	r0, [pc, #172]	; (8004afc <KeyboardWork+0x334>)
 8004a4e:	f8c0 30a8 	str.w	r3, [r0, #168]	; 0xa8
 8004a52:	e741      	b.n	80048d8 <KeyboardWork+0x110>
 8004a54:	2b04      	cmp	r3, #4
 8004a56:	d11c      	bne.n	8004a92 <KeyboardWork+0x2ca>
 8004a58:	f1bc 0f04 	cmp.w	ip, #4
 8004a5c:	f63f af45 	bhi.w	80048ea <KeyboardWork+0x122>
 8004a60:	e8df f00c 	tbb	[pc, ip]
 8004a64:	0f0b0703 	.word	0x0f0b0703
 8004a68:	13          	.byte	0x13
 8004a69:	00          	.byte	0x00
 8004a6a:	4b25      	ldr	r3, [pc, #148]	; (8004b00 <KeyboardWork+0x338>)
 8004a6c:	2101      	movs	r1, #1
 8004a6e:	7019      	strb	r1, [r3, #0]
 8004a70:	e73b      	b.n	80048ea <KeyboardWork+0x122>
 8004a72:	4b23      	ldr	r3, [pc, #140]	; (8004b00 <KeyboardWork+0x338>)
 8004a74:	2101      	movs	r1, #1
 8004a76:	7199      	strb	r1, [r3, #6]
 8004a78:	e737      	b.n	80048ea <KeyboardWork+0x122>
 8004a7a:	4b21      	ldr	r3, [pc, #132]	; (8004b00 <KeyboardWork+0x338>)
 8004a7c:	2101      	movs	r1, #1
 8004a7e:	7319      	strb	r1, [r3, #12]
 8004a80:	e733      	b.n	80048ea <KeyboardWork+0x122>
 8004a82:	4b1f      	ldr	r3, [pc, #124]	; (8004b00 <KeyboardWork+0x338>)
 8004a84:	2101      	movs	r1, #1
 8004a86:	7499      	strb	r1, [r3, #18]
 8004a88:	e72f      	b.n	80048ea <KeyboardWork+0x122>
 8004a8a:	4b1d      	ldr	r3, [pc, #116]	; (8004b00 <KeyboardWork+0x338>)
 8004a8c:	2101      	movs	r1, #1
 8004a8e:	7619      	strb	r1, [r3, #24]
 8004a90:	e72b      	b.n	80048ea <KeyboardWork+0x122>
 8004a92:	2b05      	cmp	r3, #5
 8004a94:	f47f af29 	bne.w	80048ea <KeyboardWork+0x122>
 8004a98:	481a      	ldr	r0, [pc, #104]	; (8004b04 <KeyboardWork+0x33c>)
 8004a9a:	e9d0 1300 	ldrd	r1, r3, [r0]
 8004a9e:	4299      	cmp	r1, r3
 8004aa0:	d00a      	beq.n	8004ab8 <KeyboardWork+0x2f0>
 8004aa2:	f9b2 3002 	ldrsh.w	r3, [r2, #2]
 8004aa6:	2b00      	cmp	r3, #0
 8004aa8:	f43f af1f 	beq.w	80048ea <KeyboardWork+0x122>
 8004aac:	f44f 737a 	mov.w	r3, #1000	; 0x3e8
 8004ab0:	6083      	str	r3, [r0, #8]
 8004ab2:	2300      	movs	r3, #0
 8004ab4:	6003      	str	r3, [r0, #0]
 8004ab6:	e718      	b.n	80048ea <KeyboardWork+0x122>
 8004ab8:	2306      	movs	r3, #6
 8004aba:	7023      	strb	r3, [r4, #0]
 8004abc:	e715      	b.n	80048ea <KeyboardWork+0x122>
 8004abe:	2903      	cmp	r1, #3
 8004ac0:	d001      	beq.n	8004ac6 <KeyboardWork+0x2fe>
 8004ac2:	2905      	cmp	r1, #5
 8004ac4:	d101      	bne.n	8004aca <KeyboardWork+0x302>
 8004ac6:	2304      	movs	r3, #4
 8004ac8:	e726      	b.n	8004918 <KeyboardWork+0x150>
 8004aca:	2301      	movs	r3, #1
 8004acc:	e724      	b.n	8004918 <KeyboardWork+0x150>
 8004ace:	2301      	movs	r3, #1
 8004ad0:	9300      	str	r3, [sp, #0]
 8004ad2:	f9b0 2006 	ldrsh.w	r2, [r0, #6]
 8004ad6:	6880      	ldr	r0, [r0, #8]
 8004ad8:	2300      	movs	r3, #0
 8004ada:	f000 fd9d 	bl	8005618 <NumberChange>
 8004ade:	e735      	b.n	800494c <KeyboardWork+0x184>
 8004ae0:	2300      	movs	r3, #0
 8004ae2:	9300      	str	r3, [sp, #0]
 8004ae4:	f9b0 2006 	ldrsh.w	r2, [r0, #6]
 8004ae8:	6880      	ldr	r0, [r0, #8]
 8004aea:	2301      	movs	r3, #1
 8004aec:	f000 fd94 	bl	8005618 <NumberChange>
 8004af0:	e73c      	b.n	800496c <KeyboardWork+0x1a4>
 8004af2:	2b00      	cmp	r3, #0
 8004af4:	f47f af4e 	bne.w	8004994 <KeyboardWork+0x1cc>
 8004af8:	2305      	movs	r3, #5
 8004afa:	e74a      	b.n	8004992 <KeyboardWork+0x1ca>
 8004afc:	20000124 	.word	0x20000124
 8004b00:	20000106 	.word	0x20000106
 8004b04:	200002c0 	.word	0x200002c0

08004b08 <SysTick_Handler>:
 8004b08:	4a19      	ldr	r2, [pc, #100]	; (8004b70 <SysTick_Handler+0x68>)
 8004b0a:	b508      	push	{r3, lr}
 8004b0c:	6813      	ldr	r3, [r2, #0]
 8004b0e:	3301      	adds	r3, #1
 8004b10:	6013      	str	r3, [r2, #0]
 8004b12:	4a18      	ldr	r2, [pc, #96]	; (8004b74 <SysTick_Handler+0x6c>)
 8004b14:	6893      	ldr	r3, [r2, #8]
 8004b16:	b10b      	cbz	r3, 8004b1c <SysTick_Handler+0x14>
 8004b18:	3b01      	subs	r3, #1
 8004b1a:	6093      	str	r3, [r2, #8]
 8004b1c:	4b16      	ldr	r3, [pc, #88]	; (8004b78 <SysTick_Handler+0x70>)
 8004b1e:	781b      	ldrb	r3, [r3, #0]
 8004b20:	b17b      	cbz	r3, 8004b42 <SysTick_Handler+0x3a>
 8004b22:	4a16      	ldr	r2, [pc, #88]	; (8004b7c <SysTick_Handler+0x74>)
 8004b24:	6813      	ldr	r3, [r2, #0]
 8004b26:	f242 710f 	movw	r1, #9999	; 0x270f
 8004b2a:	428b      	cmp	r3, r1
 8004b2c:	bf9c      	itt	ls
 8004b2e:	3301      	addls	r3, #1
 8004b30:	6013      	strls	r3, [r2, #0]
 8004b32:	4a13      	ldr	r2, [pc, #76]	; (8004b80 <SysTick_Handler+0x78>)
 8004b34:	6813      	ldr	r3, [r2, #0]
 8004b36:	f242 710f 	movw	r1, #9999	; 0x270f
 8004b3a:	428b      	cmp	r3, r1
 8004b3c:	bf9c      	itt	ls
 8004b3e:	3301      	addls	r3, #1
 8004b40:	6013      	strls	r3, [r2, #0]
 8004b42:	4810      	ldr	r0, [pc, #64]	; (8004b84 <SysTick_Handler+0x7c>)
 8004b44:	f7fe fe3c 	bl	80037c0 <TimedBitValue_handler>
 8004b48:	480f      	ldr	r0, [pc, #60]	; (8004b88 <SysTick_Handler+0x80>)
 8004b4a:	f7fe fe39 	bl	80037c0 <TimedBitValue_handler>
 8004b4e:	480f      	ldr	r0, [pc, #60]	; (8004b8c <SysTick_Handler+0x84>)
 8004b50:	f7fe fe36 	bl	80037c0 <TimedBitValue_handler>
 8004b54:	480e      	ldr	r0, [pc, #56]	; (8004b90 <SysTick_Handler+0x88>)
 8004b56:	f7fe fe33 	bl	80037c0 <TimedBitValue_handler>
 8004b5a:	480e      	ldr	r0, [pc, #56]	; (8004b94 <SysTick_Handler+0x8c>)
 8004b5c:	f7fe fe30 	bl	80037c0 <TimedBitValue_handler>
 8004b60:	f7ff fc7e 	bl	8004460 <KeyboardCheck>
 8004b64:	f7ff fe30 	bl	80047c8 <KeyboardWork>
 8004b68:	e8bd 4008 	ldmia.w	sp!, {r3, lr}
 8004b6c:	f000 be56 	b.w	800581c <HAL_IncTick>
 8004b70:	20000ba4 	.word	0x20000ba4
 8004b74:	200002c0 	.word	0x200002c0
 8004b78:	20000248 	.word	0x20000248
 8004b7c:	2000090c 	.word	0x2000090c
 8004b80:	20000908 	.word	0x20000908
 8004b84:	20000106 	.word	0x20000106
 8004b88:	2000010c 	.word	0x2000010c
 8004b8c:	20000112 	.word	0x20000112
 8004b90:	20000118 	.word	0x20000118
 8004b94:	2000011e 	.word	0x2000011e

08004b98 <SystemInit>:
 8004b98:	4a03      	ldr	r2, [pc, #12]	; (8004ba8 <SystemInit+0x10>)
 8004b9a:	f8d2 3088 	ldr.w	r3, [r2, #136]	; 0x88
 8004b9e:	f443 0370 	orr.w	r3, r3, #15728640	; 0xf00000
 8004ba2:	f8c2 3088 	str.w	r3, [r2, #136]	; 0x88
 8004ba6:	4770      	bx	lr
 8004ba8:	e000ed00 	.word	0xe000ed00

08004bac <Reset_Handler>:
 8004bac:	f8df d034 	ldr.w	sp, [pc, #52]	; 8004be4 <LoopFillZerobss+0x12>
 8004bb0:	480d      	ldr	r0, [pc, #52]	; (8004be8 <LoopFillZerobss+0x16>)
 8004bb2:	490e      	ldr	r1, [pc, #56]	; (8004bec <LoopFillZerobss+0x1a>)
 8004bb4:	4a0e      	ldr	r2, [pc, #56]	; (8004bf0 <LoopFillZerobss+0x1e>)
 8004bb6:	2300      	movs	r3, #0
 8004bb8:	e002      	b.n	8004bc0 <LoopCopyDataInit>

08004bba <CopyDataInit>:
 8004bba:	58d4      	ldr	r4, [r2, r3]
 8004bbc:	50c4      	str	r4, [r0, r3]
 8004bbe:	3304      	adds	r3, #4

08004bc0 <LoopCopyDataInit>:
 8004bc0:	18c4      	adds	r4, r0, r3
 8004bc2:	428c      	cmp	r4, r1
 8004bc4:	d3f9      	bcc.n	8004bba <CopyDataInit>
 8004bc6:	4a0b      	ldr	r2, [pc, #44]	; (8004bf4 <LoopFillZerobss+0x22>)
 8004bc8:	4c0b      	ldr	r4, [pc, #44]	; (8004bf8 <LoopFillZerobss+0x26>)
 8004bca:	2300      	movs	r3, #0
 8004bcc:	e001      	b.n	8004bd2 <LoopFillZerobss>

08004bce <FillZerobss>:
 8004bce:	6013      	str	r3, [r2, #0]
 8004bd0:	3204      	adds	r2, #4

08004bd2 <LoopFillZerobss>:
 8004bd2:	42a2      	cmp	r2, r4
 8004bd4:	d3fb      	bcc.n	8004bce <FillZerobss>
 8004bd6:	f7ff ffdf 	bl	8004b98 <SystemInit>
 8004bda:	f002 ff19 	bl	8007a10 <__libc_init_array>
 8004bde:	f7fe fed1 	bl	8003984 <main>
 8004be2:	4770      	bx	lr
 8004be4:	20030000 	.word	0x20030000
 8004be8:	20000000 	.word	0x20000000
 8004bec:	20000088 	.word	0x20000088
 8004bf0:	0800dfc0 	.word	0x0800dfc0
 8004bf4:	20000088 	.word	0x20000088
 8004bf8:	20000d08 	.word	0x20000d08

08004bfc <ADC_IRQHandler>:
 8004bfc:	e7fe      	b.n	8004bfc <ADC_IRQHandler>

08004bfe <DrawChar_16>:
 8004bfe:	e92d 4ff0 	stmdb	sp!, {r4, r5, r6, r7, r8, r9, sl, fp, lr}
 8004c02:	b087      	sub	sp, #28
 8004c04:	461f      	mov	r7, r3
 8004c06:	f8bd c058 	ldrh.w	ip, [sp, #88]	; 0x58
 8004c0a:	f8bd e054 	ldrh.w	lr, [sp, #84]	; 0x54
 8004c0e:	9102      	str	r1, [sp, #8]
 8004c10:	fb0c f300 	mul.w	r3, ip, r0
 8004c14:	9301      	str	r3, [sp, #4]
 8004c16:	f1ce 0310 	rsb	r3, lr, #16
 8004c1a:	4616      	mov	r6, r2
 8004c1c:	2100      	movs	r1, #0
 8004c1e:	9303      	str	r3, [sp, #12]
 8004c20:	458c      	cmp	ip, r1
 8004c22:	dc02      	bgt.n	8004c2a <DrawChar_16+0x2c>
 8004c24:	b007      	add	sp, #28
 8004c26:	e8bd 8ff0 	ldmia.w	sp!, {r4, r5, r6, r7, r8, r9, sl, fp, pc}
 8004c2a:	9b01      	ldr	r3, [sp, #4]
 8004c2c:	9a14      	ldr	r2, [sp, #80]	; 0x50
 8004c2e:	9c02      	ldr	r4, [sp, #8]
 8004c30:	440b      	add	r3, r1
 8004c32:	4670      	mov	r0, lr
 8004c34:	f832 2013 	ldrh.w	r2, [r2, r3, lsl #1]
 8004c38:	9b03      	ldr	r3, [sp, #12]
 8004c3a:	411a      	asrs	r2, r3
 8004c3c:	1873      	adds	r3, r6, r1
 8004c3e:	fb07 4303 	mla	r3, r7, r3, r4
 8004c42:	9c11      	ldr	r4, [sp, #68]	; 0x44
 8004c44:	eb03 0343 	add.w	r3, r3, r3, lsl #1
 8004c48:	b292      	uxth	r2, r2
 8004c4a:	4423      	add	r3, r4
 8004c4c:	b908      	cbnz	r0, 8004c52 <DrawChar_16+0x54>
 8004c4e:	3101      	adds	r1, #1
 8004c50:	e7e6      	b.n	8004c20 <DrawChar_16+0x22>
 8004c52:	e9dd 4512 	ldrd	r4, r5, [sp, #72]	; 0x48
 8004c56:	f012 0f01 	tst.w	r2, #1
 8004c5a:	bf0c      	ite	eq
 8004c5c:	46a0      	moveq	r8, r4
 8004c5e:	46a8      	movne	r8, r5
 8004c60:	f8cd 8014 	str.w	r8, [sp, #20]
 8004c64:	eb00 0840 	add.w	r8, r0, r0, lsl #1
 8004c68:	eb08 0903 	add.w	r9, r8, r3
 8004c6c:	f8bd b014 	ldrh.w	fp, [sp, #20]
 8004c70:	f89d a016 	ldrb.w	sl, [sp, #22]
 8004c74:	f828 b003 	strh.w	fp, [r8, r3]
 8004c78:	0852      	lsrs	r2, r2, #1
 8004c7a:	f889 a002 	strb.w	sl, [r9, #2]
 8004c7e:	3801      	subs	r0, #1
 8004c80:	e7e4      	b.n	8004c4c <DrawChar_16+0x4e>

08004c82 <DrawChar_32>:
 8004c82:	e92d 4ff0 	stmdb	sp!, {r4, r5, r6, r7, r8, r9, sl, fp, lr}
 8004c86:	b087      	sub	sp, #28
 8004c88:	3820      	subs	r0, #32
 8004c8a:	f8bd c058 	ldrh.w	ip, [sp, #88]	; 0x58
 8004c8e:	f8bd e054 	ldrh.w	lr, [sp, #84]	; 0x54
 8004c92:	9102      	str	r1, [sp, #8]
 8004c94:	b2c0      	uxtb	r0, r0
 8004c96:	461f      	mov	r7, r3
 8004c98:	fb0c f300 	mul.w	r3, ip, r0
 8004c9c:	9301      	str	r3, [sp, #4]
 8004c9e:	f1ce 0320 	rsb	r3, lr, #32
 8004ca2:	4616      	mov	r6, r2
 8004ca4:	9303      	str	r3, [sp, #12]
 8004ca6:	2200      	movs	r2, #0
 8004ca8:	4594      	cmp	ip, r2
 8004caa:	dc02      	bgt.n	8004cb2 <DrawChar_32+0x30>
 8004cac:	b007      	add	sp, #28
 8004cae:	e8bd 8ff0 	ldmia.w	sp!, {r4, r5, r6, r7, r8, r9, sl, fp, pc}
 8004cb2:	9b01      	ldr	r3, [sp, #4]
 8004cb4:	9914      	ldr	r1, [sp, #80]	; 0x50
 8004cb6:	9c02      	ldr	r4, [sp, #8]
 8004cb8:	4413      	add	r3, r2
 8004cba:	f851 0023 	ldr.w	r0, [r1, r3, lsl #2]
 8004cbe:	9b03      	ldr	r3, [sp, #12]
 8004cc0:	40d8      	lsrs	r0, r3
 8004cc2:	18b3      	adds	r3, r6, r2
 8004cc4:	fb07 4303 	mla	r3, r7, r3, r4
 8004cc8:	9c11      	ldr	r4, [sp, #68]	; 0x44
 8004cca:	eb03 0343 	add.w	r3, r3, r3, lsl #1
 8004cce:	4671      	mov	r1, lr
 8004cd0:	4423      	add	r3, r4
 8004cd2:	b909      	cbnz	r1, 8004cd8 <DrawChar_32+0x56>
 8004cd4:	3201      	adds	r2, #1
 8004cd6:	e7e7      	b.n	8004ca8 <DrawChar_32+0x26>
 8004cd8:	e9dd 4512 	ldrd	r4, r5, [sp, #72]	; 0x48
 8004cdc:	f010 0f01 	tst.w	r0, #1
 8004ce0:	bf0c      	ite	eq
 8004ce2:	46a0      	moveq	r8, r4
 8004ce4:	46a8      	movne	r8, r5
 8004ce6:	f8cd 8014 	str.w	r8, [sp, #20]
 8004cea:	eb01 0841 	add.w	r8, r1, r1, lsl #1
 8004cee:	eb08 0903 	add.w	r9, r8, r3
 8004cf2:	f8bd b014 	ldrh.w	fp, [sp, #20]
 8004cf6:	f89d a016 	ldrb.w	sl, [sp, #22]
 8004cfa:	f828 b003 	strh.w	fp, [r8, r3]
 8004cfe:	0840      	lsrs	r0, r0, #1
 8004d00:	f889 a002 	strb.w	sl, [r9, #2]
 8004d04:	3901      	subs	r1, #1
 8004d06:	e7e4      	b.n	8004cd2 <DrawChar_32+0x50>

08004d08 <DrawString_16>:
 8004d08:	e92d 4ff0 	stmdb	sp!, {r4, r5, r6, r7, r8, r9, sl, fp, lr}
 8004d0c:	b08b      	sub	sp, #44	; 0x2c
 8004d0e:	461f      	mov	r7, r3
 8004d10:	f8bd a054 	ldrh.w	sl, [sp, #84]	; 0x54
 8004d14:	f8bd 3050 	ldrh.w	r3, [sp, #80]	; 0x50
 8004d18:	f8bd 9068 	ldrh.w	r9, [sp, #104]	; 0x68
 8004d1c:	f8bd b06c 	ldrh.w	fp, [sp, #108]	; 0x6c
 8004d20:	4680      	mov	r8, r0
 8004d22:	460d      	mov	r5, r1
 8004d24:	4616      	mov	r6, r2
 8004d26:	2400      	movs	r4, #0
 8004d28:	42a5      	cmp	r5, r4
 8004d2a:	dc02      	bgt.n	8004d32 <DrawString_16+0x2a>
 8004d2c:	b00b      	add	sp, #44	; 0x2c
 8004d2e:	e8bd 8ff0 	ldmia.w	sp!, {r4, r5, r6, r7, r8, r9, sl, fp, pc}
 8004d32:	9a19      	ldr	r2, [sp, #100]	; 0x64
 8004d34:	9204      	str	r2, [sp, #16]
 8004d36:	9a18      	ldr	r2, [sp, #96]	; 0x60
 8004d38:	f818 0004 	ldrb.w	r0, [r8, r4]
 8004d3c:	9203      	str	r2, [sp, #12]
 8004d3e:	9a17      	ldr	r2, [sp, #92]	; 0x5c
 8004d40:	9202      	str	r2, [sp, #8]
 8004d42:	9a16      	ldr	r2, [sp, #88]	; 0x58
 8004d44:	9309      	str	r3, [sp, #36]	; 0x24
 8004d46:	3820      	subs	r0, #32
 8004d48:	4631      	mov	r1, r6
 8004d4a:	e9cd a200 	strd	sl, r2, [sp]
 8004d4e:	e9cd 9b05 	strd	r9, fp, [sp, #20]
 8004d52:	463a      	mov	r2, r7
 8004d54:	b2c0      	uxtb	r0, r0
 8004d56:	f7ff ff52 	bl	8004bfe <DrawChar_16>
 8004d5a:	eb09 0106 	add.w	r1, r9, r6
 8004d5e:	9b09      	ldr	r3, [sp, #36]	; 0x24
 8004d60:	3401      	adds	r4, #1
 8004d62:	b28e      	uxth	r6, r1
 8004d64:	e7e0      	b.n	8004d28 <DrawString_16+0x20>

08004d66 <Centred_DrawString_16>:
 8004d66:	b4f0      	push	{r4, r5, r6, r7}
 8004d68:	f8bd 5028 	ldrh.w	r5, [sp, #40]	; 0x28
 8004d6c:	f8bd 602c 	ldrh.w	r6, [sp, #44]	; 0x2c
 8004d70:	f8bd 7010 	ldrh.w	r7, [sp, #16]
 8004d74:	f8bd c014 	ldrh.w	ip, [sp, #20]
 8004d78:	fb01 f405 	mul.w	r4, r1, r5
 8004d7c:	eb04 74d4 	add.w	r4, r4, r4, lsr #31
 8004d80:	eba3 0356 	sub.w	r3, r3, r6, lsr #1
 8004d84:	eba2 0264 	sub.w	r2, r2, r4, asr #1
 8004d88:	e9cd 560a 	strd	r5, r6, [sp, #40]	; 0x28
 8004d8c:	e9cd 7c04 	strd	r7, ip, [sp, #16]
 8004d90:	b29b      	uxth	r3, r3
 8004d92:	bcf0      	pop	{r4, r5, r6, r7}
 8004d94:	b292      	uxth	r2, r2
 8004d96:	f7ff bfb7 	b.w	8004d08 <DrawString_16>

08004d9a <RU_DrawString_32>:
 8004d9a:	e92d 4ff0 	stmdb	sp!, {r4, r5, r6, r7, r8, r9, sl, fp, lr}
 8004d9e:	b0a5      	sub	sp, #148	; 0x94
 8004da0:	ea4f 0c41 	mov.w	ip, r1, lsl #1
 8004da4:	461f      	mov	r7, r3
 8004da6:	f04f 0e00 	mov.w	lr, #0
 8004daa:	f8bd 30bc 	ldrh.w	r3, [sp, #188]	; 0xbc
 8004dae:	f8bd a0b8 	ldrh.w	sl, [sp, #184]	; 0xb8
 8004db2:	f8bd 80d0 	ldrh.w	r8, [sp, #208]	; 0xd0
 8004db6:	f8bd b0d4 	ldrh.w	fp, [sp, #212]	; 0xd4
 8004dba:	9309      	str	r3, [sp, #36]	; 0x24
 8004dbc:	460d      	mov	r5, r1
 8004dbe:	4614      	mov	r4, r2
 8004dc0:	fa1f fc8c 	uxth.w	ip, ip
 8004dc4:	4671      	mov	r1, lr
 8004dc6:	458c      	cmp	ip, r1
 8004dc8:	fa1f f68e 	uxth.w	r6, lr
 8004dcc:	dc12      	bgt.n	8004df4 <RU_DrawString_32+0x5a>
 8004dce:	ebb6 0f45 	cmp.w	r6, r5, lsl #1
 8004dd2:	f10d 092c 	add.w	r9, sp, #44	; 0x2c
 8004dd6:	ebc6 0245 	rsb	r2, r6, r5, lsl #1
 8004dda:	eb09 0006 	add.w	r0, r9, r6
 8004dde:	bfc8      	it	gt
 8004de0:	2200      	movgt	r2, #0
 8004de2:	2100      	movs	r1, #0
 8004de4:	f002 fe06 	bl	80079f4 <memset>
 8004de8:	2600      	movs	r6, #0
 8004dea:	42b5      	cmp	r5, r6
 8004dec:	dc21      	bgt.n	8004e32 <RU_DrawString_32+0x98>
 8004dee:	b025      	add	sp, #148	; 0x94
 8004df0:	e8bd 8ff0 	ldmia.w	sp!, {r4, r5, r6, r7, r8, r9, sl, fp, pc}
 8004df4:	f810 9001 	ldrb.w	r9, [r0, r1]
 8004df8:	f106 0390 	add.w	r3, r6, #144	; 0x90
 8004dfc:	f1b9 0fcf 	cmp.w	r9, #207	; 0xcf
 8004e00:	eb0d 0603 	add.w	r6, sp, r3
 8004e04:	d90e      	bls.n	8004e24 <RU_DrawString_32+0x8a>
 8004e06:	1842      	adds	r2, r0, r1
 8004e08:	f1b9 0fd0 	cmp.w	r9, #208	; 0xd0
 8004e0c:	7852      	ldrb	r2, [r2, #1]
 8004e0e:	bf0c      	ite	eq
 8004e10:	3a4f      	subeq	r2, #79	; 0x4f
 8004e12:	3a0f      	subne	r2, #15
 8004e14:	b2d2      	uxtb	r2, r2
 8004e16:	f806 2c64 	strb.w	r2, [r6, #-100]
 8004e1a:	3101      	adds	r1, #1
 8004e1c:	3101      	adds	r1, #1
 8004e1e:	f10e 0e01 	add.w	lr, lr, #1
 8004e22:	e7d0      	b.n	8004dc6 <RU_DrawString_32+0x2c>
 8004e24:	f10c 3cff 	add.w	ip, ip, #4294967295
 8004e28:	f806 9c64 	strb.w	r9, [r6, #-100]
 8004e2c:	fa1f fc8c 	uxth.w	ip, ip
 8004e30:	e7f4      	b.n	8004e1c <RU_DrawString_32+0x82>
 8004e32:	9b33      	ldr	r3, [sp, #204]	; 0xcc
 8004e34:	9304      	str	r3, [sp, #16]
 8004e36:	9b32      	ldr	r3, [sp, #200]	; 0xc8
 8004e38:	9303      	str	r3, [sp, #12]
 8004e3a:	9b31      	ldr	r3, [sp, #196]	; 0xc4
 8004e3c:	9302      	str	r3, [sp, #8]
 8004e3e:	e9cd 8b05 	strd	r8, fp, [sp, #20]
 8004e42:	9b30      	ldr	r3, [sp, #192]	; 0xc0
 8004e44:	9301      	str	r3, [sp, #4]
 8004e46:	9b09      	ldr	r3, [sp, #36]	; 0x24
 8004e48:	9300      	str	r3, [sp, #0]
 8004e4a:	f819 0006 	ldrb.w	r0, [r9, r6]
 8004e4e:	4621      	mov	r1, r4
 8004e50:	4653      	mov	r3, sl
 8004e52:	463a      	mov	r2, r7
 8004e54:	4444      	add	r4, r8
 8004e56:	f7ff ff14 	bl	8004c82 <DrawChar_32>
 8004e5a:	3601      	adds	r6, #1
 8004e5c:	b2a4      	uxth	r4, r4
 8004e5e:	e7c4      	b.n	8004dea <RU_DrawString_32+0x50>

08004e60 <Short_Left_Colored_RU_DrawString_32>:
 8004e60:	b510      	push	{r4, lr}
 8004e62:	f04f 0c1b 	mov.w	ip, #27
 8004e66:	b088      	sub	sp, #32
 8004e68:	2412      	movs	r4, #18
 8004e6a:	e9cd 4c06 	strd	r4, ip, [sp, #24]
 8004e6e:	4c0a      	ldr	r4, [pc, #40]	; (8004e98 <Short_Left_Colored_RU_DrawString_32+0x38>)
 8004e70:	9405      	str	r4, [sp, #20]
 8004e72:	9c0b      	ldr	r4, [sp, #44]	; 0x2c
 8004e74:	9404      	str	r4, [sp, #16]
 8004e76:	9c0a      	ldr	r4, [sp, #40]	; 0x28
 8004e78:	9403      	str	r4, [sp, #12]
 8004e7a:	9c0c      	ldr	r4, [sp, #48]	; 0x30
 8004e7c:	9402      	str	r4, [sp, #8]
 8004e7e:	f44f 7ef0 	mov.w	lr, #480	; 0x1e0
 8004e82:	f44f 7448 	mov.w	r4, #800	; 0x320
 8004e86:	3b0d      	subs	r3, #13
 8004e88:	e9cd 4e00 	strd	r4, lr, [sp]
 8004e8c:	b29b      	uxth	r3, r3
 8004e8e:	f7ff ff84 	bl	8004d9a <RU_DrawString_32>
 8004e92:	b008      	add	sp, #32
 8004e94:	bd10      	pop	{r4, pc}
 8004e96:	bf00      	nop
 8004e98:	0800967c 	.word	0x0800967c

08004e9c <Centred_RU_DrawString_32>:
 8004e9c:	b4f0      	push	{r4, r5, r6, r7}
 8004e9e:	f8bd 5028 	ldrh.w	r5, [sp, #40]	; 0x28
 8004ea2:	f8bd 602c 	ldrh.w	r6, [sp, #44]	; 0x2c
 8004ea6:	f8bd 7010 	ldrh.w	r7, [sp, #16]
 8004eaa:	f8bd c014 	ldrh.w	ip, [sp, #20]
 8004eae:	fb01 f405 	mul.w	r4, r1, r5
 8004eb2:	eb04 74d4 	add.w	r4, r4, r4, lsr #31
 8004eb6:	eba3 0356 	sub.w	r3, r3, r6, lsr #1
 8004eba:	eba2 0264 	sub.w	r2, r2, r4, asr #1
 8004ebe:	e9cd 560a 	strd	r5, r6, [sp, #40]	; 0x28
 8004ec2:	e9cd 7c04 	strd	r7, ip, [sp, #16]
 8004ec6:	b29b      	uxth	r3, r3
 8004ec8:	bcf0      	pop	{r4, r5, r6, r7}
 8004eca:	b292      	uxth	r2, r2
 8004ecc:	f7ff bf65 	b.w	8004d9a <RU_DrawString_32>

08004ed0 <Short_Centred_RU_DrawString_32>:
 8004ed0:	b510      	push	{r4, lr}
 8004ed2:	f04f 0c1b 	mov.w	ip, #27
 8004ed6:	b088      	sub	sp, #32
 8004ed8:	2412      	movs	r4, #18
 8004eda:	e9cd 4c06 	strd	r4, ip, [sp, #24]
 8004ede:	4c09      	ldr	r4, [pc, #36]	; (8004f04 <Short_Centred_RU_DrawString_32+0x34>)
 8004ee0:	9405      	str	r4, [sp, #20]
 8004ee2:	9c0b      	ldr	r4, [sp, #44]	; 0x2c
 8004ee4:	9404      	str	r4, [sp, #16]
 8004ee6:	9c0a      	ldr	r4, [sp, #40]	; 0x28
 8004ee8:	9403      	str	r4, [sp, #12]
 8004eea:	9c0c      	ldr	r4, [sp, #48]	; 0x30
 8004eec:	9402      	str	r4, [sp, #8]
 8004eee:	f44f 7ef0 	mov.w	lr, #480	; 0x1e0
 8004ef2:	f44f 7448 	mov.w	r4, #800	; 0x320
 8004ef6:	e9cd 4e00 	strd	r4, lr, [sp]
 8004efa:	f7ff ffcf 	bl	8004e9c <Centred_RU_DrawString_32>
 8004efe:	b008      	add	sp, #32
 8004f00:	bd10      	pop	{r4, pc}
 8004f02:	bf00      	nop
 8004f04:	0800967c 	.word	0x0800967c

08004f08 <Centred_DrawNumber_16>:
 8004f08:	e92d 4ff0 	stmdb	sp!, {r4, r5, r6, r7, r8, r9, sl, fp, lr}
 8004f0c:	b097      	sub	sp, #92	; 0x5c
 8004f0e:	2800      	cmp	r0, #0
 8004f10:	930b      	str	r3, [sp, #44]	; 0x2c
 8004f12:	f8bd 3080 	ldrh.w	r3, [sp, #128]	; 0x80
 8004f16:	930c      	str	r3, [sp, #48]	; 0x30
 8004f18:	bfb8      	it	lt
 8004f1a:	4240      	neglt	r0, r0
 8004f1c:	f8bd 3084 	ldrh.w	r3, [sp, #132]	; 0x84
 8004f20:	9209      	str	r2, [sp, #36]	; 0x24
 8004f22:	f04f 0600 	mov.w	r6, #0
 8004f26:	930d      	str	r3, [sp, #52]	; 0x34
 8004f28:	460d      	mov	r5, r1
 8004f2a:	f8bd 30a4 	ldrh.w	r3, [sp, #164]	; 0xa4
 8004f2e:	f8ad 6054 	strh.w	r6, [sp, #84]	; 0x54
 8004f32:	a910      	add	r1, sp, #64	; 0x40
 8004f34:	bfb8      	it	lt
 8004f36:	b200      	sxthlt	r0, r0
 8004f38:	f04f 020a 	mov.w	r2, #10
 8004f3c:	e9cd 6613 	strd	r6, r6, [sp, #76]	; 0x4c
 8004f40:	f8bd 90a0 	ldrh.w	r9, [sp, #160]	; 0xa0
 8004f44:	930a      	str	r3, [sp, #40]	; 0x28
 8004f46:	bfb8      	it	lt
 8004f48:	2601      	movlt	r6, #1
 8004f4a:	f002 fcf5 	bl	8007938 <itoa>
 8004f4e:	2100      	movs	r1, #0
 8004f50:	ab16      	add	r3, sp, #88	; 0x58
 8004f52:	fa13 f081 	uxtah	r0, r3, r1
 8004f56:	b28a      	uxth	r2, r1
 8004f58:	f810 4c18 	ldrb.w	r4, [r0, #-24]
 8004f5c:	4608      	mov	r0, r1
 8004f5e:	3101      	adds	r1, #1
 8004f60:	2c00      	cmp	r4, #0
 8004f62:	d1f5      	bne.n	8004f50 <Centred_DrawNumber_16+0x48>
 8004f64:	f89d 8024 	ldrb.w	r8, [sp, #36]	; 0x24
 8004f68:	f10d 0c4c 	add.w	ip, sp, #76	; 0x4c
 8004f6c:	4644      	mov	r4, r8
 8004f6e:	b2e7      	uxtb	r7, r4
 8004f70:	2c00      	cmp	r4, #0
 8004f72:	d15e      	bne.n	8005032 <Centred_DrawNumber_16+0x12a>
 8004f74:	b1d5      	cbz	r5, 8004fac <Centred_DrawNumber_16+0xa4>
 8004f76:	2d05      	cmp	r5, #5
 8004f78:	bf28      	it	cs
 8004f7a:	2505      	movcs	r5, #5
 8004f7c:	4295      	cmp	r5, r2
 8004f7e:	d35e      	bcc.n	800503e <Centred_DrawNumber_16+0x136>
 8004f80:	3502      	adds	r5, #2
 8004f82:	af10      	add	r7, sp, #64	; 0x40
 8004f84:	b2aa      	uxth	r2, r5
 8004f86:	b241      	sxtb	r1, r0
 8004f88:	fa17 f585 	uxtah	r5, r7, r5
 8004f8c:	2900      	cmp	r1, #0
 8004f8e:	d054      	beq.n	800503a <Centred_DrawNumber_16+0x132>
 8004f90:	1e48      	subs	r0, r1, #1
 8004f92:	ab16      	add	r3, sp, #88	; 0x58
 8004f94:	b241      	sxtb	r1, r0
 8004f96:	fa53 f080 	uxtab	r0, r3, r0
 8004f9a:	f810 0c18 	ldrb.w	r0, [r0, #-24]
 8004f9e:	f805 0d01 	strb.w	r0, [r5, #-1]!
 8004fa2:	42af      	cmp	r7, r5
 8004fa4:	d1f2      	bne.n	8004f8c <Centred_DrawNumber_16+0x84>
 8004fa6:	212c      	movs	r1, #44	; 0x2c
 8004fa8:	f88d 1041 	strb.w	r1, [sp, #65]	; 0x41
 8004fac:	b156      	cbz	r6, 8004fc4 <Centred_DrawNumber_16+0xbc>
 8004fae:	1c55      	adds	r5, r2, #1
 8004fb0:	462a      	mov	r2, r5
 8004fb2:	f10d 013f 	add.w	r1, sp, #63	; 0x3f
 8004fb6:	a810      	add	r0, sp, #64	; 0x40
 8004fb8:	f002 fd02 	bl	80079c0 <memmove>
 8004fbc:	222d      	movs	r2, #45	; 0x2d
 8004fbe:	f88d 2040 	strb.w	r2, [sp, #64]	; 0x40
 8004fc2:	b2aa      	uxth	r2, r5
 8004fc4:	f89d 6024 	ldrb.w	r6, [sp, #36]	; 0x24
 8004fc8:	42b2      	cmp	r2, r6
 8004fca:	d352      	bcc.n	8005072 <Centred_DrawNumber_16+0x16a>
 8004fcc:	9b0d      	ldr	r3, [sp, #52]	; 0x34
 8004fce:	9a0a      	ldr	r2, [sp, #40]	; 0x28
 8004fd0:	eb03 0552 	add.w	r5, r3, r2, lsr #1
 8004fd4:	9b0b      	ldr	r3, [sp, #44]	; 0x2c
 8004fd6:	ea23 73e3 	bic.w	r3, r3, r3, asr #31
 8004fda:	930e      	str	r3, [sp, #56]	; 0x38
 8004fdc:	9b0c      	ldr	r3, [sp, #48]	; 0x30
 8004fde:	fb08 f809 	mul.w	r8, r8, r9
 8004fe2:	eba3 0109 	sub.w	r1, r3, r9
 8004fe6:	f5c2 427f 	rsb	r2, r2, #65280	; 0xff00
 8004fea:	eb01 0158 	add.w	r1, r1, r8, lsr #1
 8004fee:	32fc      	adds	r2, #252	; 0xfc
 8004ff0:	b2af      	uxth	r7, r5
 8004ff2:	b289      	uxth	r1, r1
 8004ff4:	fa12 f585 	uxtah	r5, r2, r5
 8004ff8:	9b09      	ldr	r3, [sp, #36]	; 0x24
 8004ffa:	42a3      	cmp	r3, r4
 8004ffc:	dc54      	bgt.n	80050a8 <Centred_DrawNumber_16+0x1a0>
 8004ffe:	9b0a      	ldr	r3, [sp, #40]	; 0x28
 8005000:	e9cd 9306 	strd	r9, r3, [sp, #24]
 8005004:	9b27      	ldr	r3, [sp, #156]	; 0x9c
 8005006:	9305      	str	r3, [sp, #20]
 8005008:	9b26      	ldr	r3, [sp, #152]	; 0x98
 800500a:	9304      	str	r3, [sp, #16]
 800500c:	9b25      	ldr	r3, [sp, #148]	; 0x94
 800500e:	9303      	str	r3, [sp, #12]
 8005010:	9b24      	ldr	r3, [sp, #144]	; 0x90
 8005012:	9302      	str	r3, [sp, #8]
 8005014:	f8bd 308c 	ldrh.w	r3, [sp, #140]	; 0x8c
 8005018:	9301      	str	r3, [sp, #4]
 800501a:	f8bd 3088 	ldrh.w	r3, [sp, #136]	; 0x88
 800501e:	9300      	str	r3, [sp, #0]
 8005020:	4631      	mov	r1, r6
 8005022:	e9dd 230c 	ldrd	r2, r3, [sp, #48]	; 0x30
 8005026:	a810      	add	r0, sp, #64	; 0x40
 8005028:	f7ff fe9d 	bl	8004d66 <Centred_DrawString_16>
 800502c:	b017      	add	sp, #92	; 0x5c
 800502e:	e8bd 8ff0 	ldmia.w	sp!, {r4, r5, r6, r7, r8, r9, sl, fp, pc}
 8005032:	3c01      	subs	r4, #1
 8005034:	f804 700c 	strb.w	r7, [r4, ip]
 8005038:	e799      	b.n	8004f6e <Centred_DrawNumber_16+0x66>
 800503a:	2030      	movs	r0, #48	; 0x30
 800503c:	e7af      	b.n	8004f9e <Centred_DrawNumber_16+0x96>
 800503e:	3201      	adds	r2, #1
 8005040:	b292      	uxth	r2, r2
 8005042:	ab10      	add	r3, sp, #64	; 0x40
 8005044:	1e50      	subs	r0, r2, #1
 8005046:	fa13 f181 	uxtah	r1, r3, r1
 800504a:	1b55      	subs	r5, r2, r5
 800504c:	1c47      	adds	r7, r0, #1
 800504e:	d107      	bne.n	8005060 <Centred_DrawNumber_16+0x158>
 8005050:	f105 0358 	add.w	r3, r5, #88	; 0x58
 8005054:	eb0d 0503 	add.w	r5, sp, r3
 8005058:	212c      	movs	r1, #44	; 0x2c
 800505a:	f805 1c19 	strb.w	r1, [r5, #-25]
 800505e:	e7a5      	b.n	8004fac <Centred_DrawNumber_16+0xa4>
 8005060:	42a8      	cmp	r0, r5
 8005062:	bfa4      	itt	ge
 8005064:	f811 7c02 	ldrbge.w	r7, [r1, #-2]
 8005068:	f801 7c01 	strbge.w	r7, [r1, #-1]
 800506c:	3801      	subs	r0, #1
 800506e:	3901      	subs	r1, #1
 8005070:	e7ec      	b.n	800504c <Centred_DrawNumber_16+0x144>
 8005072:	1e51      	subs	r1, r2, #1
 8005074:	b2c9      	uxtb	r1, r1
 8005076:	f108 30ff 	add.w	r0, r8, #4294967295
 800507a:	eba8 0202 	sub.w	r2, r8, r2
 800507e:	af10      	add	r7, sp, #64	; 0x40
 8005080:	1c43      	adds	r3, r0, #1
 8005082:	d0a3      	beq.n	8004fcc <Centred_DrawNumber_16+0xc4>
 8005084:	b151      	cbz	r1, 800509c <Centred_DrawNumber_16+0x194>
 8005086:	f101 0358 	add.w	r3, r1, #88	; 0x58
 800508a:	eb0d 0503 	add.w	r5, sp, r3
 800508e:	3901      	subs	r1, #1
 8005090:	f815 5c18 	ldrb.w	r5, [r5, #-24]
 8005094:	b2c9      	uxtb	r1, r1
 8005096:	55c5      	strb	r5, [r0, r7]
 8005098:	3801      	subs	r0, #1
 800509a:	e7f1      	b.n	8005080 <Centred_DrawNumber_16+0x178>
 800509c:	4282      	cmp	r2, r0
 800509e:	bf0c      	ite	eq
 80050a0:	f89d 5040 	ldrbeq.w	r5, [sp, #64]	; 0x40
 80050a4:	2520      	movne	r5, #32
 80050a6:	e7f6      	b.n	8005096 <Centred_DrawNumber_16+0x18e>
 80050a8:	aa13      	add	r2, sp, #76	; 0x4c
 80050aa:	9b0e      	ldr	r3, [sp, #56]	; 0x38
 80050ac:	5ca2      	ldrb	r2, [r4, r2]
 80050ae:	4293      	cmp	r3, r2
 80050b0:	f104 0401 	add.w	r4, r4, #1
 80050b4:	d128      	bne.n	8005108 <Centred_DrawNumber_16+0x200>
 80050b6:	9b0b      	ldr	r3, [sp, #44]	; 0x2c
 80050b8:	2b00      	cmp	r3, #0
 80050ba:	dd21      	ble.n	8005100 <Centred_DrawNumber_16+0x1f8>
 80050bc:	f8df 8050 	ldr.w	r8, [pc, #80]	; 8005110 <Centred_DrawNumber_16+0x208>
 80050c0:	1c7a      	adds	r2, r7, #1
 80050c2:	f44f 7a48 	mov.w	sl, #800	; 0x320
 80050c6:	f44f 7bf0 	mov.w	fp, #480	; 0x1e0
 80050ca:	9b24      	ldr	r3, [sp, #144]	; 0x90
 80050cc:	9301      	str	r3, [sp, #4]
 80050ce:	e9cd ab02 	strd	sl, fp, [sp, #8]
 80050d2:	2304      	movs	r3, #4
 80050d4:	9300      	str	r3, [sp, #0]
 80050d6:	f8d8 0000 	ldr.w	r0, [r8]
 80050da:	910f      	str	r1, [sp, #60]	; 0x3c
 80050dc:	464b      	mov	r3, r9
 80050de:	b292      	uxth	r2, r2
 80050e0:	f000 fb3d 	bl	800575e <Draw_Rectangle>
 80050e4:	9b24      	ldr	r3, [sp, #144]	; 0x90
 80050e6:	9301      	str	r3, [sp, #4]
 80050e8:	e9cd ab02 	strd	sl, fp, [sp, #8]
 80050ec:	2304      	movs	r3, #4
 80050ee:	9300      	str	r3, [sp, #0]
 80050f0:	990f      	ldr	r1, [sp, #60]	; 0x3c
 80050f2:	f8d8 0000 	ldr.w	r0, [r8]
 80050f6:	464b      	mov	r3, r9
 80050f8:	b2aa      	uxth	r2, r5
 80050fa:	f000 fb30 	bl	800575e <Draw_Rectangle>
 80050fe:	990f      	ldr	r1, [sp, #60]	; 0x3c
 8005100:	eba1 0109 	sub.w	r1, r1, r9
 8005104:	b289      	uxth	r1, r1
 8005106:	e777      	b.n	8004ff8 <Centred_DrawNumber_16+0xf0>
 8005108:	f8df 8008 	ldr.w	r8, [pc, #8]	; 8005114 <Centred_DrawNumber_16+0x20c>
 800510c:	1c7a      	adds	r2, r7, #1
 800510e:	e7d8      	b.n	80050c2 <Centred_DrawNumber_16+0x1ba>
 8005110:	2000000c 	.word	0x2000000c
 8005114:	20000000 	.word	0x20000000

08005118 <Centred_DrawNumber_16_32bit>:
 8005118:	e92d 4ff0 	stmdb	sp!, {r4, r5, r6, r7, r8, r9, sl, fp, lr}
 800511c:	b097      	sub	sp, #92	; 0x5c
 800511e:	2800      	cmp	r0, #0
 8005120:	930a      	str	r3, [sp, #40]	; 0x28
 8005122:	f8bd 3080 	ldrh.w	r3, [sp, #128]	; 0x80
 8005126:	930b      	str	r3, [sp, #44]	; 0x2c
 8005128:	f8bd 3084 	ldrh.w	r3, [sp, #132]	; 0x84
 800512c:	9208      	str	r2, [sp, #32]
 800512e:	f04f 0600 	mov.w	r6, #0
 8005132:	930c      	str	r3, [sp, #48]	; 0x30
 8005134:	460d      	mov	r5, r1
 8005136:	f8bd 30a4 	ldrh.w	r3, [sp, #164]	; 0xa4
 800513a:	f8ad 6054 	strh.w	r6, [sp, #84]	; 0x54
 800513e:	a910      	add	r1, sp, #64	; 0x40
 8005140:	bfb8      	it	lt
 8005142:	4240      	neglt	r0, r0
 8005144:	f04f 020a 	mov.w	r2, #10
 8005148:	e9cd 6613 	strd	r6, r6, [sp, #76]	; 0x4c
 800514c:	f8bd 90a0 	ldrh.w	r9, [sp, #160]	; 0xa0
 8005150:	9309      	str	r3, [sp, #36]	; 0x24
 8005152:	bfb8      	it	lt
 8005154:	2601      	movlt	r6, #1
 8005156:	f002 fbef 	bl	8007938 <itoa>
 800515a:	2100      	movs	r1, #0
 800515c:	ab16      	add	r3, sp, #88	; 0x58
 800515e:	fa13 f081 	uxtah	r0, r3, r1
 8005162:	b28a      	uxth	r2, r1
 8005164:	f810 4c18 	ldrb.w	r4, [r0, #-24]
 8005168:	4608      	mov	r0, r1
 800516a:	3101      	adds	r1, #1
 800516c:	2c00      	cmp	r4, #0
 800516e:	d1f5      	bne.n	800515c <Centred_DrawNumber_16_32bit+0x44>
 8005170:	f89d 8020 	ldrb.w	r8, [sp, #32]
 8005174:	f10d 0c4c 	add.w	ip, sp, #76	; 0x4c
 8005178:	4644      	mov	r4, r8
 800517a:	b2e7      	uxtb	r7, r4
 800517c:	2c00      	cmp	r4, #0
 800517e:	d15f      	bne.n	8005240 <Centred_DrawNumber_16_32bit+0x128>
 8005180:	b1d5      	cbz	r5, 80051b8 <Centred_DrawNumber_16_32bit+0xa0>
 8005182:	2d05      	cmp	r5, #5
 8005184:	bf28      	it	cs
 8005186:	2505      	movcs	r5, #5
 8005188:	4295      	cmp	r5, r2
 800518a:	d35f      	bcc.n	800524c <Centred_DrawNumber_16_32bit+0x134>
 800518c:	3502      	adds	r5, #2
 800518e:	af10      	add	r7, sp, #64	; 0x40
 8005190:	b2aa      	uxth	r2, r5
 8005192:	b241      	sxtb	r1, r0
 8005194:	fa17 f585 	uxtah	r5, r7, r5
 8005198:	2900      	cmp	r1, #0
 800519a:	d055      	beq.n	8005248 <Centred_DrawNumber_16_32bit+0x130>
 800519c:	1e48      	subs	r0, r1, #1
 800519e:	ab16      	add	r3, sp, #88	; 0x58
 80051a0:	b241      	sxtb	r1, r0
 80051a2:	fa53 f080 	uxtab	r0, r3, r0
 80051a6:	f810 0c18 	ldrb.w	r0, [r0, #-24]
 80051aa:	f805 0d01 	strb.w	r0, [r5, #-1]!
 80051ae:	42af      	cmp	r7, r5
 80051b0:	d1f2      	bne.n	8005198 <Centred_DrawNumber_16_32bit+0x80>
 80051b2:	212c      	movs	r1, #44	; 0x2c
 80051b4:	f88d 1041 	strb.w	r1, [sp, #65]	; 0x41
 80051b8:	b156      	cbz	r6, 80051d0 <Centred_DrawNumber_16_32bit+0xb8>
 80051ba:	1c55      	adds	r5, r2, #1
 80051bc:	462a      	mov	r2, r5
 80051be:	f10d 013f 	add.w	r1, sp, #63	; 0x3f
 80051c2:	a810      	add	r0, sp, #64	; 0x40
 80051c4:	f002 fbfc 	bl	80079c0 <memmove>
 80051c8:	222d      	movs	r2, #45	; 0x2d
 80051ca:	f88d 2040 	strb.w	r2, [sp, #64]	; 0x40
 80051ce:	b2aa      	uxth	r2, r5
 80051d0:	f89d 6020 	ldrb.w	r6, [sp, #32]
 80051d4:	42b2      	cmp	r2, r6
 80051d6:	d353      	bcc.n	8005280 <Centred_DrawNumber_16_32bit+0x168>
 80051d8:	9b0c      	ldr	r3, [sp, #48]	; 0x30
 80051da:	9a09      	ldr	r2, [sp, #36]	; 0x24
 80051dc:	eb03 0552 	add.w	r5, r3, r2, lsr #1
 80051e0:	9b0a      	ldr	r3, [sp, #40]	; 0x28
 80051e2:	ea23 73e3 	bic.w	r3, r3, r3, asr #31
 80051e6:	930e      	str	r3, [sp, #56]	; 0x38
 80051e8:	9b0b      	ldr	r3, [sp, #44]	; 0x2c
 80051ea:	f5c2 427f 	rsb	r2, r2, #65280	; 0xff00
 80051ee:	eba3 0109 	sub.w	r1, r3, r9
 80051f2:	fb08 f809 	mul.w	r8, r8, r9
 80051f6:	32fc      	adds	r2, #252	; 0xfc
 80051f8:	eb01 0158 	add.w	r1, r1, r8, lsr #1
 80051fc:	fa12 f385 	uxtah	r3, r2, r5
 8005200:	b2af      	uxth	r7, r5
 8005202:	b289      	uxth	r1, r1
 8005204:	930d      	str	r3, [sp, #52]	; 0x34
 8005206:	9b08      	ldr	r3, [sp, #32]
 8005208:	42a3      	cmp	r3, r4
 800520a:	dc54      	bgt.n	80052b6 <Centred_DrawNumber_16_32bit+0x19e>
 800520c:	9b09      	ldr	r3, [sp, #36]	; 0x24
 800520e:	e9cd 9306 	strd	r9, r3, [sp, #24]
 8005212:	9b27      	ldr	r3, [sp, #156]	; 0x9c
 8005214:	9305      	str	r3, [sp, #20]
 8005216:	9b26      	ldr	r3, [sp, #152]	; 0x98
 8005218:	9304      	str	r3, [sp, #16]
 800521a:	9b25      	ldr	r3, [sp, #148]	; 0x94
 800521c:	9303      	str	r3, [sp, #12]
 800521e:	9b24      	ldr	r3, [sp, #144]	; 0x90
 8005220:	9302      	str	r3, [sp, #8]
 8005222:	f8bd 308c 	ldrh.w	r3, [sp, #140]	; 0x8c
 8005226:	9301      	str	r3, [sp, #4]
 8005228:	f8bd 3088 	ldrh.w	r3, [sp, #136]	; 0x88
 800522c:	9300      	str	r3, [sp, #0]
 800522e:	4631      	mov	r1, r6
 8005230:	e9dd 230b 	ldrd	r2, r3, [sp, #44]	; 0x2c
 8005234:	a810      	add	r0, sp, #64	; 0x40
 8005236:	f7ff fd96 	bl	8004d66 <Centred_DrawString_16>
 800523a:	b017      	add	sp, #92	; 0x5c
 800523c:	e8bd 8ff0 	ldmia.w	sp!, {r4, r5, r6, r7, r8, r9, sl, fp, pc}
 8005240:	3c01      	subs	r4, #1
 8005242:	f804 700c 	strb.w	r7, [r4, ip]
 8005246:	e798      	b.n	800517a <Centred_DrawNumber_16_32bit+0x62>
 8005248:	2030      	movs	r0, #48	; 0x30
 800524a:	e7ae      	b.n	80051aa <Centred_DrawNumber_16_32bit+0x92>
 800524c:	3201      	adds	r2, #1
 800524e:	b292      	uxth	r2, r2
 8005250:	ab10      	add	r3, sp, #64	; 0x40
 8005252:	1e50      	subs	r0, r2, #1
 8005254:	fa13 f181 	uxtah	r1, r3, r1
 8005258:	1b55      	subs	r5, r2, r5
 800525a:	1c47      	adds	r7, r0, #1
 800525c:	d107      	bne.n	800526e <Centred_DrawNumber_16_32bit+0x156>
 800525e:	f105 0358 	add.w	r3, r5, #88	; 0x58
 8005262:	eb0d 0503 	add.w	r5, sp, r3
 8005266:	212c      	movs	r1, #44	; 0x2c
 8005268:	f805 1c19 	strb.w	r1, [r5, #-25]
 800526c:	e7a4      	b.n	80051b8 <Centred_DrawNumber_16_32bit+0xa0>
 800526e:	42a8      	cmp	r0, r5
 8005270:	bfa4      	itt	ge
 8005272:	f811 7c02 	ldrbge.w	r7, [r1, #-2]
 8005276:	f801 7c01 	strbge.w	r7, [r1, #-1]
 800527a:	3801      	subs	r0, #1
 800527c:	3901      	subs	r1, #1
 800527e:	e7ec      	b.n	800525a <Centred_DrawNumber_16_32bit+0x142>
 8005280:	1e51      	subs	r1, r2, #1
 8005282:	b2c9      	uxtb	r1, r1
 8005284:	f108 30ff 	add.w	r0, r8, #4294967295
 8005288:	eba8 0202 	sub.w	r2, r8, r2
 800528c:	af10      	add	r7, sp, #64	; 0x40
 800528e:	1c45      	adds	r5, r0, #1
 8005290:	d0a2      	beq.n	80051d8 <Centred_DrawNumber_16_32bit+0xc0>
 8005292:	b151      	cbz	r1, 80052aa <Centred_DrawNumber_16_32bit+0x192>
 8005294:	f101 0358 	add.w	r3, r1, #88	; 0x58
 8005298:	eb0d 0503 	add.w	r5, sp, r3
 800529c:	3901      	subs	r1, #1
 800529e:	f815 5c18 	ldrb.w	r5, [r5, #-24]
 80052a2:	b2c9      	uxtb	r1, r1
 80052a4:	55c5      	strb	r5, [r0, r7]
 80052a6:	3801      	subs	r0, #1
 80052a8:	e7f1      	b.n	800528e <Centred_DrawNumber_16_32bit+0x176>
 80052aa:	4282      	cmp	r2, r0
 80052ac:	bf0c      	ite	eq
 80052ae:	f89d 5040 	ldrbeq.w	r5, [sp, #64]	; 0x40
 80052b2:	2520      	movne	r5, #32
 80052b4:	e7f6      	b.n	80052a4 <Centred_DrawNumber_16_32bit+0x18c>
 80052b6:	aa13      	add	r2, sp, #76	; 0x4c
 80052b8:	9b0e      	ldr	r3, [sp, #56]	; 0x38
 80052ba:	5ca2      	ldrb	r2, [r4, r2]
 80052bc:	f8df 8088 	ldr.w	r8, [pc, #136]	; 8005348 <Centred_DrawNumber_16_32bit+0x230>
 80052c0:	9d25      	ldr	r5, [sp, #148]	; 0x94
 80052c2:	f8d8 0000 	ldr.w	r0, [r8]
 80052c6:	1ad2      	subs	r2, r2, r3
 80052c8:	4253      	negs	r3, r2
 80052ca:	4153      	adcs	r3, r2
 80052cc:	42a8      	cmp	r0, r5
 80052ce:	bf08      	it	eq
 80052d0:	2300      	moveq	r3, #0
 80052d2:	3401      	adds	r4, #1
 80052d4:	b34b      	cbz	r3, 800532a <Centred_DrawNumber_16_32bit+0x212>
 80052d6:	9b0a      	ldr	r3, [sp, #40]	; 0x28
 80052d8:	2b00      	cmp	r3, #0
 80052da:	dd22      	ble.n	8005322 <Centred_DrawNumber_16_32bit+0x20a>
 80052dc:	f44f 7a48 	mov.w	sl, #800	; 0x320
 80052e0:	f44f 7bf0 	mov.w	fp, #480	; 0x1e0
 80052e4:	9b24      	ldr	r3, [sp, #144]	; 0x90
 80052e6:	9301      	str	r3, [sp, #4]
 80052e8:	e9cd ab02 	strd	sl, fp, [sp, #8]
 80052ec:	2304      	movs	r3, #4
 80052ee:	f8df 805c 	ldr.w	r8, [pc, #92]	; 800534c <Centred_DrawNumber_16_32bit+0x234>
 80052f2:	9300      	str	r3, [sp, #0]
 80052f4:	1c7a      	adds	r2, r7, #1
 80052f6:	f8d8 0000 	ldr.w	r0, [r8]
 80052fa:	910f      	str	r1, [sp, #60]	; 0x3c
 80052fc:	464b      	mov	r3, r9
 80052fe:	b292      	uxth	r2, r2
 8005300:	f000 fa2d 	bl	800575e <Draw_Rectangle>
 8005304:	9b24      	ldr	r3, [sp, #144]	; 0x90
 8005306:	9301      	str	r3, [sp, #4]
 8005308:	e9cd ab02 	strd	sl, fp, [sp, #8]
 800530c:	2304      	movs	r3, #4
 800530e:	9300      	str	r3, [sp, #0]
 8005310:	990f      	ldr	r1, [sp, #60]	; 0x3c
 8005312:	f8bd 2034 	ldrh.w	r2, [sp, #52]	; 0x34
 8005316:	f8d8 0000 	ldr.w	r0, [r8]
 800531a:	464b      	mov	r3, r9
 800531c:	f000 fa1f 	bl	800575e <Draw_Rectangle>
 8005320:	990f      	ldr	r1, [sp, #60]	; 0x3c
 8005322:	eba1 0109 	sub.w	r1, r1, r9
 8005326:	b289      	uxth	r1, r1
 8005328:	e76d      	b.n	8005206 <Centred_DrawNumber_16_32bit+0xee>
 800532a:	9b24      	ldr	r3, [sp, #144]	; 0x90
 800532c:	9301      	str	r3, [sp, #4]
 800532e:	1c7a      	adds	r2, r7, #1
 8005330:	2304      	movs	r3, #4
 8005332:	f44f 7a48 	mov.w	sl, #800	; 0x320
 8005336:	f44f 7bf0 	mov.w	fp, #480	; 0x1e0
 800533a:	9300      	str	r3, [sp, #0]
 800533c:	e9cd ab02 	strd	sl, fp, [sp, #8]
 8005340:	464b      	mov	r3, r9
 8005342:	b292      	uxth	r2, r2
 8005344:	910f      	str	r1, [sp, #60]	; 0x3c
 8005346:	e7db      	b.n	8005300 <Centred_DrawNumber_16_32bit+0x1e8>
 8005348:	20000000 	.word	0x20000000
 800534c:	2000000c 	.word	0x2000000c

08005350 <Centred_DrawNumber_16_32bit_controled>:
 8005350:	e92d 4ff0 	stmdb	sp!, {r4, r5, r6, r7, r8, r9, sl, fp, lr}
 8005354:	b097      	sub	sp, #92	; 0x5c
 8005356:	e9cd 2308 	strd	r2, r3, [sp, #32]
 800535a:	f8bd 3088 	ldrh.w	r3, [sp, #136]	; 0x88
 800535e:	930b      	str	r3, [sp, #44]	; 0x2c
 8005360:	460d      	mov	r5, r1
 8005362:	f8bd 308c 	ldrh.w	r3, [sp, #140]	; 0x8c
 8005366:	4994      	ldr	r1, [pc, #592]	; (80055b8 <Centred_DrawNumber_16_32bit_controled+0x268>)
 8005368:	930c      	str	r3, [sp, #48]	; 0x30
 800536a:	f8bd 30ac 	ldrh.w	r3, [sp, #172]	; 0xac
 800536e:	6809      	ldr	r1, [r1, #0]
 8005370:	930a      	str	r3, [sp, #40]	; 0x28
 8005372:	9b27      	ldr	r3, [sp, #156]	; 0x9c
 8005374:	f8bd 90a8 	ldrh.w	r9, [sp, #168]	; 0xa8
 8005378:	4299      	cmp	r1, r3
 800537a:	4604      	mov	r4, r0
 800537c:	e9dd 6220 	ldrd	r6, r2, [sp, #128]	; 0x80
 8005380:	6800      	ldr	r0, [r0, #0]
 8005382:	d00f      	beq.n	80053a4 <Centred_DrawNumber_16_32bit_controled+0x54>
 8005384:	9b09      	ldr	r3, [sp, #36]	; 0x24
 8005386:	2b00      	cmp	r3, #0
 8005388:	dd0c      	ble.n	80053a4 <Centred_DrawNumber_16_32bit_controled+0x54>
 800538a:	498c      	ldr	r1, [pc, #560]	; (80055bc <Centred_DrawNumber_16_32bit_controled+0x26c>)
 800538c:	9b08      	ldr	r3, [sp, #32]
 800538e:	608c      	str	r4, [r1, #8]
 8005390:	42b0      	cmp	r0, r6
 8005392:	e9c1 6203 	strd	r6, r2, [r1, #12]
 8005396:	80cb      	strh	r3, [r1, #6]
 8005398:	f300 810a 	bgt.w	80055b0 <Centred_DrawNumber_16_32bit_controled+0x260>
 800539c:	4290      	cmp	r0, r2
 800539e:	da01      	bge.n	80053a4 <Centred_DrawNumber_16_32bit_controled+0x54>
 80053a0:	6022      	str	r2, [r4, #0]
 80053a2:	4610      	mov	r0, r2
 80053a4:	2600      	movs	r6, #0
 80053a6:	42b0      	cmp	r0, r6
 80053a8:	a910      	add	r1, sp, #64	; 0x40
 80053aa:	bfb8      	it	lt
 80053ac:	4240      	neglt	r0, r0
 80053ae:	f04f 020a 	mov.w	r2, #10
 80053b2:	e9cd 6613 	strd	r6, r6, [sp, #76]	; 0x4c
 80053b6:	f8ad 6054 	strh.w	r6, [sp, #84]	; 0x54
 80053ba:	bfb8      	it	lt
 80053bc:	2601      	movlt	r6, #1
 80053be:	f002 fabb 	bl	8007938 <itoa>
 80053c2:	2100      	movs	r1, #0
 80053c4:	ab16      	add	r3, sp, #88	; 0x58
 80053c6:	fa13 f081 	uxtah	r0, r3, r1
 80053ca:	b28a      	uxth	r2, r1
 80053cc:	f810 4c18 	ldrb.w	r4, [r0, #-24]
 80053d0:	4608      	mov	r0, r1
 80053d2:	3101      	adds	r1, #1
 80053d4:	2c00      	cmp	r4, #0
 80053d6:	d1f5      	bne.n	80053c4 <Centred_DrawNumber_16_32bit_controled+0x74>
 80053d8:	f89d 8020 	ldrb.w	r8, [sp, #32]
 80053dc:	f10d 0c4c 	add.w	ip, sp, #76	; 0x4c
 80053e0:	4644      	mov	r4, r8
 80053e2:	b2e7      	uxtb	r7, r4
 80053e4:	2c00      	cmp	r4, #0
 80053e6:	d15f      	bne.n	80054a8 <Centred_DrawNumber_16_32bit_controled+0x158>
 80053e8:	b1d5      	cbz	r5, 8005420 <Centred_DrawNumber_16_32bit_controled+0xd0>
 80053ea:	2d05      	cmp	r5, #5
 80053ec:	bf28      	it	cs
 80053ee:	2505      	movcs	r5, #5
 80053f0:	4295      	cmp	r5, r2
 80053f2:	d35f      	bcc.n	80054b4 <Centred_DrawNumber_16_32bit_controled+0x164>
 80053f4:	3502      	adds	r5, #2
 80053f6:	af10      	add	r7, sp, #64	; 0x40
 80053f8:	b2aa      	uxth	r2, r5
 80053fa:	b241      	sxtb	r1, r0
 80053fc:	fa17 f585 	uxtah	r5, r7, r5
 8005400:	2900      	cmp	r1, #0
 8005402:	d055      	beq.n	80054b0 <Centred_DrawNumber_16_32bit_controled+0x160>
 8005404:	1e48      	subs	r0, r1, #1
 8005406:	ab16      	add	r3, sp, #88	; 0x58
 8005408:	b241      	sxtb	r1, r0
 800540a:	fa53 f080 	uxtab	r0, r3, r0
 800540e:	f810 0c18 	ldrb.w	r0, [r0, #-24]
 8005412:	f805 0d01 	strb.w	r0, [r5, #-1]!
 8005416:	42af      	cmp	r7, r5
 8005418:	d1f2      	bne.n	8005400 <Centred_DrawNumber_16_32bit_controled+0xb0>
 800541a:	212c      	movs	r1, #44	; 0x2c
 800541c:	f88d 1041 	strb.w	r1, [sp, #65]	; 0x41
 8005420:	b156      	cbz	r6, 8005438 <Centred_DrawNumber_16_32bit_controled+0xe8>
 8005422:	1c55      	adds	r5, r2, #1
 8005424:	462a      	mov	r2, r5
 8005426:	f10d 013f 	add.w	r1, sp, #63	; 0x3f
 800542a:	a810      	add	r0, sp, #64	; 0x40
 800542c:	f002 fac8 	bl	80079c0 <memmove>
 8005430:	222d      	movs	r2, #45	; 0x2d
 8005432:	f88d 2040 	strb.w	r2, [sp, #64]	; 0x40
 8005436:	b2aa      	uxth	r2, r5
 8005438:	f89d 6020 	ldrb.w	r6, [sp, #32]
 800543c:	42b2      	cmp	r2, r6
 800543e:	d353      	bcc.n	80054e8 <Centred_DrawNumber_16_32bit_controled+0x198>
 8005440:	9b0c      	ldr	r3, [sp, #48]	; 0x30
 8005442:	9a0a      	ldr	r2, [sp, #40]	; 0x28
 8005444:	eb03 0552 	add.w	r5, r3, r2, lsr #1
 8005448:	9b09      	ldr	r3, [sp, #36]	; 0x24
 800544a:	ea23 73e3 	bic.w	r3, r3, r3, asr #31
 800544e:	930e      	str	r3, [sp, #56]	; 0x38
 8005450:	9b0b      	ldr	r3, [sp, #44]	; 0x2c
 8005452:	f5c2 427f 	rsb	r2, r2, #65280	; 0xff00
 8005456:	eba3 0109 	sub.w	r1, r3, r9
 800545a:	fb08 f809 	mul.w	r8, r8, r9
 800545e:	32fc      	adds	r2, #252	; 0xfc
 8005460:	eb01 0158 	add.w	r1, r1, r8, lsr #1
 8005464:	fa12 f385 	uxtah	r3, r2, r5
 8005468:	b2af      	uxth	r7, r5
 800546a:	b289      	uxth	r1, r1
 800546c:	930d      	str	r3, [sp, #52]	; 0x34
 800546e:	9b08      	ldr	r3, [sp, #32]
 8005470:	42a3      	cmp	r3, r4
 8005472:	dc54      	bgt.n	800551e <Centred_DrawNumber_16_32bit_controled+0x1ce>
 8005474:	9b0a      	ldr	r3, [sp, #40]	; 0x28
 8005476:	e9cd 9306 	strd	r9, r3, [sp, #24]
 800547a:	9b29      	ldr	r3, [sp, #164]	; 0xa4
 800547c:	9305      	str	r3, [sp, #20]
 800547e:	9b28      	ldr	r3, [sp, #160]	; 0xa0
 8005480:	9304      	str	r3, [sp, #16]
 8005482:	9b27      	ldr	r3, [sp, #156]	; 0x9c
 8005484:	9303      	str	r3, [sp, #12]
 8005486:	9b26      	ldr	r3, [sp, #152]	; 0x98
 8005488:	9302      	str	r3, [sp, #8]
 800548a:	f8bd 3094 	ldrh.w	r3, [sp, #148]	; 0x94
 800548e:	9301      	str	r3, [sp, #4]
 8005490:	f8bd 3090 	ldrh.w	r3, [sp, #144]	; 0x90
 8005494:	9300      	str	r3, [sp, #0]
 8005496:	4631      	mov	r1, r6
 8005498:	e9dd 230b 	ldrd	r2, r3, [sp, #44]	; 0x2c
 800549c:	a810      	add	r0, sp, #64	; 0x40
 800549e:	f7ff fc62 	bl	8004d66 <Centred_DrawString_16>
 80054a2:	b017      	add	sp, #92	; 0x5c
 80054a4:	e8bd 8ff0 	ldmia.w	sp!, {r4, r5, r6, r7, r8, r9, sl, fp, pc}
 80054a8:	3c01      	subs	r4, #1
 80054aa:	f804 700c 	strb.w	r7, [r4, ip]
 80054ae:	e798      	b.n	80053e2 <Centred_DrawNumber_16_32bit_controled+0x92>
 80054b0:	2030      	movs	r0, #48	; 0x30
 80054b2:	e7ae      	b.n	8005412 <Centred_DrawNumber_16_32bit_controled+0xc2>
 80054b4:	3201      	adds	r2, #1
 80054b6:	b292      	uxth	r2, r2
 80054b8:	ab10      	add	r3, sp, #64	; 0x40
 80054ba:	1e50      	subs	r0, r2, #1
 80054bc:	fa13 f181 	uxtah	r1, r3, r1
 80054c0:	1b55      	subs	r5, r2, r5
 80054c2:	1c47      	adds	r7, r0, #1
 80054c4:	d107      	bne.n	80054d6 <Centred_DrawNumber_16_32bit_controled+0x186>
 80054c6:	f105 0358 	add.w	r3, r5, #88	; 0x58
 80054ca:	eb0d 0503 	add.w	r5, sp, r3
 80054ce:	212c      	movs	r1, #44	; 0x2c
 80054d0:	f805 1c19 	strb.w	r1, [r5, #-25]
 80054d4:	e7a4      	b.n	8005420 <Centred_DrawNumber_16_32bit_controled+0xd0>
 80054d6:	4285      	cmp	r5, r0
 80054d8:	bfdc      	itt	le
 80054da:	f811 7c02 	ldrble.w	r7, [r1, #-2]
 80054de:	f801 7c01 	strble.w	r7, [r1, #-1]
 80054e2:	3801      	subs	r0, #1
 80054e4:	3901      	subs	r1, #1
 80054e6:	e7ec      	b.n	80054c2 <Centred_DrawNumber_16_32bit_controled+0x172>
 80054e8:	1e51      	subs	r1, r2, #1
 80054ea:	b2c9      	uxtb	r1, r1
 80054ec:	f108 30ff 	add.w	r0, r8, #4294967295
 80054f0:	eba8 0202 	sub.w	r2, r8, r2
 80054f4:	af10      	add	r7, sp, #64	; 0x40
 80054f6:	1c45      	adds	r5, r0, #1
 80054f8:	d0a2      	beq.n	8005440 <Centred_DrawNumber_16_32bit_controled+0xf0>
 80054fa:	b151      	cbz	r1, 8005512 <Centred_DrawNumber_16_32bit_controled+0x1c2>
 80054fc:	f101 0358 	add.w	r3, r1, #88	; 0x58
 8005500:	eb0d 0503 	add.w	r5, sp, r3
 8005504:	3901      	subs	r1, #1
 8005506:	f815 5c18 	ldrb.w	r5, [r5, #-24]
 800550a:	b2c9      	uxtb	r1, r1
 800550c:	55c5      	strb	r5, [r0, r7]
 800550e:	3801      	subs	r0, #1
 8005510:	e7f1      	b.n	80054f6 <Centred_DrawNumber_16_32bit_controled+0x1a6>
 8005512:	4282      	cmp	r2, r0
 8005514:	bf0c      	ite	eq
 8005516:	f89d 5040 	ldrbeq.w	r5, [sp, #64]	; 0x40
 800551a:	2520      	movne	r5, #32
 800551c:	e7f6      	b.n	800550c <Centred_DrawNumber_16_32bit_controled+0x1bc>
 800551e:	aa13      	add	r2, sp, #76	; 0x4c
 8005520:	9b0e      	ldr	r3, [sp, #56]	; 0x38
 8005522:	5ca2      	ldrb	r2, [r4, r2]
 8005524:	f8df 8090 	ldr.w	r8, [pc, #144]	; 80055b8 <Centred_DrawNumber_16_32bit_controled+0x268>
 8005528:	9d27      	ldr	r5, [sp, #156]	; 0x9c
 800552a:	f8d8 0000 	ldr.w	r0, [r8]
 800552e:	1ad2      	subs	r2, r2, r3
 8005530:	4253      	negs	r3, r2
 8005532:	4153      	adcs	r3, r2
 8005534:	42a8      	cmp	r0, r5
 8005536:	bf08      	it	eq
 8005538:	2300      	moveq	r3, #0
 800553a:	3401      	adds	r4, #1
 800553c:	b34b      	cbz	r3, 8005592 <Centred_DrawNumber_16_32bit_controled+0x242>
 800553e:	9b09      	ldr	r3, [sp, #36]	; 0x24
 8005540:	2b00      	cmp	r3, #0
 8005542:	dd22      	ble.n	800558a <Centred_DrawNumber_16_32bit_controled+0x23a>
 8005544:	f44f 7a48 	mov.w	sl, #800	; 0x320
 8005548:	f44f 7bf0 	mov.w	fp, #480	; 0x1e0
 800554c:	9b26      	ldr	r3, [sp, #152]	; 0x98
 800554e:	9301      	str	r3, [sp, #4]
 8005550:	e9cd ab02 	strd	sl, fp, [sp, #8]
 8005554:	2304      	movs	r3, #4
 8005556:	f8df 8068 	ldr.w	r8, [pc, #104]	; 80055c0 <Centred_DrawNumber_16_32bit_controled+0x270>
 800555a:	9300      	str	r3, [sp, #0]
 800555c:	1c7a      	adds	r2, r7, #1
 800555e:	f8d8 0000 	ldr.w	r0, [r8]
 8005562:	910f      	str	r1, [sp, #60]	; 0x3c
 8005564:	464b      	mov	r3, r9
 8005566:	b292      	uxth	r2, r2
 8005568:	f000 f8f9 	bl	800575e <Draw_Rectangle>
 800556c:	9b26      	ldr	r3, [sp, #152]	; 0x98
 800556e:	9301      	str	r3, [sp, #4]
 8005570:	e9cd ab02 	strd	sl, fp, [sp, #8]
 8005574:	2304      	movs	r3, #4
 8005576:	9300      	str	r3, [sp, #0]
 8005578:	990f      	ldr	r1, [sp, #60]	; 0x3c
 800557a:	f8bd 2034 	ldrh.w	r2, [sp, #52]	; 0x34
 800557e:	f8d8 0000 	ldr.w	r0, [r8]
 8005582:	464b      	mov	r3, r9
 8005584:	f000 f8eb 	bl	800575e <Draw_Rectangle>
 8005588:	990f      	ldr	r1, [sp, #60]	; 0x3c
 800558a:	eba1 0109 	sub.w	r1, r1, r9
 800558e:	b289      	uxth	r1, r1
 8005590:	e76d      	b.n	800546e <Centred_DrawNumber_16_32bit_controled+0x11e>
 8005592:	9b26      	ldr	r3, [sp, #152]	; 0x98
 8005594:	9301      	str	r3, [sp, #4]
 8005596:	1c7a      	adds	r2, r7, #1
 8005598:	2304      	movs	r3, #4
 800559a:	f44f 7a48 	mov.w	sl, #800	; 0x320
 800559e:	f44f 7bf0 	mov.w	fp, #480	; 0x1e0
 80055a2:	9300      	str	r3, [sp, #0]
 80055a4:	e9cd ab02 	strd	sl, fp, [sp, #8]
 80055a8:	464b      	mov	r3, r9
 80055aa:	b292      	uxth	r2, r2
 80055ac:	910f      	str	r1, [sp, #60]	; 0x3c
 80055ae:	e7db      	b.n	8005568 <Centred_DrawNumber_16_32bit_controled+0x218>
 80055b0:	42b2      	cmp	r2, r6
 80055b2:	bfb8      	it	lt
 80055b4:	4632      	movlt	r2, r6
 80055b6:	e6f3      	b.n	80053a0 <Centred_DrawNumber_16_32bit_controled+0x50>
 80055b8:	20000000 	.word	0x20000000
 80055bc:	20000234 	.word	0x20000234
 80055c0:	2000000c 	.word	0x2000000c

080055c4 <Short_Centred_DrawNumber_16>:
 80055c4:	b510      	push	{r4, lr}
 80055c6:	f04f 0c12 	mov.w	ip, #18
 80055ca:	b08a      	sub	sp, #40	; 0x28
 80055cc:	240b      	movs	r4, #11
 80055ce:	e9cd 4c08 	strd	r4, ip, [sp, #32]
 80055d2:	4c0d      	ldr	r4, [pc, #52]	; (8005608 <Short_Centred_DrawNumber_16+0x44>)
 80055d4:	9407      	str	r4, [sp, #28]
 80055d6:	4c0d      	ldr	r4, [pc, #52]	; (800560c <Short_Centred_DrawNumber_16+0x48>)
 80055d8:	6824      	ldr	r4, [r4, #0]
 80055da:	9406      	str	r4, [sp, #24]
 80055dc:	4c0c      	ldr	r4, [pc, #48]	; (8005610 <Short_Centred_DrawNumber_16+0x4c>)
 80055de:	6824      	ldr	r4, [r4, #0]
 80055e0:	9405      	str	r4, [sp, #20]
 80055e2:	9c0e      	ldr	r4, [sp, #56]	; 0x38
 80055e4:	9404      	str	r4, [sp, #16]
 80055e6:	f44f 7ef0 	mov.w	lr, #480	; 0x1e0
 80055ea:	f44f 7448 	mov.w	r4, #800	; 0x320
 80055ee:	e9cd 4e02 	strd	r4, lr, [sp, #8]
 80055f2:	f8bd 4034 	ldrh.w	r4, [sp, #52]	; 0x34
 80055f6:	9401      	str	r4, [sp, #4]
 80055f8:	f8bd 4030 	ldrh.w	r4, [sp, #48]	; 0x30
 80055fc:	9400      	str	r4, [sp, #0]
 80055fe:	f7ff fc83 	bl	8004f08 <Centred_DrawNumber_16>
 8005602:	b00a      	add	sp, #40	; 0x28
 8005604:	bd10      	pop	{r4, pc}
 8005606:	bf00      	nop
 8005608:	0800bf68 	.word	0x0800bf68
 800560c:	20000230 	.word	0x20000230
 8005610:	20000000 	.word	0x20000000
 8005614:	00000000 	.word	0x00000000

08005618 <NumberChange>:
 8005618:	e92d 4ff0 	stmdb	sp!, {r4, r5, r6, r7, r8, r9, sl, fp, lr}
 800561c:	ed2d 8b02 	vpush	{d8}
 8005620:	b089      	sub	sp, #36	; 0x24
 8005622:	ed9f 8b43 	vldr	d8, [pc, #268]	; 8005730 <NumberChange+0x118>
 8005626:	9300      	str	r3, [sp, #0]
 8005628:	1e55      	subs	r5, r2, #1
 800562a:	1e4b      	subs	r3, r1, #1
 800562c:	f10d 0b0c 	add.w	fp, sp, #12
 8005630:	f89d 7050 	ldrb.w	r7, [sp, #80]	; 0x50
 8005634:	4682      	mov	sl, r0
 8005636:	b21e      	sxth	r6, r3
 8005638:	eb0b 0442 	add.w	r4, fp, r2, lsl #1
 800563c:	46a8      	mov	r8, r5
 800563e:	f04f 0900 	mov.w	r9, #0
 8005642:	f1b8 3fff 	cmp.w	r8, #4294967295
 8005646:	d126      	bne.n	8005696 <NumberChange+0x7e>
 8005648:	9b00      	ldr	r3, [sp, #0]
 800564a:	b15b      	cbz	r3, 8005664 <NumberChange+0x4c>
 800564c:	ab08      	add	r3, sp, #32
 800564e:	eb03 0246 	add.w	r2, r3, r6, lsl #1
 8005652:	f832 3c14 	ldrh.w	r3, [r2, #-20]
 8005656:	3301      	adds	r3, #1
 8005658:	b21b      	sxth	r3, r3
 800565a:	2b09      	cmp	r3, #9
 800565c:	bfc8      	it	gt
 800565e:	2300      	movgt	r3, #0
 8005660:	f822 3c14 	strh.w	r3, [r2, #-20]
 8005664:	b15f      	cbz	r7, 800567e <NumberChange+0x66>
 8005666:	ab08      	add	r3, sp, #32
 8005668:	eb03 0346 	add.w	r3, r3, r6, lsl #1
 800566c:	f833 2c14 	ldrh.w	r2, [r3, #-20]
 8005670:	3a01      	subs	r2, #1
 8005672:	b212      	sxth	r2, r2
 8005674:	2a00      	cmp	r2, #0
 8005676:	bfb8      	it	lt
 8005678:	2209      	movlt	r2, #9
 800567a:	f823 2c14 	strh.w	r2, [r3, #-20]
 800567e:	ed9f 8b2c 	vldr	d8, [pc, #176]	; 8005730 <NumberChange+0x118>
 8005682:	2400      	movs	r4, #0
 8005684:	1c6b      	adds	r3, r5, #1
 8005686:	f8ca 4000 	str.w	r4, [sl]
 800568a:	d127      	bne.n	80056dc <NumberChange+0xc4>
 800568c:	b009      	add	sp, #36	; 0x24
 800568e:	ecbd 8b02 	vpop	{d8}
 8005692:	e8bd 8ff0 	ldmia.w	sp!, {r4, r5, r6, r7, r8, r9, sl, fp, pc}
 8005696:	4640      	mov	r0, r8
 8005698:	f7fa fefc 	bl	8000494 <__aeabi_i2d>
 800569c:	eeb0 0a48 	vmov.f32	s0, s16
 80056a0:	eef0 0a68 	vmov.f32	s1, s17
 80056a4:	ec41 0b11 	vmov	d1, r0, r1
 80056a8:	f002 f9d6 	bl	8007a58 <pow>
 80056ac:	ec51 0b10 	vmov	r0, r1, d0
 80056b0:	f7fb fa0a 	bl	8000ac8 <__aeabi_d2iz>
 80056b4:	f8da 2000 	ldr.w	r2, [sl]
 80056b8:	4282      	cmp	r2, r0
 80056ba:	bfa1      	itttt	ge
 80056bc:	fb92 f1f0 	sdivge	r1, r2, r0
 80056c0:	b209      	sxthge	r1, r1
 80056c2:	fb00 2011 	mlsge	r0, r0, r1, r2
 80056c6:	f824 1c02 	strhge.w	r1, [r4, #-2]
 80056ca:	bfb4      	ite	lt
 80056cc:	f824 9c02 	strhlt.w	r9, [r4, #-2]
 80056d0:	f8ca 0000 	strge.w	r0, [sl]
 80056d4:	f108 38ff 	add.w	r8, r8, #4294967295
 80056d8:	3c02      	subs	r4, #2
 80056da:	e7b2      	b.n	8005642 <NumberChange+0x2a>
 80056dc:	f93b 0015 	ldrsh.w	r0, [fp, r5, lsl #1]
 80056e0:	f7fa fed8 	bl	8000494 <__aeabi_i2d>
 80056e4:	4680      	mov	r8, r0
 80056e6:	4628      	mov	r0, r5
 80056e8:	4689      	mov	r9, r1
 80056ea:	f7fa fed3 	bl	8000494 <__aeabi_i2d>
 80056ee:	eeb0 0a48 	vmov.f32	s0, s16
 80056f2:	eef0 0a68 	vmov.f32	s1, s17
 80056f6:	ec41 0b11 	vmov	d1, r0, r1
 80056fa:	f002 f9ad 	bl	8007a58 <pow>
 80056fe:	4620      	mov	r0, r4
 8005700:	ed8d 0b00 	vstr	d0, [sp]
 8005704:	f7fa fec6 	bl	8000494 <__aeabi_i2d>
 8005708:	e9dd 2300 	ldrd	r2, r3, [sp]
 800570c:	4606      	mov	r6, r0
 800570e:	460f      	mov	r7, r1
 8005710:	4640      	mov	r0, r8
 8005712:	4649      	mov	r1, r9
 8005714:	f7fa ff28 	bl	8000568 <__aeabi_dmul>
 8005718:	4602      	mov	r2, r0
 800571a:	460b      	mov	r3, r1
 800571c:	4630      	mov	r0, r6
 800571e:	4639      	mov	r1, r7
 8005720:	f7fa fd6c 	bl	80001fc <__adddf3>
 8005724:	f7fb f9d0 	bl	8000ac8 <__aeabi_d2iz>
 8005728:	3d01      	subs	r5, #1
 800572a:	4604      	mov	r4, r0
 800572c:	e7aa      	b.n	8005684 <NumberChange+0x6c>
 800572e:	bf00      	nop
 8005730:	00000000 	.word	0x00000000
 8005734:	40240000 	.word	0x40240000

08005738 <Zaliv>:
 8005738:	b573      	push	{r0, r1, r4, r5, r6, lr}
 800573a:	4353      	muls	r3, r2
 800573c:	9001      	str	r0, [sp, #4]
 800573e:	2000      	movs	r0, #0
 8005740:	4283      	cmp	r3, r0
 8005742:	d101      	bne.n	8005748 <Zaliv+0x10>
 8005744:	b002      	add	sp, #8
 8005746:	bd70      	pop	{r4, r5, r6, pc}
 8005748:	eb00 0240 	add.w	r2, r0, r0, lsl #1
 800574c:	1854      	adds	r4, r2, r1
 800574e:	f8bd 6004 	ldrh.w	r6, [sp, #4]
 8005752:	f89d 5006 	ldrb.w	r5, [sp, #6]
 8005756:	5256      	strh	r6, [r2, r1]
 8005758:	3001      	adds	r0, #1
 800575a:	70a5      	strb	r5, [r4, #2]
 800575c:	e7f0      	b.n	8005740 <Zaliv+0x8>

0800575e <Draw_Rectangle>:
 800575e:	b5f7      	push	{r0, r1, r2, r4, r5, r6, r7, lr}
 8005760:	f8bd 4020 	ldrh.w	r4, [sp, #32]
 8005764:	9d09      	ldr	r5, [sp, #36]	; 0x24
 8005766:	f8bd 7028 	ldrh.w	r7, [sp, #40]	; 0x28
 800576a:	9001      	str	r0, [sp, #4]
 800576c:	4414      	add	r4, r2
 800576e:	4294      	cmp	r4, r2
 8005770:	dc01      	bgt.n	8005776 <Draw_Rectangle+0x18>
 8005772:	b003      	add	sp, #12
 8005774:	bdf0      	pop	{r4, r5, r6, r7, pc}
 8005776:	fb07 1002 	mla	r0, r7, r2, r1
 800577a:	eb00 0040 	add.w	r0, r0, r0, lsl #1
 800577e:	4428      	add	r0, r5
 8005780:	2600      	movs	r6, #0
 8005782:	429e      	cmp	r6, r3
 8005784:	d101      	bne.n	800578a <Draw_Rectangle+0x2c>
 8005786:	3201      	adds	r2, #1
 8005788:	e7f1      	b.n	800576e <Draw_Rectangle+0x10>
 800578a:	f8bd e004 	ldrh.w	lr, [sp, #4]
 800578e:	f89d c006 	ldrb.w	ip, [sp, #6]
 8005792:	f8a0 e000 	strh.w	lr, [r0]
 8005796:	f880 c002 	strb.w	ip, [r0, #2]
 800579a:	3601      	adds	r6, #1
 800579c:	3003      	adds	r0, #3
 800579e:	e7f0      	b.n	8005782 <Draw_Rectangle+0x24>

080057a0 <HAL_InitTick>:
 80057a0:	b538      	push	{r3, r4, r5, lr}
 80057a2:	4b0e      	ldr	r3, [pc, #56]	; (80057dc <HAL_InitTick+0x3c>)
 80057a4:	781a      	ldrb	r2, [r3, #0]
 80057a6:	f44f 737a 	mov.w	r3, #1000	; 0x3e8
 80057aa:	fbb3 f3f2 	udiv	r3, r3, r2
 80057ae:	4a0c      	ldr	r2, [pc, #48]	; (80057e0 <HAL_InitTick+0x40>)
 80057b0:	4605      	mov	r5, r0
 80057b2:	6810      	ldr	r0, [r2, #0]
 80057b4:	fbb0 f0f3 	udiv	r0, r0, r3
 80057b8:	f000 f8a8 	bl	800590c <HAL_SYSTICK_Config>
 80057bc:	4604      	mov	r4, r0
 80057be:	b958      	cbnz	r0, 80057d8 <HAL_InitTick+0x38>
 80057c0:	2d0f      	cmp	r5, #15
 80057c2:	d809      	bhi.n	80057d8 <HAL_InitTick+0x38>
 80057c4:	4602      	mov	r2, r0
 80057c6:	4629      	mov	r1, r5
 80057c8:	f04f 30ff 	mov.w	r0, #4294967295
 80057cc:	f000 f85e 	bl	800588c <HAL_NVIC_SetPriority>
 80057d0:	4b04      	ldr	r3, [pc, #16]	; (80057e4 <HAL_InitTick+0x44>)
 80057d2:	4620      	mov	r0, r4
 80057d4:	601d      	str	r5, [r3, #0]
 80057d6:	bd38      	pop	{r3, r4, r5, pc}
 80057d8:	2001      	movs	r0, #1
 80057da:	e7fc      	b.n	80057d6 <HAL_InitTick+0x36>
 80057dc:	20000020 	.word	0x20000020
 80057e0:	2000001c 	.word	0x2000001c
 80057e4:	20000024 	.word	0x20000024

080057e8 <HAL_Init>:
 80057e8:	b508      	push	{r3, lr}
 80057ea:	4b0b      	ldr	r3, [pc, #44]	; (8005818 <HAL_Init+0x30>)
 80057ec:	681a      	ldr	r2, [r3, #0]
 80057ee:	f442 7200 	orr.w	r2, r2, #512	; 0x200
 80057f2:	601a      	str	r2, [r3, #0]
 80057f4:	681a      	ldr	r2, [r3, #0]
 80057f6:	f442 6280 	orr.w	r2, r2, #1024	; 0x400
 80057fa:	601a      	str	r2, [r3, #0]
 80057fc:	681a      	ldr	r2, [r3, #0]
 80057fe:	f442 7280 	orr.w	r2, r2, #256	; 0x100
 8005802:	601a      	str	r2, [r3, #0]
 8005804:	2003      	movs	r0, #3
 8005806:	f000 f82f 	bl	8005868 <HAL_NVIC_SetPriorityGrouping>
 800580a:	200f      	movs	r0, #15
 800580c:	f7ff ffc8 	bl	80057a0 <HAL_InitTick>
 8005810:	f7fe fbe4 	bl	8003fdc <HAL_MspInit>
 8005814:	2000      	movs	r0, #0
 8005816:	bd08      	pop	{r3, pc}
 8005818:	40023c00 	.word	0x40023c00

0800581c <HAL_IncTick>:
 800581c:	4a03      	ldr	r2, [pc, #12]	; (800582c <HAL_IncTick+0x10>)
 800581e:	4b04      	ldr	r3, [pc, #16]	; (8005830 <HAL_IncTick+0x14>)
 8005820:	6811      	ldr	r1, [r2, #0]
 8005822:	781b      	ldrb	r3, [r3, #0]
 8005824:	440b      	add	r3, r1
 8005826:	6013      	str	r3, [r2, #0]
 8005828:	4770      	bx	lr
 800582a:	bf00      	nop
 800582c:	20000bac 	.word	0x20000bac
 8005830:	20000020 	.word	0x20000020

08005834 <HAL_GetTick>:
 8005834:	4b01      	ldr	r3, [pc, #4]	; (800583c <HAL_GetTick+0x8>)
 8005836:	6818      	ldr	r0, [r3, #0]
 8005838:	4770      	bx	lr
 800583a:	bf00      	nop
 800583c:	20000bac 	.word	0x20000bac

08005840 <HAL_Delay>:
 8005840:	b538      	push	{r3, r4, r5, lr}
 8005842:	4604      	mov	r4, r0
 8005844:	f7ff fff6 	bl	8005834 <HAL_GetTick>
 8005848:	1c63      	adds	r3, r4, #1
 800584a:	bf1c      	itt	ne
 800584c:	4b05      	ldrne	r3, [pc, #20]	; (8005864 <HAL_Delay+0x24>)
 800584e:	781b      	ldrbne	r3, [r3, #0]
 8005850:	4605      	mov	r5, r0
 8005852:	bf18      	it	ne
 8005854:	18e4      	addne	r4, r4, r3
 8005856:	f7ff ffed 	bl	8005834 <HAL_GetTick>
 800585a:	1b43      	subs	r3, r0, r5
 800585c:	42a3      	cmp	r3, r4
 800585e:	d3fa      	bcc.n	8005856 <HAL_Delay+0x16>
 8005860:	bd38      	pop	{r3, r4, r5, pc}
 8005862:	bf00      	nop
 8005864:	20000020 	.word	0x20000020

08005868 <HAL_NVIC_SetPriorityGrouping>:
 8005868:	4907      	ldr	r1, [pc, #28]	; (8005888 <HAL_NVIC_SetPriorityGrouping+0x20>)
 800586a:	68ca      	ldr	r2, [r1, #12]
 800586c:	f422 62e0 	bic.w	r2, r2, #1792	; 0x700
 8005870:	0203      	lsls	r3, r0, #8
 8005872:	0412      	lsls	r2, r2, #16
 8005874:	f403 63e0 	and.w	r3, r3, #1792	; 0x700
 8005878:	0c12      	lsrs	r2, r2, #16
 800587a:	4313      	orrs	r3, r2
 800587c:	f043 63bf 	orr.w	r3, r3, #100139008	; 0x5f80000
 8005880:	f443 3300 	orr.w	r3, r3, #131072	; 0x20000
 8005884:	60cb      	str	r3, [r1, #12]
 8005886:	4770      	bx	lr
 8005888:	e000ed00 	.word	0xe000ed00

0800588c <HAL_NVIC_SetPriority>:
 800588c:	4b16      	ldr	r3, [pc, #88]	; (80058e8 <HAL_NVIC_SetPriority+0x5c>)
 800588e:	b530      	push	{r4, r5, lr}
 8005890:	68dc      	ldr	r4, [r3, #12]
 8005892:	f3c4 2402 	ubfx	r4, r4, #8, #3
 8005896:	f1c4 0307 	rsb	r3, r4, #7
 800589a:	1d25      	adds	r5, r4, #4
 800589c:	2b04      	cmp	r3, #4
 800589e:	bf28      	it	cs
 80058a0:	2304      	movcs	r3, #4
 80058a2:	2d06      	cmp	r5, #6
 80058a4:	f04f 35ff 	mov.w	r5, #4294967295
 80058a8:	bf8c      	ite	hi
 80058aa:	3c03      	subhi	r4, #3
 80058ac:	2400      	movls	r4, #0
 80058ae:	fa05 f303 	lsl.w	r3, r5, r3
 80058b2:	ea21 0303 	bic.w	r3, r1, r3
 80058b6:	40a5      	lsls	r5, r4
 80058b8:	ea22 0205 	bic.w	r2, r2, r5
 80058bc:	40a3      	lsls	r3, r4
 80058be:	2800      	cmp	r0, #0
 80058c0:	ea43 0302 	orr.w	r3, r3, r2
 80058c4:	bfac      	ite	ge
 80058c6:	f100 4060 	addge.w	r0, r0, #3758096384	; 0xe0000000
 80058ca:	4a08      	ldrlt	r2, [pc, #32]	; (80058ec <HAL_NVIC_SetPriority+0x60>)
 80058cc:	ea4f 1303 	mov.w	r3, r3, lsl #4
 80058d0:	bfb8      	it	lt
 80058d2:	f000 000f 	andlt.w	r0, r0, #15
 80058d6:	b2db      	uxtb	r3, r3
 80058d8:	bfaa      	itet	ge
 80058da:	f500 4061 	addge.w	r0, r0, #57600	; 0xe100
 80058de:	5413      	strblt	r3, [r2, r0]
 80058e0:	f880 3300 	strbge.w	r3, [r0, #768]	; 0x300
 80058e4:	bd30      	pop	{r4, r5, pc}
 80058e6:	bf00      	nop
 80058e8:	e000ed00 	.word	0xe000ed00
 80058ec:	e000ed14 	.word	0xe000ed14

080058f0 <HAL_NVIC_EnableIRQ>:
 80058f0:	2800      	cmp	r0, #0
 80058f2:	db07      	blt.n	8005904 <HAL_NVIC_EnableIRQ+0x14>
 80058f4:	0941      	lsrs	r1, r0, #5
 80058f6:	4a04      	ldr	r2, [pc, #16]	; (8005908 <HAL_NVIC_EnableIRQ+0x18>)
 80058f8:	f000 001f 	and.w	r0, r0, #31
 80058fc:	2301      	movs	r3, #1
 80058fe:	4083      	lsls	r3, r0
 8005900:	f842 3021 	str.w	r3, [r2, r1, lsl #2]
 8005904:	4770      	bx	lr
 8005906:	bf00      	nop
 8005908:	e000e100 	.word	0xe000e100

0800590c <HAL_SYSTICK_Config>:
 800590c:	3801      	subs	r0, #1
 800590e:	f1b0 7f80 	cmp.w	r0, #16777216	; 0x1000000
 8005912:	d20b      	bcs.n	800592c <HAL_SYSTICK_Config+0x20>
 8005914:	f04f 23e0 	mov.w	r3, #3758153728	; 0xe000e000
 8005918:	4a05      	ldr	r2, [pc, #20]	; (8005930 <HAL_SYSTICK_Config+0x24>)
 800591a:	6158      	str	r0, [r3, #20]
 800591c:	21f0      	movs	r1, #240	; 0xf0
 800591e:	f882 1023 	strb.w	r1, [r2, #35]	; 0x23
 8005922:	2000      	movs	r0, #0
 8005924:	2207      	movs	r2, #7
 8005926:	6198      	str	r0, [r3, #24]
 8005928:	611a      	str	r2, [r3, #16]
 800592a:	4770      	bx	lr
 800592c:	2001      	movs	r0, #1
 800592e:	4770      	bx	lr
 8005930:	e000ed00 	.word	0xe000ed00

08005934 <HAL_DMA_Abort>:
 8005934:	b570      	push	{r4, r5, r6, lr}
 8005936:	4604      	mov	r4, r0
 8005938:	6d86      	ldr	r6, [r0, #88]	; 0x58
 800593a:	f7ff ff7b 	bl	8005834 <HAL_GetTick>
 800593e:	f894 3035 	ldrb.w	r3, [r4, #53]	; 0x35
 8005942:	2b02      	cmp	r3, #2
 8005944:	4605      	mov	r5, r0
 8005946:	d006      	beq.n	8005956 <HAL_DMA_Abort+0x22>
 8005948:	2380      	movs	r3, #128	; 0x80
 800594a:	6563      	str	r3, [r4, #84]	; 0x54
 800594c:	2001      	movs	r0, #1
 800594e:	2300      	movs	r3, #0
 8005950:	f884 3034 	strb.w	r3, [r4, #52]	; 0x34
 8005954:	bd70      	pop	{r4, r5, r6, pc}
 8005956:	6823      	ldr	r3, [r4, #0]
 8005958:	681a      	ldr	r2, [r3, #0]
 800595a:	f022 0216 	bic.w	r2, r2, #22
 800595e:	601a      	str	r2, [r3, #0]
 8005960:	695a      	ldr	r2, [r3, #20]
 8005962:	f022 0280 	bic.w	r2, r2, #128	; 0x80
 8005966:	615a      	str	r2, [r3, #20]
 8005968:	6c22      	ldr	r2, [r4, #64]	; 0x40
 800596a:	b90a      	cbnz	r2, 8005970 <HAL_DMA_Abort+0x3c>
 800596c:	6ca2      	ldr	r2, [r4, #72]	; 0x48
 800596e:	b11a      	cbz	r2, 8005978 <HAL_DMA_Abort+0x44>
 8005970:	681a      	ldr	r2, [r3, #0]
 8005972:	f022 0208 	bic.w	r2, r2, #8
 8005976:	601a      	str	r2, [r3, #0]
 8005978:	681a      	ldr	r2, [r3, #0]
 800597a:	f022 0201 	bic.w	r2, r2, #1
 800597e:	601a      	str	r2, [r3, #0]
 8005980:	6823      	ldr	r3, [r4, #0]
 8005982:	681b      	ldr	r3, [r3, #0]
 8005984:	f013 0301 	ands.w	r3, r3, #1
 8005988:	d108      	bne.n	800599c <HAL_DMA_Abort+0x68>
 800598a:	6de1      	ldr	r1, [r4, #92]	; 0x5c
 800598c:	223f      	movs	r2, #63	; 0x3f
 800598e:	408a      	lsls	r2, r1
 8005990:	60b2      	str	r2, [r6, #8]
 8005992:	2201      	movs	r2, #1
 8005994:	f884 2035 	strb.w	r2, [r4, #53]	; 0x35
 8005998:	4618      	mov	r0, r3
 800599a:	e7d8      	b.n	800594e <HAL_DMA_Abort+0x1a>
 800599c:	f7ff ff4a 	bl	8005834 <HAL_GetTick>
 80059a0:	1b40      	subs	r0, r0, r5
 80059a2:	2805      	cmp	r0, #5
 80059a4:	d9ec      	bls.n	8005980 <HAL_DMA_Abort+0x4c>
 80059a6:	2320      	movs	r3, #32
 80059a8:	2003      	movs	r0, #3
 80059aa:	6563      	str	r3, [r4, #84]	; 0x54
 80059ac:	f884 0035 	strb.w	r0, [r4, #53]	; 0x35
 80059b0:	e7cd      	b.n	800594e <HAL_DMA_Abort+0x1a>

080059b2 <HAL_DMA_Abort_IT>:
 80059b2:	f890 3035 	ldrb.w	r3, [r0, #53]	; 0x35
 80059b6:	2b02      	cmp	r3, #2
 80059b8:	d003      	beq.n	80059c2 <HAL_DMA_Abort_IT+0x10>
 80059ba:	2380      	movs	r3, #128	; 0x80
 80059bc:	6543      	str	r3, [r0, #84]	; 0x54
 80059be:	2001      	movs	r0, #1
 80059c0:	4770      	bx	lr
 80059c2:	6802      	ldr	r2, [r0, #0]
 80059c4:	2305      	movs	r3, #5
 80059c6:	f880 3035 	strb.w	r3, [r0, #53]	; 0x35
 80059ca:	6813      	ldr	r3, [r2, #0]
 80059cc:	f023 0301 	bic.w	r3, r3, #1
 80059d0:	6013      	str	r3, [r2, #0]
 80059d2:	2000      	movs	r0, #0
 80059d4:	4770      	bx	lr

080059d6 <HAL_DMA2D_Init>:
 80059d6:	b510      	push	{r4, lr}
 80059d8:	4604      	mov	r4, r0
 80059da:	b330      	cbz	r0, 8005a2a <HAL_DMA2D_Init+0x54>
 80059dc:	f890 3039 	ldrb.w	r3, [r0, #57]	; 0x39
 80059e0:	f003 02ff 	and.w	r2, r3, #255	; 0xff
 80059e4:	b91b      	cbnz	r3, 80059ee <HAL_DMA2D_Init+0x18>
 80059e6:	f880 2038 	strb.w	r2, [r0, #56]	; 0x38
 80059ea:	f7fe fb13 	bl	8004014 <HAL_DMA2D_MspInit>
 80059ee:	6822      	ldr	r2, [r4, #0]
 80059f0:	6861      	ldr	r1, [r4, #4]
 80059f2:	2302      	movs	r3, #2
 80059f4:	f884 3039 	strb.w	r3, [r4, #57]	; 0x39
 80059f8:	6813      	ldr	r3, [r2, #0]
 80059fa:	f423 3340 	bic.w	r3, r3, #196608	; 0x30000
 80059fe:	430b      	orrs	r3, r1
 8005a00:	6013      	str	r3, [r2, #0]
 8005a02:	6b53      	ldr	r3, [r2, #52]	; 0x34
 8005a04:	68a1      	ldr	r1, [r4, #8]
 8005a06:	f023 0307 	bic.w	r3, r3, #7
 8005a0a:	430b      	orrs	r3, r1
 8005a0c:	6353      	str	r3, [r2, #52]	; 0x34
 8005a0e:	6c13      	ldr	r3, [r2, #64]	; 0x40
 8005a10:	68e1      	ldr	r1, [r4, #12]
 8005a12:	f423 537f 	bic.w	r3, r3, #16320	; 0x3fc0
 8005a16:	f023 033f 	bic.w	r3, r3, #63	; 0x3f
 8005a1a:	430b      	orrs	r3, r1
 8005a1c:	6413      	str	r3, [r2, #64]	; 0x40
 8005a1e:	2000      	movs	r0, #0
 8005a20:	2301      	movs	r3, #1
 8005a22:	63e0      	str	r0, [r4, #60]	; 0x3c
 8005a24:	f884 3039 	strb.w	r3, [r4, #57]	; 0x39
 8005a28:	bd10      	pop	{r4, pc}
 8005a2a:	2001      	movs	r0, #1
 8005a2c:	e7fc      	b.n	8005a28 <HAL_DMA2D_Init+0x52>
	...

08005a30 <HAL_DMA2D_ConfigLayer>:
 8005a30:	b5f0      	push	{r4, r5, r6, r7, lr}
 8005a32:	f890 3038 	ldrb.w	r3, [r0, #56]	; 0x38
 8005a36:	2b01      	cmp	r3, #1
 8005a38:	f04f 0302 	mov.w	r3, #2
 8005a3c:	d02b      	beq.n	8005a96 <HAL_DMA2D_ConfigLayer+0x66>
 8005a3e:	2201      	movs	r2, #1
 8005a40:	f880 3039 	strb.w	r3, [r0, #57]	; 0x39
 8005a44:	f880 2038 	strb.w	r2, [r0, #56]	; 0x38
 8005a48:	eb00 1301 	add.w	r3, r0, r1, lsl #4
 8005a4c:	e9d3 4207 	ldrd	r4, r2, [r3, #28]
 8005a50:	6a5d      	ldr	r5, [r3, #36]	; 0x24
 8005a52:	4f18      	ldr	r7, [pc, #96]	; (8005ab4 <HAL_DMA2D_ConfigLayer+0x84>)
 8005a54:	ea44 4202 	orr.w	r2, r4, r2, lsl #16
 8005a58:	3c09      	subs	r4, #9
 8005a5a:	2c01      	cmp	r4, #1
 8005a5c:	bf9c      	itt	ls
 8005a5e:	f005 437f 	andls.w	r3, r5, #4278190080	; 0xff000000
 8005a62:	431a      	orrls	r2, r3
 8005a64:	ea4f 1601 	mov.w	r6, r1, lsl #4
 8005a68:	6803      	ldr	r3, [r0, #0]
 8005a6a:	bf88      	it	hi
 8005a6c:	ea42 6205 	orrhi.w	r2, r2, r5, lsl #24
 8005a70:	b999      	cbnz	r1, 8005a9a <HAL_DMA2D_ConfigLayer+0x6a>
 8005a72:	6a59      	ldr	r1, [r3, #36]	; 0x24
 8005a74:	4039      	ands	r1, r7
 8005a76:	430a      	orrs	r2, r1
 8005a78:	625a      	str	r2, [r3, #36]	; 0x24
 8005a7a:	2c01      	cmp	r4, #1
 8005a7c:	6982      	ldr	r2, [r0, #24]
 8005a7e:	619a      	str	r2, [r3, #24]
 8005a80:	d803      	bhi.n	8005a8a <HAL_DMA2D_ConfigLayer+0x5a>
 8005a82:	6a42      	ldr	r2, [r0, #36]	; 0x24
 8005a84:	f022 427f 	bic.w	r2, r2, #4278190080	; 0xff000000
 8005a88:	629a      	str	r2, [r3, #40]	; 0x28
 8005a8a:	2301      	movs	r3, #1
 8005a8c:	f880 3039 	strb.w	r3, [r0, #57]	; 0x39
 8005a90:	2300      	movs	r3, #0
 8005a92:	f880 3038 	strb.w	r3, [r0, #56]	; 0x38
 8005a96:	4618      	mov	r0, r3
 8005a98:	bdf0      	pop	{r4, r5, r6, r7, pc}
 8005a9a:	69d9      	ldr	r1, [r3, #28]
 8005a9c:	4039      	ands	r1, r7
 8005a9e:	430a      	orrs	r2, r1
 8005aa0:	61da      	str	r2, [r3, #28]
 8005aa2:	1982      	adds	r2, r0, r6
 8005aa4:	2c01      	cmp	r4, #1
 8005aa6:	6992      	ldr	r2, [r2, #24]
 8005aa8:	611a      	str	r2, [r3, #16]
 8005aaa:	bf9c      	itt	ls
 8005aac:	f025 457f 	bicls.w	r5, r5, #4278190080	; 0xff000000
 8005ab0:	621d      	strls	r5, [r3, #32]
 8005ab2:	e7ea      	b.n	8005a8a <HAL_DMA2D_ConfigLayer+0x5a>
 8005ab4:	00fcfff0 	.word	0x00fcfff0

08005ab8 <HAL_DMA2D_EnableDeadTime>:
 8005ab8:	f890 3038 	ldrb.w	r3, [r0, #56]	; 0x38
 8005abc:	2b01      	cmp	r3, #1
 8005abe:	f04f 0302 	mov.w	r3, #2
 8005ac2:	d00c      	beq.n	8005ade <HAL_DMA2D_EnableDeadTime+0x26>
 8005ac4:	6802      	ldr	r2, [r0, #0]
 8005ac6:	f880 3039 	strb.w	r3, [r0, #57]	; 0x39
 8005aca:	6cd3      	ldr	r3, [r2, #76]	; 0x4c
 8005acc:	f043 0301 	orr.w	r3, r3, #1
 8005ad0:	64d3      	str	r3, [r2, #76]	; 0x4c
 8005ad2:	2301      	movs	r3, #1
 8005ad4:	f880 3039 	strb.w	r3, [r0, #57]	; 0x39
 8005ad8:	2300      	movs	r3, #0
 8005ada:	f880 3038 	strb.w	r3, [r0, #56]	; 0x38
 8005ade:	4618      	mov	r0, r3
 8005ae0:	4770      	bx	lr

08005ae2 <HAL_DMA2D_ConfigDeadTime>:
 8005ae2:	f890 3038 	ldrb.w	r3, [r0, #56]	; 0x38
 8005ae6:	2b01      	cmp	r3, #1
 8005ae8:	f04f 0302 	mov.w	r3, #2
 8005aec:	d00e      	beq.n	8005b0c <HAL_DMA2D_ConfigDeadTime+0x2a>
 8005aee:	6802      	ldr	r2, [r0, #0]
 8005af0:	f880 3039 	strb.w	r3, [r0, #57]	; 0x39
 8005af4:	6cd3      	ldr	r3, [r2, #76]	; 0x4c
 8005af6:	f423 437f 	bic.w	r3, r3, #65280	; 0xff00
 8005afa:	ea43 2101 	orr.w	r1, r3, r1, lsl #8
 8005afe:	2301      	movs	r3, #1
 8005b00:	64d1      	str	r1, [r2, #76]	; 0x4c
 8005b02:	f880 3039 	strb.w	r3, [r0, #57]	; 0x39
 8005b06:	2300      	movs	r3, #0
 8005b08:	f880 3038 	strb.w	r3, [r0, #56]	; 0x38
 8005b0c:	4618      	mov	r0, r3
 8005b0e:	4770      	bx	lr

08005b10 <FLASH_Program_DoubleWord>:
 8005b10:	4909      	ldr	r1, [pc, #36]	; (8005b38 <FLASH_Program_DoubleWord+0x28>)
 8005b12:	b510      	push	{r4, lr}
 8005b14:	690c      	ldr	r4, [r1, #16]
 8005b16:	f424 7440 	bic.w	r4, r4, #768	; 0x300
 8005b1a:	610c      	str	r4, [r1, #16]
 8005b1c:	690c      	ldr	r4, [r1, #16]
 8005b1e:	f444 7440 	orr.w	r4, r4, #768	; 0x300
 8005b22:	610c      	str	r4, [r1, #16]
 8005b24:	690c      	ldr	r4, [r1, #16]
 8005b26:	f044 0401 	orr.w	r4, r4, #1
 8005b2a:	610c      	str	r4, [r1, #16]
 8005b2c:	6002      	str	r2, [r0, #0]
 8005b2e:	f3bf 8f6f 	isb	sy
 8005b32:	6043      	str	r3, [r0, #4]
 8005b34:	bd10      	pop	{r4, pc}
 8005b36:	bf00      	nop
 8005b38:	40023c00 	.word	0x40023c00

08005b3c <FLASH_Program_Word>:
 8005b3c:	4b07      	ldr	r3, [pc, #28]	; (8005b5c <FLASH_Program_Word+0x20>)
 8005b3e:	691a      	ldr	r2, [r3, #16]
 8005b40:	f422 7240 	bic.w	r2, r2, #768	; 0x300
 8005b44:	611a      	str	r2, [r3, #16]
 8005b46:	691a      	ldr	r2, [r3, #16]
 8005b48:	f442 7200 	orr.w	r2, r2, #512	; 0x200
 8005b4c:	611a      	str	r2, [r3, #16]
 8005b4e:	691a      	ldr	r2, [r3, #16]
 8005b50:	f042 0201 	orr.w	r2, r2, #1
 8005b54:	611a      	str	r2, [r3, #16]
 8005b56:	6001      	str	r1, [r0, #0]
 8005b58:	4770      	bx	lr
 8005b5a:	bf00      	nop
 8005b5c:	40023c00 	.word	0x40023c00

08005b60 <FLASH_Program_HalfWord>:
 8005b60:	4b07      	ldr	r3, [pc, #28]	; (8005b80 <FLASH_Program_HalfWord+0x20>)
 8005b62:	691a      	ldr	r2, [r3, #16]
 8005b64:	f422 7240 	bic.w	r2, r2, #768	; 0x300
 8005b68:	611a      	str	r2, [r3, #16]
 8005b6a:	691a      	ldr	r2, [r3, #16]
 8005b6c:	f442 7280 	orr.w	r2, r2, #256	; 0x100
 8005b70:	611a      	str	r2, [r3, #16]
 8005b72:	691a      	ldr	r2, [r3, #16]
 8005b74:	f042 0201 	orr.w	r2, r2, #1
 8005b78:	611a      	str	r2, [r3, #16]
 8005b7a:	8001      	strh	r1, [r0, #0]
 8005b7c:	4770      	bx	lr
 8005b7e:	bf00      	nop
 8005b80:	40023c00 	.word	0x40023c00

08005b84 <FLASH_SetErrorCode>:
 8005b84:	4b20      	ldr	r3, [pc, #128]	; (8005c08 <FLASH_SetErrorCode+0x84>)
 8005b86:	68da      	ldr	r2, [r3, #12]
 8005b88:	06d0      	lsls	r0, r2, #27
 8005b8a:	d506      	bpl.n	8005b9a <FLASH_SetErrorCode+0x16>
 8005b8c:	491f      	ldr	r1, [pc, #124]	; (8005c0c <FLASH_SetErrorCode+0x88>)
 8005b8e:	69ca      	ldr	r2, [r1, #28]
 8005b90:	f042 0210 	orr.w	r2, r2, #16
 8005b94:	61ca      	str	r2, [r1, #28]
 8005b96:	2210      	movs	r2, #16
 8005b98:	60da      	str	r2, [r3, #12]
 8005b9a:	68da      	ldr	r2, [r3, #12]
 8005b9c:	0691      	lsls	r1, r2, #26
 8005b9e:	d506      	bpl.n	8005bae <FLASH_SetErrorCode+0x2a>
 8005ba0:	491a      	ldr	r1, [pc, #104]	; (8005c0c <FLASH_SetErrorCode+0x88>)
 8005ba2:	69ca      	ldr	r2, [r1, #28]
 8005ba4:	f042 0208 	orr.w	r2, r2, #8
 8005ba8:	61ca      	str	r2, [r1, #28]
 8005baa:	2220      	movs	r2, #32
 8005bac:	60da      	str	r2, [r3, #12]
 8005bae:	4b16      	ldr	r3, [pc, #88]	; (8005c08 <FLASH_SetErrorCode+0x84>)
 8005bb0:	68da      	ldr	r2, [r3, #12]
 8005bb2:	0652      	lsls	r2, r2, #25
 8005bb4:	d506      	bpl.n	8005bc4 <FLASH_SetErrorCode+0x40>
 8005bb6:	4915      	ldr	r1, [pc, #84]	; (8005c0c <FLASH_SetErrorCode+0x88>)
 8005bb8:	69ca      	ldr	r2, [r1, #28]
 8005bba:	f042 0204 	orr.w	r2, r2, #4
 8005bbe:	61ca      	str	r2, [r1, #28]
 8005bc0:	2240      	movs	r2, #64	; 0x40
 8005bc2:	60da      	str	r2, [r3, #12]
 8005bc4:	68da      	ldr	r2, [r3, #12]
 8005bc6:	0610      	lsls	r0, r2, #24
 8005bc8:	d506      	bpl.n	8005bd8 <FLASH_SetErrorCode+0x54>
 8005bca:	4910      	ldr	r1, [pc, #64]	; (8005c0c <FLASH_SetErrorCode+0x88>)
 8005bcc:	69ca      	ldr	r2, [r1, #28]
 8005bce:	f042 0202 	orr.w	r2, r2, #2
 8005bd2:	61ca      	str	r2, [r1, #28]
 8005bd4:	2280      	movs	r2, #128	; 0x80
 8005bd6:	60da      	str	r2, [r3, #12]
 8005bd8:	4b0b      	ldr	r3, [pc, #44]	; (8005c08 <FLASH_SetErrorCode+0x84>)
 8005bda:	68da      	ldr	r2, [r3, #12]
 8005bdc:	05d1      	lsls	r1, r2, #23
 8005bde:	d507      	bpl.n	8005bf0 <FLASH_SetErrorCode+0x6c>
 8005be0:	490a      	ldr	r1, [pc, #40]	; (8005c0c <FLASH_SetErrorCode+0x88>)
 8005be2:	69ca      	ldr	r2, [r1, #28]
 8005be4:	f042 0201 	orr.w	r2, r2, #1
 8005be8:	61ca      	str	r2, [r1, #28]
 8005bea:	f44f 7280 	mov.w	r2, #256	; 0x100
 8005bee:	60da      	str	r2, [r3, #12]
 8005bf0:	68da      	ldr	r2, [r3, #12]
 8005bf2:	0792      	lsls	r2, r2, #30
 8005bf4:	d506      	bpl.n	8005c04 <FLASH_SetErrorCode+0x80>
 8005bf6:	4905      	ldr	r1, [pc, #20]	; (8005c0c <FLASH_SetErrorCode+0x88>)
 8005bf8:	69ca      	ldr	r2, [r1, #28]
 8005bfa:	f042 0220 	orr.w	r2, r2, #32
 8005bfe:	61ca      	str	r2, [r1, #28]
 8005c00:	2202      	movs	r2, #2
 8005c02:	60da      	str	r2, [r3, #12]
 8005c04:	4770      	bx	lr
 8005c06:	bf00      	nop
 8005c08:	40023c00 	.word	0x40023c00
 8005c0c:	20000bb0 	.word	0x20000bb0

08005c10 <HAL_FLASH_Unlock>:
 8005c10:	4b06      	ldr	r3, [pc, #24]	; (8005c2c <HAL_FLASH_Unlock+0x1c>)
 8005c12:	691a      	ldr	r2, [r3, #16]
 8005c14:	2a00      	cmp	r2, #0
 8005c16:	bfbf      	itttt	lt
 8005c18:	4a05      	ldrlt	r2, [pc, #20]	; (8005c30 <HAL_FLASH_Unlock+0x20>)
 8005c1a:	605a      	strlt	r2, [r3, #4]
 8005c1c:	f102 3288 	addlt.w	r2, r2, #2290649224	; 0x88888888
 8005c20:	605a      	strlt	r2, [r3, #4]
 8005c22:	bfba      	itte	lt
 8005c24:	6918      	ldrlt	r0, [r3, #16]
 8005c26:	0fc0      	lsrlt	r0, r0, #31
 8005c28:	2000      	movge	r0, #0
 8005c2a:	4770      	bx	lr
 8005c2c:	40023c00 	.word	0x40023c00
 8005c30:	45670123 	.word	0x45670123

08005c34 <HAL_FLASH_Lock>:
 8005c34:	4a03      	ldr	r2, [pc, #12]	; (8005c44 <HAL_FLASH_Lock+0x10>)
 8005c36:	6913      	ldr	r3, [r2, #16]
 8005c38:	f043 4300 	orr.w	r3, r3, #2147483648	; 0x80000000
 8005c3c:	6113      	str	r3, [r2, #16]
 8005c3e:	2000      	movs	r0, #0
 8005c40:	4770      	bx	lr
 8005c42:	bf00      	nop
 8005c44:	40023c00 	.word	0x40023c00

08005c48 <FLASH_WaitForLastOperation>:
 8005c48:	4b11      	ldr	r3, [pc, #68]	; (8005c90 <FLASH_WaitForLastOperation+0x48>)
 8005c4a:	b570      	push	{r4, r5, r6, lr}
 8005c4c:	2200      	movs	r2, #0
 8005c4e:	4604      	mov	r4, r0
 8005c50:	61da      	str	r2, [r3, #28]
 8005c52:	f7ff fdef 	bl	8005834 <HAL_GetTick>
 8005c56:	4d0f      	ldr	r5, [pc, #60]	; (8005c94 <FLASH_WaitForLastOperation+0x4c>)
 8005c58:	4606      	mov	r6, r0
 8005c5a:	68eb      	ldr	r3, [r5, #12]
 8005c5c:	03da      	lsls	r2, r3, #15
 8005c5e:	d40c      	bmi.n	8005c7a <FLASH_WaitForLastOperation+0x32>
 8005c60:	68eb      	ldr	r3, [r5, #12]
 8005c62:	07db      	lsls	r3, r3, #31
 8005c64:	bf44      	itt	mi
 8005c66:	2301      	movmi	r3, #1
 8005c68:	60eb      	strmi	r3, [r5, #12]
 8005c6a:	68e8      	ldr	r0, [r5, #12]
 8005c6c:	f410 70f9 	ands.w	r0, r0, #498	; 0x1f2
 8005c70:	d007      	beq.n	8005c82 <FLASH_WaitForLastOperation+0x3a>
 8005c72:	f7ff ff87 	bl	8005b84 <FLASH_SetErrorCode>
 8005c76:	2001      	movs	r0, #1
 8005c78:	e003      	b.n	8005c82 <FLASH_WaitForLastOperation+0x3a>
 8005c7a:	1c61      	adds	r1, r4, #1
 8005c7c:	d0ed      	beq.n	8005c5a <FLASH_WaitForLastOperation+0x12>
 8005c7e:	b90c      	cbnz	r4, 8005c84 <FLASH_WaitForLastOperation+0x3c>
 8005c80:	2003      	movs	r0, #3
 8005c82:	bd70      	pop	{r4, r5, r6, pc}
 8005c84:	f7ff fdd6 	bl	8005834 <HAL_GetTick>
 8005c88:	1b80      	subs	r0, r0, r6
 8005c8a:	42a0      	cmp	r0, r4
 8005c8c:	d9e5      	bls.n	8005c5a <FLASH_WaitForLastOperation+0x12>
 8005c8e:	e7f7      	b.n	8005c80 <FLASH_WaitForLastOperation+0x38>
 8005c90:	20000bb0 	.word	0x20000bb0
 8005c94:	40023c00 	.word	0x40023c00

08005c98 <HAL_FLASH_Program>:
 8005c98:	b5f7      	push	{r0, r1, r2, r4, r5, r6, r7, lr}
 8005c9a:	4e20      	ldr	r6, [pc, #128]	; (8005d1c <HAL_FLASH_Program+0x84>)
 8005c9c:	9301      	str	r3, [sp, #4]
 8005c9e:	4614      	mov	r4, r2
 8005ca0:	7e32      	ldrb	r2, [r6, #24]
 8005ca2:	2a01      	cmp	r2, #1
 8005ca4:	4607      	mov	r7, r0
 8005ca6:	460d      	mov	r5, r1
 8005ca8:	d035      	beq.n	8005d16 <HAL_FLASH_Program+0x7e>
 8005caa:	2201      	movs	r2, #1
 8005cac:	f24c 3050 	movw	r0, #50000	; 0xc350
 8005cb0:	7632      	strb	r2, [r6, #24]
 8005cb2:	f7ff ffc9 	bl	8005c48 <FLASH_WaitForLastOperation>
 8005cb6:	b9b8      	cbnz	r0, 8005ce8 <HAL_FLASH_Program+0x50>
 8005cb8:	9b01      	ldr	r3, [sp, #4]
 8005cba:	b9cf      	cbnz	r7, 8005cf0 <HAL_FLASH_Program+0x58>
 8005cbc:	4b18      	ldr	r3, [pc, #96]	; (8005d20 <HAL_FLASH_Program+0x88>)
 8005cbe:	691a      	ldr	r2, [r3, #16]
 8005cc0:	f422 7240 	bic.w	r2, r2, #768	; 0x300
 8005cc4:	611a      	str	r2, [r3, #16]
 8005cc6:	691a      	ldr	r2, [r3, #16]
 8005cc8:	611a      	str	r2, [r3, #16]
 8005cca:	691a      	ldr	r2, [r3, #16]
 8005ccc:	b2e4      	uxtb	r4, r4
 8005cce:	f042 0201 	orr.w	r2, r2, #1
 8005cd2:	611a      	str	r2, [r3, #16]
 8005cd4:	702c      	strb	r4, [r5, #0]
 8005cd6:	f24c 3050 	movw	r0, #50000	; 0xc350
 8005cda:	f7ff ffb5 	bl	8005c48 <FLASH_WaitForLastOperation>
 8005cde:	4a10      	ldr	r2, [pc, #64]	; (8005d20 <HAL_FLASH_Program+0x88>)
 8005ce0:	6913      	ldr	r3, [r2, #16]
 8005ce2:	f023 0301 	bic.w	r3, r3, #1
 8005ce6:	6113      	str	r3, [r2, #16]
 8005ce8:	2300      	movs	r3, #0
 8005cea:	7633      	strb	r3, [r6, #24]
 8005cec:	b003      	add	sp, #12
 8005cee:	bdf0      	pop	{r4, r5, r6, r7, pc}
 8005cf0:	2f01      	cmp	r7, #1
 8005cf2:	d104      	bne.n	8005cfe <HAL_FLASH_Program+0x66>
 8005cf4:	b2a1      	uxth	r1, r4
 8005cf6:	4628      	mov	r0, r5
 8005cf8:	f7ff ff32 	bl	8005b60 <FLASH_Program_HalfWord>
 8005cfc:	e7eb      	b.n	8005cd6 <HAL_FLASH_Program+0x3e>
 8005cfe:	2f02      	cmp	r7, #2
 8005d00:	d104      	bne.n	8005d0c <HAL_FLASH_Program+0x74>
 8005d02:	4621      	mov	r1, r4
 8005d04:	4628      	mov	r0, r5
 8005d06:	f7ff ff19 	bl	8005b3c <FLASH_Program_Word>
 8005d0a:	e7e4      	b.n	8005cd6 <HAL_FLASH_Program+0x3e>
 8005d0c:	4622      	mov	r2, r4
 8005d0e:	4628      	mov	r0, r5
 8005d10:	f7ff fefe 	bl	8005b10 <FLASH_Program_DoubleWord>
 8005d14:	e7df      	b.n	8005cd6 <HAL_FLASH_Program+0x3e>
 8005d16:	2002      	movs	r0, #2
 8005d18:	e7e8      	b.n	8005cec <HAL_FLASH_Program+0x54>
 8005d1a:	bf00      	nop
 8005d1c:	20000bb0 	.word	0x20000bb0
 8005d20:	40023c00 	.word	0x40023c00

08005d24 <FLASH_Erase_Sector>:
 8005d24:	4b0f      	ldr	r3, [pc, #60]	; (8005d64 <FLASH_Erase_Sector+0x40>)
 8005d26:	691a      	ldr	r2, [r3, #16]
 8005d28:	f422 7240 	bic.w	r2, r2, #768	; 0x300
 8005d2c:	611a      	str	r2, [r3, #16]
 8005d2e:	691a      	ldr	r2, [r3, #16]
 8005d30:	2902      	cmp	r1, #2
 8005d32:	bf94      	ite	ls
 8005d34:	0209      	lslls	r1, r1, #8
 8005d36:	f44f 7140 	movhi.w	r1, #768	; 0x300
 8005d3a:	430a      	orrs	r2, r1
 8005d3c:	611a      	str	r2, [r3, #16]
 8005d3e:	691a      	ldr	r2, [r3, #16]
 8005d40:	f022 02f8 	bic.w	r2, r2, #248	; 0xf8
 8005d44:	611a      	str	r2, [r3, #16]
 8005d46:	691a      	ldr	r2, [r3, #16]
 8005d48:	280b      	cmp	r0, #11
 8005d4a:	bf88      	it	hi
 8005d4c:	3004      	addhi	r0, #4
 8005d4e:	ea42 02c0 	orr.w	r2, r2, r0, lsl #3
 8005d52:	f042 0202 	orr.w	r2, r2, #2
 8005d56:	611a      	str	r2, [r3, #16]
 8005d58:	691a      	ldr	r2, [r3, #16]
 8005d5a:	f442 3280 	orr.w	r2, r2, #65536	; 0x10000
 8005d5e:	611a      	str	r2, [r3, #16]
 8005d60:	4770      	bx	lr
 8005d62:	bf00      	nop
 8005d64:	40023c00 	.word	0x40023c00

08005d68 <HAL_GPIO_Init>:
 8005d68:	e92d 4ff7 	stmdb	sp!, {r0, r1, r2, r4, r5, r6, r7, r8, r9, sl, fp, lr}
 8005d6c:	f8df 91c0 	ldr.w	r9, [pc, #448]	; 8005f30 <HAL_GPIO_Init+0x1c8>
 8005d70:	4a6d      	ldr	r2, [pc, #436]	; (8005f28 <HAL_GPIO_Init+0x1c0>)
 8005d72:	2300      	movs	r3, #0
 8005d74:	680d      	ldr	r5, [r1, #0]
 8005d76:	2401      	movs	r4, #1
 8005d78:	409c      	lsls	r4, r3
 8005d7a:	ea04 0c05 	and.w	ip, r4, r5
 8005d7e:	43ac      	bics	r4, r5
 8005d80:	f040 80b9 	bne.w	8005ef6 <HAL_GPIO_Init+0x18e>
 8005d84:	684d      	ldr	r5, [r1, #4]
 8005d86:	f005 0403 	and.w	r4, r5, #3
 8005d8a:	ea4f 0843 	mov.w	r8, r3, lsl #1
 8005d8e:	2603      	movs	r6, #3
 8005d90:	1e67      	subs	r7, r4, #1
 8005d92:	fa06 f608 	lsl.w	r6, r6, r8
 8005d96:	2f01      	cmp	r7, #1
 8005d98:	ea6f 0606 	mvn.w	r6, r6
 8005d9c:	d834      	bhi.n	8005e08 <HAL_GPIO_Init+0xa0>
 8005d9e:	6887      	ldr	r7, [r0, #8]
 8005da0:	ea07 0e06 	and.w	lr, r7, r6
 8005da4:	68cf      	ldr	r7, [r1, #12]
 8005da6:	fa07 f708 	lsl.w	r7, r7, r8
 8005daa:	ea47 070e 	orr.w	r7, r7, lr
 8005dae:	6087      	str	r7, [r0, #8]
 8005db0:	6847      	ldr	r7, [r0, #4]
 8005db2:	ea27 0e0c 	bic.w	lr, r7, ip
 8005db6:	f3c5 1700 	ubfx	r7, r5, #4, #1
 8005dba:	409f      	lsls	r7, r3
 8005dbc:	ea47 070e 	orr.w	r7, r7, lr
 8005dc0:	6047      	str	r7, [r0, #4]
 8005dc2:	68c7      	ldr	r7, [r0, #12]
 8005dc4:	ea07 0e06 	and.w	lr, r7, r6
 8005dc8:	688f      	ldr	r7, [r1, #8]
 8005dca:	fa07 f708 	lsl.w	r7, r7, r8
 8005dce:	ea47 070e 	orr.w	r7, r7, lr
 8005dd2:	2c02      	cmp	r4, #2
 8005dd4:	60c7      	str	r7, [r0, #12]
 8005dd6:	d119      	bne.n	8005e0c <HAL_GPIO_Init+0xa4>
 8005dd8:	ea4f 0ad3 	mov.w	sl, r3, lsr #3
 8005ddc:	eb00 0a8a 	add.w	sl, r0, sl, lsl #2
 8005de0:	f003 0b07 	and.w	fp, r3, #7
 8005de4:	f8da 7020 	ldr.w	r7, [sl, #32]
 8005de8:	ea4f 0b8b 	mov.w	fp, fp, lsl #2
 8005dec:	f04f 0e0f 	mov.w	lr, #15
 8005df0:	fa0e fe0b 	lsl.w	lr, lr, fp
 8005df4:	ea27 0e0e 	bic.w	lr, r7, lr
 8005df8:	690f      	ldr	r7, [r1, #16]
 8005dfa:	fa07 f70b 	lsl.w	r7, r7, fp
 8005dfe:	ea47 070e 	orr.w	r7, r7, lr
 8005e02:	f8ca 7020 	str.w	r7, [sl, #32]
 8005e06:	e001      	b.n	8005e0c <HAL_GPIO_Init+0xa4>
 8005e08:	2c03      	cmp	r4, #3
 8005e0a:	d1da      	bne.n	8005dc2 <HAL_GPIO_Init+0x5a>
 8005e0c:	6807      	ldr	r7, [r0, #0]
 8005e0e:	fa04 f408 	lsl.w	r4, r4, r8
 8005e12:	4037      	ands	r7, r6
 8005e14:	433c      	orrs	r4, r7
 8005e16:	f415 3f40 	tst.w	r5, #196608	; 0x30000
 8005e1a:	6004      	str	r4, [r0, #0]
 8005e1c:	d06b      	beq.n	8005ef6 <HAL_GPIO_Init+0x18e>
 8005e1e:	f04f 0a00 	mov.w	sl, #0
 8005e22:	f8cd a004 	str.w	sl, [sp, #4]
 8005e26:	f8d9 6044 	ldr.w	r6, [r9, #68]	; 0x44
 8005e2a:	4c40      	ldr	r4, [pc, #256]	; (8005f2c <HAL_GPIO_Init+0x1c4>)
 8005e2c:	f446 4680 	orr.w	r6, r6, #16384	; 0x4000
 8005e30:	f8c9 6044 	str.w	r6, [r9, #68]	; 0x44
 8005e34:	f8d9 6044 	ldr.w	r6, [r9, #68]	; 0x44
 8005e38:	f406 4680 	and.w	r6, r6, #16384	; 0x4000
 8005e3c:	9601      	str	r6, [sp, #4]
 8005e3e:	9e01      	ldr	r6, [sp, #4]
 8005e40:	f023 0603 	bic.w	r6, r3, #3
 8005e44:	f106 4680 	add.w	r6, r6, #1073741824	; 0x40000000
 8005e48:	f506 369c 	add.w	r6, r6, #79872	; 0x13800
 8005e4c:	f003 0e03 	and.w	lr, r3, #3
 8005e50:	f8d6 8008 	ldr.w	r8, [r6, #8]
 8005e54:	ea4f 0e8e 	mov.w	lr, lr, lsl #2
 8005e58:	270f      	movs	r7, #15
 8005e5a:	fa07 f70e 	lsl.w	r7, r7, lr
 8005e5e:	42a0      	cmp	r0, r4
 8005e60:	ea28 0707 	bic.w	r7, r8, r7
 8005e64:	d04e      	beq.n	8005f04 <HAL_GPIO_Init+0x19c>
 8005e66:	f504 6480 	add.w	r4, r4, #1024	; 0x400
 8005e6a:	42a0      	cmp	r0, r4
 8005e6c:	d04c      	beq.n	8005f08 <HAL_GPIO_Init+0x1a0>
 8005e6e:	f504 6480 	add.w	r4, r4, #1024	; 0x400
 8005e72:	42a0      	cmp	r0, r4
 8005e74:	d04a      	beq.n	8005f0c <HAL_GPIO_Init+0x1a4>
 8005e76:	f504 6480 	add.w	r4, r4, #1024	; 0x400
 8005e7a:	42a0      	cmp	r0, r4
 8005e7c:	d048      	beq.n	8005f10 <HAL_GPIO_Init+0x1a8>
 8005e7e:	f504 6480 	add.w	r4, r4, #1024	; 0x400
 8005e82:	42a0      	cmp	r0, r4
 8005e84:	d046      	beq.n	8005f14 <HAL_GPIO_Init+0x1ac>
 8005e86:	f504 6480 	add.w	r4, r4, #1024	; 0x400
 8005e8a:	42a0      	cmp	r0, r4
 8005e8c:	d044      	beq.n	8005f18 <HAL_GPIO_Init+0x1b0>
 8005e8e:	f504 6480 	add.w	r4, r4, #1024	; 0x400
 8005e92:	42a0      	cmp	r0, r4
 8005e94:	d042      	beq.n	8005f1c <HAL_GPIO_Init+0x1b4>
 8005e96:	f504 6480 	add.w	r4, r4, #1024	; 0x400
 8005e9a:	42a0      	cmp	r0, r4
 8005e9c:	d040      	beq.n	8005f20 <HAL_GPIO_Init+0x1b8>
 8005e9e:	f504 6480 	add.w	r4, r4, #1024	; 0x400
 8005ea2:	42a0      	cmp	r0, r4
 8005ea4:	d03e      	beq.n	8005f24 <HAL_GPIO_Init+0x1bc>
 8005ea6:	f504 6480 	add.w	r4, r4, #1024	; 0x400
 8005eaa:	42a0      	cmp	r0, r4
 8005eac:	bf0c      	ite	eq
 8005eae:	2409      	moveq	r4, #9
 8005eb0:	240a      	movne	r4, #10
 8005eb2:	fa04 f40e 	lsl.w	r4, r4, lr
 8005eb6:	433c      	orrs	r4, r7
 8005eb8:	60b4      	str	r4, [r6, #8]
 8005eba:	6894      	ldr	r4, [r2, #8]
 8005ebc:	ea6f 060c 	mvn.w	r6, ip
 8005ec0:	02ef      	lsls	r7, r5, #11
 8005ec2:	bf54      	ite	pl
 8005ec4:	4034      	andpl	r4, r6
 8005ec6:	ea4c 0404 	orrmi.w	r4, ip, r4
 8005eca:	6094      	str	r4, [r2, #8]
 8005ecc:	68d4      	ldr	r4, [r2, #12]
 8005ece:	02af      	lsls	r7, r5, #10
 8005ed0:	bf54      	ite	pl
 8005ed2:	4034      	andpl	r4, r6
 8005ed4:	ea4c 0404 	orrmi.w	r4, ip, r4
 8005ed8:	60d4      	str	r4, [r2, #12]
 8005eda:	6854      	ldr	r4, [r2, #4]
 8005edc:	03af      	lsls	r7, r5, #14
 8005ede:	bf54      	ite	pl
 8005ee0:	4034      	andpl	r4, r6
 8005ee2:	ea4c 0404 	orrmi.w	r4, ip, r4
 8005ee6:	6054      	str	r4, [r2, #4]
 8005ee8:	6814      	ldr	r4, [r2, #0]
 8005eea:	03ed      	lsls	r5, r5, #15
 8005eec:	bf54      	ite	pl
 8005eee:	4034      	andpl	r4, r6
 8005ef0:	ea4c 0404 	orrmi.w	r4, ip, r4
 8005ef4:	6014      	str	r4, [r2, #0]
 8005ef6:	3301      	adds	r3, #1
 8005ef8:	2b10      	cmp	r3, #16
 8005efa:	f47f af3b 	bne.w	8005d74 <HAL_GPIO_Init+0xc>
 8005efe:	b003      	add	sp, #12
 8005f00:	e8bd 8ff0 	ldmia.w	sp!, {r4, r5, r6, r7, r8, r9, sl, fp, pc}
 8005f04:	4654      	mov	r4, sl
 8005f06:	e7d4      	b.n	8005eb2 <HAL_GPIO_Init+0x14a>
 8005f08:	2401      	movs	r4, #1
 8005f0a:	e7d2      	b.n	8005eb2 <HAL_GPIO_Init+0x14a>
 8005f0c:	2402      	movs	r4, #2
 8005f0e:	e7d0      	b.n	8005eb2 <HAL_GPIO_Init+0x14a>
 8005f10:	2403      	movs	r4, #3
 8005f12:	e7ce      	b.n	8005eb2 <HAL_GPIO_Init+0x14a>
 8005f14:	2404      	movs	r4, #4
 8005f16:	e7cc      	b.n	8005eb2 <HAL_GPIO_Init+0x14a>
 8005f18:	2405      	movs	r4, #5
 8005f1a:	e7ca      	b.n	8005eb2 <HAL_GPIO_Init+0x14a>
 8005f1c:	2406      	movs	r4, #6
 8005f1e:	e7c8      	b.n	8005eb2 <HAL_GPIO_Init+0x14a>
 8005f20:	2407      	movs	r4, #7
 8005f22:	e7c6      	b.n	8005eb2 <HAL_GPIO_Init+0x14a>
 8005f24:	2408      	movs	r4, #8
 8005f26:	e7c4      	b.n	8005eb2 <HAL_GPIO_Init+0x14a>
 8005f28:	40013c00 	.word	0x40013c00
 8005f2c:	40020000 	.word	0x40020000
 8005f30:	40023800 	.word	0x40023800

08005f34 <HAL_GPIO_ReadPin>:
 8005f34:	6903      	ldr	r3, [r0, #16]
 8005f36:	4219      	tst	r1, r3
 8005f38:	bf14      	ite	ne
 8005f3a:	2001      	movne	r0, #1
 8005f3c:	2000      	moveq	r0, #0
 8005f3e:	4770      	bx	lr

08005f40 <HAL_GPIO_WritePin>:
 8005f40:	b10a      	cbz	r2, 8005f46 <HAL_GPIO_WritePin+0x6>
 8005f42:	6181      	str	r1, [r0, #24]
 8005f44:	4770      	bx	lr
 8005f46:	0409      	lsls	r1, r1, #16
 8005f48:	e7fb      	b.n	8005f42 <HAL_GPIO_WritePin+0x2>
	...

08005f4c <LTDC_SetConfig>:
 8005f4c:	6800      	ldr	r0, [r0, #0]
 8005f4e:	f8d1 c000 	ldr.w	ip, [r1]
 8005f52:	01d2      	lsls	r2, r2, #7
 8005f54:	3284      	adds	r2, #132	; 0x84
 8005f56:	1883      	adds	r3, r0, r2
 8005f58:	e92d 43f0 	stmdb	sp!, {r4, r5, r6, r7, r8, r9, lr}
 8005f5c:	68c6      	ldr	r6, [r0, #12]
 8005f5e:	685d      	ldr	r5, [r3, #4]
 8005f60:	684c      	ldr	r4, [r1, #4]
 8005f62:	f8d1 9018 	ldr.w	r9, [r1, #24]
 8005f66:	f405 4570 	and.w	r5, r5, #61440	; 0xf000
 8005f6a:	605d      	str	r5, [r3, #4]
 8005f6c:	68c5      	ldr	r5, [r0, #12]
 8005f6e:	f10c 0701 	add.w	r7, ip, #1
 8005f72:	f3c5 450b 	ubfx	r5, r5, #16, #12
 8005f76:	f3c6 460b 	ubfx	r6, r6, #16, #12
 8005f7a:	443d      	add	r5, r7
 8005f7c:	4426      	add	r6, r4
 8005f7e:	ea45 4506 	orr.w	r5, r5, r6, lsl #16
 8005f82:	605d      	str	r5, [r3, #4]
 8005f84:	68c6      	ldr	r6, [r0, #12]
 8005f86:	68cd      	ldr	r5, [r1, #12]
 8005f88:	f3c6 060a 	ubfx	r6, r6, #0, #11
 8005f8c:	442e      	add	r6, r5
 8005f8e:	689d      	ldr	r5, [r3, #8]
 8005f90:	f405 4570 	and.w	r5, r5, #61440	; 0xf000
 8005f94:	609d      	str	r5, [r3, #8]
 8005f96:	68c7      	ldr	r7, [r0, #12]
 8005f98:	688d      	ldr	r5, [r1, #8]
 8005f9a:	f3c7 070a 	ubfx	r7, r7, #0, #11
 8005f9e:	3501      	adds	r5, #1
 8005fa0:	443d      	add	r5, r7
 8005fa2:	ea45 4506 	orr.w	r5, r5, r6, lsl #16
 8005fa6:	609d      	str	r5, [r3, #8]
 8005fa8:	691d      	ldr	r5, [r3, #16]
 8005faa:	690e      	ldr	r6, [r1, #16]
 8005fac:	f025 0507 	bic.w	r5, r5, #7
 8005fb0:	611d      	str	r5, [r3, #16]
 8005fb2:	f04f 0e00 	mov.w	lr, #0
 8005fb6:	611e      	str	r6, [r3, #16]
 8005fb8:	699d      	ldr	r5, [r3, #24]
 8005fba:	f891 7032 	ldrb.w	r7, [r1, #50]	; 0x32
 8005fbe:	f891 8031 	ldrb.w	r8, [r1, #49]	; 0x31
 8005fc2:	f8c3 e018 	str.w	lr, [r3, #24]
 8005fc6:	f891 5030 	ldrb.w	r5, [r1, #48]	; 0x30
 8005fca:	ea45 6509 	orr.w	r5, r5, r9, lsl #24
 8005fce:	ea45 2508 	orr.w	r5, r5, r8, lsl #8
 8005fd2:	ea45 4507 	orr.w	r5, r5, r7, lsl #16
 8005fd6:	619d      	str	r5, [r3, #24]
 8005fd8:	695d      	ldr	r5, [r3, #20]
 8005fda:	f025 05ff 	bic.w	r5, r5, #255	; 0xff
 8005fde:	615d      	str	r5, [r3, #20]
 8005fe0:	694d      	ldr	r5, [r1, #20]
 8005fe2:	615d      	str	r5, [r3, #20]
 8005fe4:	69dd      	ldr	r5, [r3, #28]
 8005fe6:	f425 65e0 	bic.w	r5, r5, #1792	; 0x700
 8005fea:	f025 0507 	bic.w	r5, r5, #7
 8005fee:	61dd      	str	r5, [r3, #28]
 8005ff0:	e9d1 5707 	ldrd	r5, r7, [r1, #28]
 8005ff4:	433d      	orrs	r5, r7
 8005ff6:	61dd      	str	r5, [r3, #28]
 8005ff8:	6a9d      	ldr	r5, [r3, #40]	; 0x28
 8005ffa:	6a4d      	ldr	r5, [r1, #36]	; 0x24
 8005ffc:	f8c3 e028 	str.w	lr, [r3, #40]	; 0x28
 8006000:	629d      	str	r5, [r3, #40]	; 0x28
 8006002:	b1fe      	cbz	r6, 8006044 <LTDC_SetConfig+0xf8>
 8006004:	3e01      	subs	r6, #1
 8006006:	2e06      	cmp	r6, #6
 8006008:	d81e      	bhi.n	8006048 <LTDC_SetConfig+0xfc>
 800600a:	4d10      	ldr	r5, [pc, #64]	; (800604c <LTDC_SetConfig+0x100>)
 800600c:	5dad      	ldrb	r5, [r5, r6]
 800600e:	6ade      	ldr	r6, [r3, #44]	; 0x2c
 8006010:	f006 26e0 	and.w	r6, r6, #3758153728	; 0xe000e000
 8006014:	62de      	str	r6, [r3, #44]	; 0x2c
 8006016:	eba4 040c 	sub.w	r4, r4, ip
 800601a:	6a8e      	ldr	r6, [r1, #40]	; 0x28
 800601c:	6ac9      	ldr	r1, [r1, #44]	; 0x2c
 800601e:	436c      	muls	r4, r5
 8006020:	436e      	muls	r6, r5
 8006022:	3403      	adds	r4, #3
 8006024:	ea44 4406 	orr.w	r4, r4, r6, lsl #16
 8006028:	62dc      	str	r4, [r3, #44]	; 0x2c
 800602a:	6b1c      	ldr	r4, [r3, #48]	; 0x30
 800602c:	f424 64ff 	bic.w	r4, r4, #2040	; 0x7f8
 8006030:	f024 0407 	bic.w	r4, r4, #7
 8006034:	631c      	str	r4, [r3, #48]	; 0x30
 8006036:	6319      	str	r1, [r3, #48]	; 0x30
 8006038:	5883      	ldr	r3, [r0, r2]
 800603a:	f043 0301 	orr.w	r3, r3, #1
 800603e:	5083      	str	r3, [r0, r2]
 8006040:	e8bd 83f0 	ldmia.w	sp!, {r4, r5, r6, r7, r8, r9, pc}
 8006044:	2504      	movs	r5, #4
 8006046:	e7e2      	b.n	800600e <LTDC_SetConfig+0xc2>
 8006048:	2501      	movs	r5, #1
 800604a:	e7e0      	b.n	800600e <LTDC_SetConfig+0xc2>
 800604c:	0800df52 	.word	0x0800df52

08006050 <HAL_LTDC_Init>:
 8006050:	b538      	push	{r3, r4, r5, lr}
 8006052:	4604      	mov	r4, r0
 8006054:	2800      	cmp	r0, #0
 8006056:	d063      	beq.n	8006120 <HAL_LTDC_Init+0xd0>
 8006058:	f890 30a1 	ldrb.w	r3, [r0, #161]	; 0xa1
 800605c:	f003 02ff 	and.w	r2, r3, #255	; 0xff
 8006060:	b91b      	cbnz	r3, 800606a <HAL_LTDC_Init+0x1a>
 8006062:	f880 20a0 	strb.w	r2, [r0, #160]	; 0xa0
 8006066:	f7fd ffed 	bl	8004044 <HAL_LTDC_MspInit>
 800606a:	2302      	movs	r3, #2
 800606c:	f884 30a1 	strb.w	r3, [r4, #161]	; 0xa1
 8006070:	6823      	ldr	r3, [r4, #0]
 8006072:	699a      	ldr	r2, [r3, #24]
 8006074:	f022 4270 	bic.w	r2, r2, #4026531840	; 0xf0000000
 8006078:	619a      	str	r2, [r3, #24]
 800607a:	e9d4 2001 	ldrd	r2, r0, [r4, #4]
 800607e:	4302      	orrs	r2, r0
 8006080:	68e0      	ldr	r0, [r4, #12]
 8006082:	6999      	ldr	r1, [r3, #24]
 8006084:	4302      	orrs	r2, r0
 8006086:	6920      	ldr	r0, [r4, #16]
 8006088:	4302      	orrs	r2, r0
 800608a:	430a      	orrs	r2, r1
 800608c:	619a      	str	r2, [r3, #24]
 800608e:	689a      	ldr	r2, [r3, #8]
 8006090:	4924      	ldr	r1, [pc, #144]	; (8006124 <HAL_LTDC_Init+0xd4>)
 8006092:	6960      	ldr	r0, [r4, #20]
 8006094:	400a      	ands	r2, r1
 8006096:	609a      	str	r2, [r3, #8]
 8006098:	689a      	ldr	r2, [r3, #8]
 800609a:	ea42 4200 	orr.w	r2, r2, r0, lsl #16
 800609e:	69a0      	ldr	r0, [r4, #24]
 80060a0:	4302      	orrs	r2, r0
 80060a2:	609a      	str	r2, [r3, #8]
 80060a4:	68da      	ldr	r2, [r3, #12]
 80060a6:	69e0      	ldr	r0, [r4, #28]
 80060a8:	400a      	ands	r2, r1
 80060aa:	60da      	str	r2, [r3, #12]
 80060ac:	68da      	ldr	r2, [r3, #12]
 80060ae:	ea42 4200 	orr.w	r2, r2, r0, lsl #16
 80060b2:	6a20      	ldr	r0, [r4, #32]
 80060b4:	4302      	orrs	r2, r0
 80060b6:	60da      	str	r2, [r3, #12]
 80060b8:	691a      	ldr	r2, [r3, #16]
 80060ba:	6a60      	ldr	r0, [r4, #36]	; 0x24
 80060bc:	400a      	ands	r2, r1
 80060be:	611a      	str	r2, [r3, #16]
 80060c0:	691a      	ldr	r2, [r3, #16]
 80060c2:	ea42 4200 	orr.w	r2, r2, r0, lsl #16
 80060c6:	6aa0      	ldr	r0, [r4, #40]	; 0x28
 80060c8:	4302      	orrs	r2, r0
 80060ca:	611a      	str	r2, [r3, #16]
 80060cc:	695a      	ldr	r2, [r3, #20]
 80060ce:	400a      	ands	r2, r1
 80060d0:	615a      	str	r2, [r3, #20]
 80060d2:	695a      	ldr	r2, [r3, #20]
 80060d4:	6ae1      	ldr	r1, [r4, #44]	; 0x2c
 80060d6:	ea42 4201 	orr.w	r2, r2, r1, lsl #16
 80060da:	6b21      	ldr	r1, [r4, #48]	; 0x30
 80060dc:	430a      	orrs	r2, r1
 80060de:	615a      	str	r2, [r3, #20]
 80060e0:	6ada      	ldr	r2, [r3, #44]	; 0x2c
 80060e2:	f894 0035 	ldrb.w	r0, [r4, #53]	; 0x35
 80060e6:	f894 1036 	ldrb.w	r1, [r4, #54]	; 0x36
 80060ea:	f002 427f 	and.w	r2, r2, #4278190080	; 0xff000000
 80060ee:	62da      	str	r2, [r3, #44]	; 0x2c
 80060f0:	6add      	ldr	r5, [r3, #44]	; 0x2c
 80060f2:	f894 2034 	ldrb.w	r2, [r4, #52]	; 0x34
 80060f6:	432a      	orrs	r2, r5
 80060f8:	ea42 2200 	orr.w	r2, r2, r0, lsl #8
 80060fc:	ea42 4201 	orr.w	r2, r2, r1, lsl #16
 8006100:	62da      	str	r2, [r3, #44]	; 0x2c
 8006102:	6b5a      	ldr	r2, [r3, #52]	; 0x34
 8006104:	f042 0206 	orr.w	r2, r2, #6
 8006108:	635a      	str	r2, [r3, #52]	; 0x34
 800610a:	699a      	ldr	r2, [r3, #24]
 800610c:	f042 0201 	orr.w	r2, r2, #1
 8006110:	619a      	str	r2, [r3, #24]
 8006112:	2000      	movs	r0, #0
 8006114:	2301      	movs	r3, #1
 8006116:	f8c4 00a4 	str.w	r0, [r4, #164]	; 0xa4
 800611a:	f884 30a1 	strb.w	r3, [r4, #161]	; 0xa1
 800611e:	bd38      	pop	{r3, r4, r5, pc}
 8006120:	2001      	movs	r0, #1
 8006122:	e7fc      	b.n	800611e <HAL_LTDC_Init+0xce>
 8006124:	f000f800 	.word	0xf000f800

08006128 <HAL_LTDC_ConfigLayer>:
 8006128:	e92d 41f0 	stmdb	sp!, {r4, r5, r6, r7, r8, lr}
 800612c:	f890 30a0 	ldrb.w	r3, [r0, #160]	; 0xa0
 8006130:	2b01      	cmp	r3, #1
 8006132:	4606      	mov	r6, r0
 8006134:	460f      	mov	r7, r1
 8006136:	4694      	mov	ip, r2
 8006138:	f04f 0002 	mov.w	r0, #2
 800613c:	d01f      	beq.n	800617e <HAL_LTDC_ConfigLayer+0x56>
 800613e:	f04f 0801 	mov.w	r8, #1
 8006142:	f886 80a0 	strb.w	r8, [r6, #160]	; 0xa0
 8006146:	f886 00a1 	strb.w	r0, [r6, #161]	; 0xa1
 800614a:	2434      	movs	r4, #52	; 0x34
 800614c:	460d      	mov	r5, r1
 800614e:	fb04 6402 	mla	r4, r4, r2, r6
 8006152:	cd0f      	ldmia	r5!, {r0, r1, r2, r3}
 8006154:	3438      	adds	r4, #56	; 0x38
 8006156:	c40f      	stmia	r4!, {r0, r1, r2, r3}
 8006158:	cd0f      	ldmia	r5!, {r0, r1, r2, r3}
 800615a:	c40f      	stmia	r4!, {r0, r1, r2, r3}
 800615c:	cd0f      	ldmia	r5!, {r0, r1, r2, r3}
 800615e:	c40f      	stmia	r4!, {r0, r1, r2, r3}
 8006160:	682b      	ldr	r3, [r5, #0]
 8006162:	6023      	str	r3, [r4, #0]
 8006164:	4630      	mov	r0, r6
 8006166:	4662      	mov	r2, ip
 8006168:	4639      	mov	r1, r7
 800616a:	f7ff feef 	bl	8005f4c <LTDC_SetConfig>
 800616e:	6833      	ldr	r3, [r6, #0]
 8006170:	2000      	movs	r0, #0
 8006172:	f8c3 8024 	str.w	r8, [r3, #36]	; 0x24
 8006176:	f886 80a1 	strb.w	r8, [r6, #161]	; 0xa1
 800617a:	f886 00a0 	strb.w	r0, [r6, #160]	; 0xa0
 800617e:	e8bd 81f0 	ldmia.w	sp!, {r4, r5, r6, r7, r8, pc}

08006182 <HAL_LTDC_SetAddress>:
 8006182:	b570      	push	{r4, r5, r6, lr}
 8006184:	f890 30a0 	ldrb.w	r3, [r0, #160]	; 0xa0
 8006188:	2b01      	cmp	r3, #1
 800618a:	4604      	mov	r4, r0
 800618c:	f04f 0302 	mov.w	r3, #2
 8006190:	d015      	beq.n	80061be <HAL_LTDC_SetAddress+0x3c>
 8006192:	f880 30a1 	strb.w	r3, [r0, #161]	; 0xa1
 8006196:	2334      	movs	r3, #52	; 0x34
 8006198:	4353      	muls	r3, r2
 800619a:	18c5      	adds	r5, r0, r3
 800619c:	2601      	movs	r6, #1
 800619e:	f880 60a0 	strb.w	r6, [r0, #160]	; 0xa0
 80061a2:	65e9      	str	r1, [r5, #92]	; 0x5c
 80061a4:	f103 0138 	add.w	r1, r3, #56	; 0x38
 80061a8:	4401      	add	r1, r0
 80061aa:	f7ff fecf 	bl	8005f4c <LTDC_SetConfig>
 80061ae:	6823      	ldr	r3, [r4, #0]
 80061b0:	2000      	movs	r0, #0
 80061b2:	625e      	str	r6, [r3, #36]	; 0x24
 80061b4:	f884 60a1 	strb.w	r6, [r4, #161]	; 0xa1
 80061b8:	f884 00a0 	strb.w	r0, [r4, #160]	; 0xa0
 80061bc:	bd70      	pop	{r4, r5, r6, pc}
 80061be:	4618      	mov	r0, r3
 80061c0:	e7fc      	b.n	80061bc <HAL_LTDC_SetAddress+0x3a>
	...

080061c4 <HAL_PWREx_EnableOverDrive>:
 80061c4:	b537      	push	{r0, r1, r2, r4, r5, lr}
 80061c6:	2300      	movs	r3, #0
 80061c8:	9301      	str	r3, [sp, #4]
 80061ca:	4b18      	ldr	r3, [pc, #96]	; (800622c <HAL_PWREx_EnableOverDrive+0x68>)
 80061cc:	4d18      	ldr	r5, [pc, #96]	; (8006230 <HAL_PWREx_EnableOverDrive+0x6c>)
 80061ce:	6c1a      	ldr	r2, [r3, #64]	; 0x40
 80061d0:	f042 5280 	orr.w	r2, r2, #268435456	; 0x10000000
 80061d4:	641a      	str	r2, [r3, #64]	; 0x40
 80061d6:	6c1b      	ldr	r3, [r3, #64]	; 0x40
 80061d8:	f003 5380 	and.w	r3, r3, #268435456	; 0x10000000
 80061dc:	9301      	str	r3, [sp, #4]
 80061de:	9b01      	ldr	r3, [sp, #4]
 80061e0:	4b14      	ldr	r3, [pc, #80]	; (8006234 <HAL_PWREx_EnableOverDrive+0x70>)
 80061e2:	2201      	movs	r2, #1
 80061e4:	641a      	str	r2, [r3, #64]	; 0x40
 80061e6:	f7ff fb25 	bl	8005834 <HAL_GetTick>
 80061ea:	4604      	mov	r4, r0
 80061ec:	686b      	ldr	r3, [r5, #4]
 80061ee:	03da      	lsls	r2, r3, #15
 80061f0:	d50b      	bpl.n	800620a <HAL_PWREx_EnableOverDrive+0x46>
 80061f2:	4b10      	ldr	r3, [pc, #64]	; (8006234 <HAL_PWREx_EnableOverDrive+0x70>)
 80061f4:	4d0e      	ldr	r5, [pc, #56]	; (8006230 <HAL_PWREx_EnableOverDrive+0x6c>)
 80061f6:	2201      	movs	r2, #1
 80061f8:	645a      	str	r2, [r3, #68]	; 0x44
 80061fa:	f7ff fb1b 	bl	8005834 <HAL_GetTick>
 80061fe:	4604      	mov	r4, r0
 8006200:	686b      	ldr	r3, [r5, #4]
 8006202:	039b      	lsls	r3, r3, #14
 8006204:	d50a      	bpl.n	800621c <HAL_PWREx_EnableOverDrive+0x58>
 8006206:	2000      	movs	r0, #0
 8006208:	e006      	b.n	8006218 <HAL_PWREx_EnableOverDrive+0x54>
 800620a:	f7ff fb13 	bl	8005834 <HAL_GetTick>
 800620e:	1b00      	subs	r0, r0, r4
 8006210:	f5b0 7f7a 	cmp.w	r0, #1000	; 0x3e8
 8006214:	d9ea      	bls.n	80061ec <HAL_PWREx_EnableOverDrive+0x28>
 8006216:	2003      	movs	r0, #3
 8006218:	b003      	add	sp, #12
 800621a:	bd30      	pop	{r4, r5, pc}
 800621c:	f7ff fb0a 	bl	8005834 <HAL_GetTick>
 8006220:	1b00      	subs	r0, r0, r4
 8006222:	f5b0 7f7a 	cmp.w	r0, #1000	; 0x3e8
 8006226:	d9eb      	bls.n	8006200 <HAL_PWREx_EnableOverDrive+0x3c>
 8006228:	e7f5      	b.n	8006216 <HAL_PWREx_EnableOverDrive+0x52>
 800622a:	bf00      	nop
 800622c:	40023800 	.word	0x40023800
 8006230:	40007000 	.word	0x40007000
 8006234:	420e0000 	.word	0x420e0000

08006238 <HAL_RCC_OscConfig>:
 8006238:	e92d 41f3 	stmdb	sp!, {r0, r1, r4, r5, r6, r7, r8, lr}
 800623c:	4604      	mov	r4, r0
 800623e:	b340      	cbz	r0, 8006292 <HAL_RCC_OscConfig+0x5a>
 8006240:	6803      	ldr	r3, [r0, #0]
 8006242:	07dd      	lsls	r5, r3, #31
 8006244:	d410      	bmi.n	8006268 <HAL_RCC_OscConfig+0x30>
 8006246:	6823      	ldr	r3, [r4, #0]
 8006248:	0798      	lsls	r0, r3, #30
 800624a:	d45b      	bmi.n	8006304 <HAL_RCC_OscConfig+0xcc>
 800624c:	6823      	ldr	r3, [r4, #0]
 800624e:	071a      	lsls	r2, r3, #28
 8006250:	f100 809d 	bmi.w	800638e <HAL_RCC_OscConfig+0x156>
 8006254:	6823      	ldr	r3, [r4, #0]
 8006256:	075b      	lsls	r3, r3, #29
 8006258:	f100 80bd 	bmi.w	80063d6 <HAL_RCC_OscConfig+0x19e>
 800625c:	69a0      	ldr	r0, [r4, #24]
 800625e:	2800      	cmp	r0, #0
 8006260:	f040 8124 	bne.w	80064ac <HAL_RCC_OscConfig+0x274>
 8006264:	2000      	movs	r0, #0
 8006266:	e02c      	b.n	80062c2 <HAL_RCC_OscConfig+0x8a>
 8006268:	4b8d      	ldr	r3, [pc, #564]	; (80064a0 <HAL_RCC_OscConfig+0x268>)
 800626a:	689a      	ldr	r2, [r3, #8]
 800626c:	f002 020c 	and.w	r2, r2, #12
 8006270:	2a04      	cmp	r2, #4
 8006272:	d007      	beq.n	8006284 <HAL_RCC_OscConfig+0x4c>
 8006274:	689a      	ldr	r2, [r3, #8]
 8006276:	f002 020c 	and.w	r2, r2, #12
 800627a:	2a08      	cmp	r2, #8
 800627c:	d10b      	bne.n	8006296 <HAL_RCC_OscConfig+0x5e>
 800627e:	685b      	ldr	r3, [r3, #4]
 8006280:	0259      	lsls	r1, r3, #9
 8006282:	d508      	bpl.n	8006296 <HAL_RCC_OscConfig+0x5e>
 8006284:	4b86      	ldr	r3, [pc, #536]	; (80064a0 <HAL_RCC_OscConfig+0x268>)
 8006286:	681b      	ldr	r3, [r3, #0]
 8006288:	039a      	lsls	r2, r3, #14
 800628a:	d5dc      	bpl.n	8006246 <HAL_RCC_OscConfig+0xe>
 800628c:	6863      	ldr	r3, [r4, #4]
 800628e:	2b00      	cmp	r3, #0
 8006290:	d1d9      	bne.n	8006246 <HAL_RCC_OscConfig+0xe>
 8006292:	2001      	movs	r0, #1
 8006294:	e015      	b.n	80062c2 <HAL_RCC_OscConfig+0x8a>
 8006296:	6863      	ldr	r3, [r4, #4]
 8006298:	4d81      	ldr	r5, [pc, #516]	; (80064a0 <HAL_RCC_OscConfig+0x268>)
 800629a:	f5b3 3f80 	cmp.w	r3, #65536	; 0x10000
 800629e:	d113      	bne.n	80062c8 <HAL_RCC_OscConfig+0x90>
 80062a0:	682b      	ldr	r3, [r5, #0]
 80062a2:	f443 3380 	orr.w	r3, r3, #65536	; 0x10000
 80062a6:	602b      	str	r3, [r5, #0]
 80062a8:	f7ff fac4 	bl	8005834 <HAL_GetTick>
 80062ac:	4e7c      	ldr	r6, [pc, #496]	; (80064a0 <HAL_RCC_OscConfig+0x268>)
 80062ae:	4605      	mov	r5, r0
 80062b0:	6833      	ldr	r3, [r6, #0]
 80062b2:	039b      	lsls	r3, r3, #14
 80062b4:	d4c7      	bmi.n	8006246 <HAL_RCC_OscConfig+0xe>
 80062b6:	f7ff fabd 	bl	8005834 <HAL_GetTick>
 80062ba:	1b40      	subs	r0, r0, r5
 80062bc:	2864      	cmp	r0, #100	; 0x64
 80062be:	d9f7      	bls.n	80062b0 <HAL_RCC_OscConfig+0x78>
 80062c0:	2003      	movs	r0, #3
 80062c2:	b002      	add	sp, #8
 80062c4:	e8bd 81f0 	ldmia.w	sp!, {r4, r5, r6, r7, r8, pc}
 80062c8:	f5b3 2fa0 	cmp.w	r3, #327680	; 0x50000
 80062cc:	d104      	bne.n	80062d8 <HAL_RCC_OscConfig+0xa0>
 80062ce:	682b      	ldr	r3, [r5, #0]
 80062d0:	f443 2380 	orr.w	r3, r3, #262144	; 0x40000
 80062d4:	602b      	str	r3, [r5, #0]
 80062d6:	e7e3      	b.n	80062a0 <HAL_RCC_OscConfig+0x68>
 80062d8:	682a      	ldr	r2, [r5, #0]
 80062da:	f422 3280 	bic.w	r2, r2, #65536	; 0x10000
 80062de:	602a      	str	r2, [r5, #0]
 80062e0:	682a      	ldr	r2, [r5, #0]
 80062e2:	f422 2280 	bic.w	r2, r2, #262144	; 0x40000
 80062e6:	602a      	str	r2, [r5, #0]
 80062e8:	2b00      	cmp	r3, #0
 80062ea:	d1dd      	bne.n	80062a8 <HAL_RCC_OscConfig+0x70>
 80062ec:	f7ff faa2 	bl	8005834 <HAL_GetTick>
 80062f0:	4606      	mov	r6, r0
 80062f2:	682b      	ldr	r3, [r5, #0]
 80062f4:	039f      	lsls	r7, r3, #14
 80062f6:	d5a6      	bpl.n	8006246 <HAL_RCC_OscConfig+0xe>
 80062f8:	f7ff fa9c 	bl	8005834 <HAL_GetTick>
 80062fc:	1b80      	subs	r0, r0, r6
 80062fe:	2864      	cmp	r0, #100	; 0x64
 8006300:	d9f7      	bls.n	80062f2 <HAL_RCC_OscConfig+0xba>
 8006302:	e7dd      	b.n	80062c0 <HAL_RCC_OscConfig+0x88>
 8006304:	4b66      	ldr	r3, [pc, #408]	; (80064a0 <HAL_RCC_OscConfig+0x268>)
 8006306:	689a      	ldr	r2, [r3, #8]
 8006308:	f012 0f0c 	tst.w	r2, #12
 800630c:	d007      	beq.n	800631e <HAL_RCC_OscConfig+0xe6>
 800630e:	689a      	ldr	r2, [r3, #8]
 8006310:	f002 020c 	and.w	r2, r2, #12
 8006314:	2a08      	cmp	r2, #8
 8006316:	d111      	bne.n	800633c <HAL_RCC_OscConfig+0x104>
 8006318:	685b      	ldr	r3, [r3, #4]
 800631a:	025e      	lsls	r6, r3, #9
 800631c:	d40e      	bmi.n	800633c <HAL_RCC_OscConfig+0x104>
 800631e:	4a60      	ldr	r2, [pc, #384]	; (80064a0 <HAL_RCC_OscConfig+0x268>)
 8006320:	6813      	ldr	r3, [r2, #0]
 8006322:	079d      	lsls	r5, r3, #30
 8006324:	d502      	bpl.n	800632c <HAL_RCC_OscConfig+0xf4>
 8006326:	68e3      	ldr	r3, [r4, #12]
 8006328:	2b01      	cmp	r3, #1
 800632a:	d1b2      	bne.n	8006292 <HAL_RCC_OscConfig+0x5a>
 800632c:	6813      	ldr	r3, [r2, #0]
 800632e:	6921      	ldr	r1, [r4, #16]
 8006330:	f023 03f8 	bic.w	r3, r3, #248	; 0xf8
 8006334:	ea43 03c1 	orr.w	r3, r3, r1, lsl #3
 8006338:	6013      	str	r3, [r2, #0]
 800633a:	e787      	b.n	800624c <HAL_RCC_OscConfig+0x14>
 800633c:	68e2      	ldr	r2, [r4, #12]
 800633e:	4b59      	ldr	r3, [pc, #356]	; (80064a4 <HAL_RCC_OscConfig+0x26c>)
 8006340:	b1b2      	cbz	r2, 8006370 <HAL_RCC_OscConfig+0x138>
 8006342:	2201      	movs	r2, #1
 8006344:	601a      	str	r2, [r3, #0]
 8006346:	f7ff fa75 	bl	8005834 <HAL_GetTick>
 800634a:	4d55      	ldr	r5, [pc, #340]	; (80064a0 <HAL_RCC_OscConfig+0x268>)
 800634c:	4606      	mov	r6, r0
 800634e:	682b      	ldr	r3, [r5, #0]
 8006350:	0798      	lsls	r0, r3, #30
 8006352:	d507      	bpl.n	8006364 <HAL_RCC_OscConfig+0x12c>
 8006354:	682b      	ldr	r3, [r5, #0]
 8006356:	6922      	ldr	r2, [r4, #16]
 8006358:	f023 03f8 	bic.w	r3, r3, #248	; 0xf8
 800635c:	ea43 03c2 	orr.w	r3, r3, r2, lsl #3
 8006360:	602b      	str	r3, [r5, #0]
 8006362:	e773      	b.n	800624c <HAL_RCC_OscConfig+0x14>
 8006364:	f7ff fa66 	bl	8005834 <HAL_GetTick>
 8006368:	1b80      	subs	r0, r0, r6
 800636a:	2802      	cmp	r0, #2
 800636c:	d9ef      	bls.n	800634e <HAL_RCC_OscConfig+0x116>
 800636e:	e7a7      	b.n	80062c0 <HAL_RCC_OscConfig+0x88>
 8006370:	601a      	str	r2, [r3, #0]
 8006372:	f7ff fa5f 	bl	8005834 <HAL_GetTick>
 8006376:	4e4a      	ldr	r6, [pc, #296]	; (80064a0 <HAL_RCC_OscConfig+0x268>)
 8006378:	4605      	mov	r5, r0
 800637a:	6833      	ldr	r3, [r6, #0]
 800637c:	0799      	lsls	r1, r3, #30
 800637e:	f57f af65 	bpl.w	800624c <HAL_RCC_OscConfig+0x14>
 8006382:	f7ff fa57 	bl	8005834 <HAL_GetTick>
 8006386:	1b40      	subs	r0, r0, r5
 8006388:	2802      	cmp	r0, #2
 800638a:	d9f6      	bls.n	800637a <HAL_RCC_OscConfig+0x142>
 800638c:	e798      	b.n	80062c0 <HAL_RCC_OscConfig+0x88>
 800638e:	6962      	ldr	r2, [r4, #20]
 8006390:	4b44      	ldr	r3, [pc, #272]	; (80064a4 <HAL_RCC_OscConfig+0x26c>)
 8006392:	b182      	cbz	r2, 80063b6 <HAL_RCC_OscConfig+0x17e>
 8006394:	2201      	movs	r2, #1
 8006396:	f8c3 2e80 	str.w	r2, [r3, #3712]	; 0xe80
 800639a:	f7ff fa4b 	bl	8005834 <HAL_GetTick>
 800639e:	4e40      	ldr	r6, [pc, #256]	; (80064a0 <HAL_RCC_OscConfig+0x268>)
 80063a0:	4605      	mov	r5, r0
 80063a2:	6f73      	ldr	r3, [r6, #116]	; 0x74
 80063a4:	079f      	lsls	r7, r3, #30
 80063a6:	f53f af55 	bmi.w	8006254 <HAL_RCC_OscConfig+0x1c>
 80063aa:	f7ff fa43 	bl	8005834 <HAL_GetTick>
 80063ae:	1b40      	subs	r0, r0, r5
 80063b0:	2802      	cmp	r0, #2
 80063b2:	d9f6      	bls.n	80063a2 <HAL_RCC_OscConfig+0x16a>
 80063b4:	e784      	b.n	80062c0 <HAL_RCC_OscConfig+0x88>
 80063b6:	f8c3 2e80 	str.w	r2, [r3, #3712]	; 0xe80
 80063ba:	f7ff fa3b 	bl	8005834 <HAL_GetTick>
 80063be:	4e38      	ldr	r6, [pc, #224]	; (80064a0 <HAL_RCC_OscConfig+0x268>)
 80063c0:	4605      	mov	r5, r0
 80063c2:	6f73      	ldr	r3, [r6, #116]	; 0x74
 80063c4:	0798      	lsls	r0, r3, #30
 80063c6:	f57f af45 	bpl.w	8006254 <HAL_RCC_OscConfig+0x1c>
 80063ca:	f7ff fa33 	bl	8005834 <HAL_GetTick>
 80063ce:	1b40      	subs	r0, r0, r5
 80063d0:	2802      	cmp	r0, #2
 80063d2:	d9f6      	bls.n	80063c2 <HAL_RCC_OscConfig+0x18a>
 80063d4:	e774      	b.n	80062c0 <HAL_RCC_OscConfig+0x88>
 80063d6:	4b32      	ldr	r3, [pc, #200]	; (80064a0 <HAL_RCC_OscConfig+0x268>)
 80063d8:	6c1a      	ldr	r2, [r3, #64]	; 0x40
 80063da:	f012 5280 	ands.w	r2, r2, #268435456	; 0x10000000
 80063de:	d128      	bne.n	8006432 <HAL_RCC_OscConfig+0x1fa>
 80063e0:	9201      	str	r2, [sp, #4]
 80063e2:	6c1a      	ldr	r2, [r3, #64]	; 0x40
 80063e4:	f042 5280 	orr.w	r2, r2, #268435456	; 0x10000000
 80063e8:	641a      	str	r2, [r3, #64]	; 0x40
 80063ea:	6c1b      	ldr	r3, [r3, #64]	; 0x40
 80063ec:	f003 5380 	and.w	r3, r3, #268435456	; 0x10000000
 80063f0:	9301      	str	r3, [sp, #4]
 80063f2:	9b01      	ldr	r3, [sp, #4]
 80063f4:	2701      	movs	r7, #1
 80063f6:	4d2c      	ldr	r5, [pc, #176]	; (80064a8 <HAL_RCC_OscConfig+0x270>)
 80063f8:	682b      	ldr	r3, [r5, #0]
 80063fa:	05d9      	lsls	r1, r3, #23
 80063fc:	d51b      	bpl.n	8006436 <HAL_RCC_OscConfig+0x1fe>
 80063fe:	68a3      	ldr	r3, [r4, #8]
 8006400:	4d27      	ldr	r5, [pc, #156]	; (80064a0 <HAL_RCC_OscConfig+0x268>)
 8006402:	2b01      	cmp	r3, #1
 8006404:	d127      	bne.n	8006456 <HAL_RCC_OscConfig+0x21e>
 8006406:	6f2b      	ldr	r3, [r5, #112]	; 0x70
 8006408:	f043 0301 	orr.w	r3, r3, #1
 800640c:	672b      	str	r3, [r5, #112]	; 0x70
 800640e:	f7ff fa11 	bl	8005834 <HAL_GetTick>
 8006412:	4e23      	ldr	r6, [pc, #140]	; (80064a0 <HAL_RCC_OscConfig+0x268>)
 8006414:	4605      	mov	r5, r0
 8006416:	f241 3888 	movw	r8, #5000	; 0x1388
 800641a:	6f33      	ldr	r3, [r6, #112]	; 0x70
 800641c:	079b      	lsls	r3, r3, #30
 800641e:	d539      	bpl.n	8006494 <HAL_RCC_OscConfig+0x25c>
 8006420:	2f00      	cmp	r7, #0
 8006422:	f43f af1b 	beq.w	800625c <HAL_RCC_OscConfig+0x24>
 8006426:	4a1e      	ldr	r2, [pc, #120]	; (80064a0 <HAL_RCC_OscConfig+0x268>)
 8006428:	6c13      	ldr	r3, [r2, #64]	; 0x40
 800642a:	f023 5380 	bic.w	r3, r3, #268435456	; 0x10000000
 800642e:	6413      	str	r3, [r2, #64]	; 0x40
 8006430:	e714      	b.n	800625c <HAL_RCC_OscConfig+0x24>
 8006432:	2700      	movs	r7, #0
 8006434:	e7df      	b.n	80063f6 <HAL_RCC_OscConfig+0x1be>
 8006436:	682b      	ldr	r3, [r5, #0]
 8006438:	f443 7380 	orr.w	r3, r3, #256	; 0x100
 800643c:	602b      	str	r3, [r5, #0]
 800643e:	f7ff f9f9 	bl	8005834 <HAL_GetTick>
 8006442:	4606      	mov	r6, r0
 8006444:	682b      	ldr	r3, [r5, #0]
 8006446:	05da      	lsls	r2, r3, #23
 8006448:	d4d9      	bmi.n	80063fe <HAL_RCC_OscConfig+0x1c6>
 800644a:	f7ff f9f3 	bl	8005834 <HAL_GetTick>
 800644e:	1b80      	subs	r0, r0, r6
 8006450:	2802      	cmp	r0, #2
 8006452:	d9f7      	bls.n	8006444 <HAL_RCC_OscConfig+0x20c>
 8006454:	e734      	b.n	80062c0 <HAL_RCC_OscConfig+0x88>
 8006456:	2b05      	cmp	r3, #5
 8006458:	d104      	bne.n	8006464 <HAL_RCC_OscConfig+0x22c>
 800645a:	6f2b      	ldr	r3, [r5, #112]	; 0x70
 800645c:	f043 0304 	orr.w	r3, r3, #4
 8006460:	672b      	str	r3, [r5, #112]	; 0x70
 8006462:	e7d0      	b.n	8006406 <HAL_RCC_OscConfig+0x1ce>
 8006464:	6f2a      	ldr	r2, [r5, #112]	; 0x70
 8006466:	f022 0201 	bic.w	r2, r2, #1
 800646a:	672a      	str	r2, [r5, #112]	; 0x70
 800646c:	6f2a      	ldr	r2, [r5, #112]	; 0x70
 800646e:	f022 0204 	bic.w	r2, r2, #4
 8006472:	672a      	str	r2, [r5, #112]	; 0x70
 8006474:	2b00      	cmp	r3, #0
 8006476:	d1ca      	bne.n	800640e <HAL_RCC_OscConfig+0x1d6>
 8006478:	f7ff f9dc 	bl	8005834 <HAL_GetTick>
 800647c:	f241 3888 	movw	r8, #5000	; 0x1388
 8006480:	4606      	mov	r6, r0
 8006482:	6f2b      	ldr	r3, [r5, #112]	; 0x70
 8006484:	0798      	lsls	r0, r3, #30
 8006486:	d5cb      	bpl.n	8006420 <HAL_RCC_OscConfig+0x1e8>
 8006488:	f7ff f9d4 	bl	8005834 <HAL_GetTick>
 800648c:	1b80      	subs	r0, r0, r6
 800648e:	4540      	cmp	r0, r8
 8006490:	d9f7      	bls.n	8006482 <HAL_RCC_OscConfig+0x24a>
 8006492:	e715      	b.n	80062c0 <HAL_RCC_OscConfig+0x88>
 8006494:	f7ff f9ce 	bl	8005834 <HAL_GetTick>
 8006498:	1b40      	subs	r0, r0, r5
 800649a:	4540      	cmp	r0, r8
 800649c:	d9bd      	bls.n	800641a <HAL_RCC_OscConfig+0x1e2>
 800649e:	e70f      	b.n	80062c0 <HAL_RCC_OscConfig+0x88>
 80064a0:	40023800 	.word	0x40023800
 80064a4:	42470000 	.word	0x42470000
 80064a8:	40007000 	.word	0x40007000
 80064ac:	4d36      	ldr	r5, [pc, #216]	; (8006588 <HAL_RCC_OscConfig+0x350>)
 80064ae:	68ab      	ldr	r3, [r5, #8]
 80064b0:	f003 030c 	and.w	r3, r3, #12
 80064b4:	2b08      	cmp	r3, #8
 80064b6:	d03d      	beq.n	8006534 <HAL_RCC_OscConfig+0x2fc>
 80064b8:	4b34      	ldr	r3, [pc, #208]	; (800658c <HAL_RCC_OscConfig+0x354>)
 80064ba:	2200      	movs	r2, #0
 80064bc:	2802      	cmp	r0, #2
 80064be:	661a      	str	r2, [r3, #96]	; 0x60
 80064c0:	d12b      	bne.n	800651a <HAL_RCC_OscConfig+0x2e2>
 80064c2:	f7ff f9b7 	bl	8005834 <HAL_GetTick>
 80064c6:	4606      	mov	r6, r0
 80064c8:	682b      	ldr	r3, [r5, #0]
 80064ca:	0199      	lsls	r1, r3, #6
 80064cc:	d41f      	bmi.n	800650e <HAL_RCC_OscConfig+0x2d6>
 80064ce:	e9d4 3207 	ldrd	r3, r2, [r4, #28]
 80064d2:	4313      	orrs	r3, r2
 80064d4:	6a62      	ldr	r2, [r4, #36]	; 0x24
 80064d6:	ea43 1382 	orr.w	r3, r3, r2, lsl #6
 80064da:	6ae2      	ldr	r2, [r4, #44]	; 0x2c
 80064dc:	ea43 6302 	orr.w	r3, r3, r2, lsl #24
 80064e0:	6aa2      	ldr	r2, [r4, #40]	; 0x28
 80064e2:	0852      	lsrs	r2, r2, #1
 80064e4:	3a01      	subs	r2, #1
 80064e6:	ea43 4302 	orr.w	r3, r3, r2, lsl #16
 80064ea:	606b      	str	r3, [r5, #4]
 80064ec:	4b27      	ldr	r3, [pc, #156]	; (800658c <HAL_RCC_OscConfig+0x354>)
 80064ee:	4d26      	ldr	r5, [pc, #152]	; (8006588 <HAL_RCC_OscConfig+0x350>)
 80064f0:	2201      	movs	r2, #1
 80064f2:	661a      	str	r2, [r3, #96]	; 0x60
 80064f4:	f7ff f99e 	bl	8005834 <HAL_GetTick>
 80064f8:	4604      	mov	r4, r0
 80064fa:	682b      	ldr	r3, [r5, #0]
 80064fc:	019a      	lsls	r2, r3, #6
 80064fe:	f53f aeb1 	bmi.w	8006264 <HAL_RCC_OscConfig+0x2c>
 8006502:	f7ff f997 	bl	8005834 <HAL_GetTick>
 8006506:	1b00      	subs	r0, r0, r4
 8006508:	2802      	cmp	r0, #2
 800650a:	d9f6      	bls.n	80064fa <HAL_RCC_OscConfig+0x2c2>
 800650c:	e6d8      	b.n	80062c0 <HAL_RCC_OscConfig+0x88>
 800650e:	f7ff f991 	bl	8005834 <HAL_GetTick>
 8006512:	1b80      	subs	r0, r0, r6
 8006514:	2802      	cmp	r0, #2
 8006516:	d9d7      	bls.n	80064c8 <HAL_RCC_OscConfig+0x290>
 8006518:	e6d2      	b.n	80062c0 <HAL_RCC_OscConfig+0x88>
 800651a:	f7ff f98b 	bl	8005834 <HAL_GetTick>
 800651e:	4604      	mov	r4, r0
 8006520:	682b      	ldr	r3, [r5, #0]
 8006522:	019b      	lsls	r3, r3, #6
 8006524:	f57f ae9e 	bpl.w	8006264 <HAL_RCC_OscConfig+0x2c>
 8006528:	f7ff f984 	bl	8005834 <HAL_GetTick>
 800652c:	1b00      	subs	r0, r0, r4
 800652e:	2802      	cmp	r0, #2
 8006530:	d9f6      	bls.n	8006520 <HAL_RCC_OscConfig+0x2e8>
 8006532:	e6c5      	b.n	80062c0 <HAL_RCC_OscConfig+0x88>
 8006534:	2801      	cmp	r0, #1
 8006536:	f43f aec4 	beq.w	80062c2 <HAL_RCC_OscConfig+0x8a>
 800653a:	686b      	ldr	r3, [r5, #4]
 800653c:	69e2      	ldr	r2, [r4, #28]
 800653e:	f403 0180 	and.w	r1, r3, #4194304	; 0x400000
 8006542:	4291      	cmp	r1, r2
 8006544:	f47f aea5 	bne.w	8006292 <HAL_RCC_OscConfig+0x5a>
 8006548:	6a21      	ldr	r1, [r4, #32]
 800654a:	f003 023f 	and.w	r2, r3, #63	; 0x3f
 800654e:	428a      	cmp	r2, r1
 8006550:	f47f ae9f 	bne.w	8006292 <HAL_RCC_OscConfig+0x5a>
 8006554:	6a61      	ldr	r1, [r4, #36]	; 0x24
 8006556:	f647 72c0 	movw	r2, #32704	; 0x7fc0
 800655a:	401a      	ands	r2, r3
 800655c:	ebb2 1f81 	cmp.w	r2, r1, lsl #6
 8006560:	f47f ae97 	bne.w	8006292 <HAL_RCC_OscConfig+0x5a>
 8006564:	6aa2      	ldr	r2, [r4, #40]	; 0x28
 8006566:	0852      	lsrs	r2, r2, #1
 8006568:	f403 3140 	and.w	r1, r3, #196608	; 0x30000
 800656c:	3a01      	subs	r2, #1
 800656e:	ebb1 4f02 	cmp.w	r1, r2, lsl #16
 8006572:	f47f ae8e 	bne.w	8006292 <HAL_RCC_OscConfig+0x5a>
 8006576:	6ae2      	ldr	r2, [r4, #44]	; 0x2c
 8006578:	f003 6370 	and.w	r3, r3, #251658240	; 0xf000000
 800657c:	ebb3 6f02 	cmp.w	r3, r2, lsl #24
 8006580:	f43f ae70 	beq.w	8006264 <HAL_RCC_OscConfig+0x2c>
 8006584:	e685      	b.n	8006292 <HAL_RCC_OscConfig+0x5a>
 8006586:	bf00      	nop
 8006588:	40023800 	.word	0x40023800
 800658c:	42470000 	.word	0x42470000

08006590 <HAL_RCC_GetSysClockFreq>:
 8006590:	4913      	ldr	r1, [pc, #76]	; (80065e0 <HAL_RCC_GetSysClockFreq+0x50>)
 8006592:	b508      	push	{r3, lr}
 8006594:	688b      	ldr	r3, [r1, #8]
 8006596:	f003 030c 	and.w	r3, r3, #12
 800659a:	2b04      	cmp	r3, #4
 800659c:	d01c      	beq.n	80065d8 <HAL_RCC_GetSysClockFreq+0x48>
 800659e:	2b08      	cmp	r3, #8
 80065a0:	d11c      	bne.n	80065dc <HAL_RCC_GetSysClockFreq+0x4c>
 80065a2:	684a      	ldr	r2, [r1, #4]
 80065a4:	684b      	ldr	r3, [r1, #4]
 80065a6:	6849      	ldr	r1, [r1, #4]
 80065a8:	f413 0380 	ands.w	r3, r3, #4194304	; 0x400000
 80065ac:	bf14      	ite	ne
 80065ae:	480d      	ldrne	r0, [pc, #52]	; (80065e4 <HAL_RCC_GetSysClockFreq+0x54>)
 80065b0:	480d      	ldreq	r0, [pc, #52]	; (80065e8 <HAL_RCC_GetSysClockFreq+0x58>)
 80065b2:	f3c1 1188 	ubfx	r1, r1, #6, #9
 80065b6:	bf18      	it	ne
 80065b8:	2300      	movne	r3, #0
 80065ba:	f002 023f 	and.w	r2, r2, #63	; 0x3f
 80065be:	fba1 0100 	umull	r0, r1, r1, r0
 80065c2:	f7fa faa9 	bl	8000b18 <__aeabi_uldivmod>
 80065c6:	4b06      	ldr	r3, [pc, #24]	; (80065e0 <HAL_RCC_GetSysClockFreq+0x50>)
 80065c8:	685b      	ldr	r3, [r3, #4]
 80065ca:	f3c3 4301 	ubfx	r3, r3, #16, #2
 80065ce:	3301      	adds	r3, #1
 80065d0:	005b      	lsls	r3, r3, #1
 80065d2:	fbb0 f0f3 	udiv	r0, r0, r3
 80065d6:	bd08      	pop	{r3, pc}
 80065d8:	4802      	ldr	r0, [pc, #8]	; (80065e4 <HAL_RCC_GetSysClockFreq+0x54>)
 80065da:	e7fc      	b.n	80065d6 <HAL_RCC_GetSysClockFreq+0x46>
 80065dc:	4802      	ldr	r0, [pc, #8]	; (80065e8 <HAL_RCC_GetSysClockFreq+0x58>)
 80065de:	e7fa      	b.n	80065d6 <HAL_RCC_GetSysClockFreq+0x46>
 80065e0:	40023800 	.word	0x40023800
 80065e4:	007a1200 	.word	0x007a1200
 80065e8:	00f42400 	.word	0x00f42400

080065ec <HAL_RCC_ClockConfig>:
 80065ec:	e92d 41f0 	stmdb	sp!, {r4, r5, r6, r7, r8, lr}
 80065f0:	460d      	mov	r5, r1
 80065f2:	4604      	mov	r4, r0
 80065f4:	b910      	cbnz	r0, 80065fc <HAL_RCC_ClockConfig+0x10>
 80065f6:	2001      	movs	r0, #1
 80065f8:	e8bd 81f0 	ldmia.w	sp!, {r4, r5, r6, r7, r8, pc}
 80065fc:	4b43      	ldr	r3, [pc, #268]	; (800670c <HAL_RCC_ClockConfig+0x120>)
 80065fe:	681a      	ldr	r2, [r3, #0]
 8006600:	f002 020f 	and.w	r2, r2, #15
 8006604:	428a      	cmp	r2, r1
 8006606:	d328      	bcc.n	800665a <HAL_RCC_ClockConfig+0x6e>
 8006608:	6821      	ldr	r1, [r4, #0]
 800660a:	078f      	lsls	r7, r1, #30
 800660c:	d42d      	bmi.n	800666a <HAL_RCC_ClockConfig+0x7e>
 800660e:	07c8      	lsls	r0, r1, #31
 8006610:	d440      	bmi.n	8006694 <HAL_RCC_ClockConfig+0xa8>
 8006612:	4b3e      	ldr	r3, [pc, #248]	; (800670c <HAL_RCC_ClockConfig+0x120>)
 8006614:	681a      	ldr	r2, [r3, #0]
 8006616:	f002 020f 	and.w	r2, r2, #15
 800661a:	42aa      	cmp	r2, r5
 800661c:	d865      	bhi.n	80066ea <HAL_RCC_ClockConfig+0xfe>
 800661e:	6822      	ldr	r2, [r4, #0]
 8006620:	0751      	lsls	r1, r2, #29
 8006622:	d46b      	bmi.n	80066fc <HAL_RCC_ClockConfig+0x110>
 8006624:	0713      	lsls	r3, r2, #28
 8006626:	d507      	bpl.n	8006638 <HAL_RCC_ClockConfig+0x4c>
 8006628:	4a39      	ldr	r2, [pc, #228]	; (8006710 <HAL_RCC_ClockConfig+0x124>)
 800662a:	6921      	ldr	r1, [r4, #16]
 800662c:	6893      	ldr	r3, [r2, #8]
 800662e:	f423 4360 	bic.w	r3, r3, #57344	; 0xe000
 8006632:	ea43 03c1 	orr.w	r3, r3, r1, lsl #3
 8006636:	6093      	str	r3, [r2, #8]
 8006638:	f7ff ffaa 	bl	8006590 <HAL_RCC_GetSysClockFreq>
 800663c:	4b34      	ldr	r3, [pc, #208]	; (8006710 <HAL_RCC_ClockConfig+0x124>)
 800663e:	4a35      	ldr	r2, [pc, #212]	; (8006714 <HAL_RCC_ClockConfig+0x128>)
 8006640:	689b      	ldr	r3, [r3, #8]
 8006642:	f3c3 1303 	ubfx	r3, r3, #4, #4
 8006646:	5cd3      	ldrb	r3, [r2, r3]
 8006648:	40d8      	lsrs	r0, r3
 800664a:	4b33      	ldr	r3, [pc, #204]	; (8006718 <HAL_RCC_ClockConfig+0x12c>)
 800664c:	6018      	str	r0, [r3, #0]
 800664e:	4b33      	ldr	r3, [pc, #204]	; (800671c <HAL_RCC_ClockConfig+0x130>)
 8006650:	6818      	ldr	r0, [r3, #0]
 8006652:	f7ff f8a5 	bl	80057a0 <HAL_InitTick>
 8006656:	2000      	movs	r0, #0
 8006658:	e7ce      	b.n	80065f8 <HAL_RCC_ClockConfig+0xc>
 800665a:	b2ca      	uxtb	r2, r1
 800665c:	701a      	strb	r2, [r3, #0]
 800665e:	681b      	ldr	r3, [r3, #0]
 8006660:	f003 030f 	and.w	r3, r3, #15
 8006664:	428b      	cmp	r3, r1
 8006666:	d1c6      	bne.n	80065f6 <HAL_RCC_ClockConfig+0xa>
 8006668:	e7ce      	b.n	8006608 <HAL_RCC_ClockConfig+0x1c>
 800666a:	4b29      	ldr	r3, [pc, #164]	; (8006710 <HAL_RCC_ClockConfig+0x124>)
 800666c:	f011 0f04 	tst.w	r1, #4
 8006670:	bf1e      	ittt	ne
 8006672:	689a      	ldrne	r2, [r3, #8]
 8006674:	f442 52e0 	orrne.w	r2, r2, #7168	; 0x1c00
 8006678:	609a      	strne	r2, [r3, #8]
 800667a:	070e      	lsls	r6, r1, #28
 800667c:	bf42      	ittt	mi
 800667e:	689a      	ldrmi	r2, [r3, #8]
 8006680:	f442 4260 	orrmi.w	r2, r2, #57344	; 0xe000
 8006684:	609a      	strmi	r2, [r3, #8]
 8006686:	689a      	ldr	r2, [r3, #8]
 8006688:	68a0      	ldr	r0, [r4, #8]
 800668a:	f022 02f0 	bic.w	r2, r2, #240	; 0xf0
 800668e:	4302      	orrs	r2, r0
 8006690:	609a      	str	r2, [r3, #8]
 8006692:	e7bc      	b.n	800660e <HAL_RCC_ClockConfig+0x22>
 8006694:	6862      	ldr	r2, [r4, #4]
 8006696:	4b1e      	ldr	r3, [pc, #120]	; (8006710 <HAL_RCC_ClockConfig+0x124>)
 8006698:	2a01      	cmp	r2, #1
 800669a:	d11c      	bne.n	80066d6 <HAL_RCC_ClockConfig+0xea>
 800669c:	681b      	ldr	r3, [r3, #0]
 800669e:	f413 3f00 	tst.w	r3, #131072	; 0x20000
 80066a2:	d0a8      	beq.n	80065f6 <HAL_RCC_ClockConfig+0xa>
 80066a4:	4e1a      	ldr	r6, [pc, #104]	; (8006710 <HAL_RCC_ClockConfig+0x124>)
 80066a6:	68b3      	ldr	r3, [r6, #8]
 80066a8:	f023 0303 	bic.w	r3, r3, #3
 80066ac:	4313      	orrs	r3, r2
 80066ae:	60b3      	str	r3, [r6, #8]
 80066b0:	f7ff f8c0 	bl	8005834 <HAL_GetTick>
 80066b4:	f241 3888 	movw	r8, #5000	; 0x1388
 80066b8:	4607      	mov	r7, r0
 80066ba:	68b3      	ldr	r3, [r6, #8]
 80066bc:	6862      	ldr	r2, [r4, #4]
 80066be:	f003 030c 	and.w	r3, r3, #12
 80066c2:	ebb3 0f82 	cmp.w	r3, r2, lsl #2
 80066c6:	d0a4      	beq.n	8006612 <HAL_RCC_ClockConfig+0x26>
 80066c8:	f7ff f8b4 	bl	8005834 <HAL_GetTick>
 80066cc:	1bc0      	subs	r0, r0, r7
 80066ce:	4540      	cmp	r0, r8
 80066d0:	d9f3      	bls.n	80066ba <HAL_RCC_ClockConfig+0xce>
 80066d2:	2003      	movs	r0, #3
 80066d4:	e790      	b.n	80065f8 <HAL_RCC_ClockConfig+0xc>
 80066d6:	1e91      	subs	r1, r2, #2
 80066d8:	2901      	cmp	r1, #1
 80066da:	681b      	ldr	r3, [r3, #0]
 80066dc:	d802      	bhi.n	80066e4 <HAL_RCC_ClockConfig+0xf8>
 80066de:	f013 7f00 	tst.w	r3, #33554432	; 0x2000000
 80066e2:	e7de      	b.n	80066a2 <HAL_RCC_ClockConfig+0xb6>
 80066e4:	f013 0f02 	tst.w	r3, #2
 80066e8:	e7db      	b.n	80066a2 <HAL_RCC_ClockConfig+0xb6>
 80066ea:	b2ea      	uxtb	r2, r5
 80066ec:	701a      	strb	r2, [r3, #0]
 80066ee:	681b      	ldr	r3, [r3, #0]
 80066f0:	f003 030f 	and.w	r3, r3, #15
 80066f4:	42ab      	cmp	r3, r5
 80066f6:	f47f af7e 	bne.w	80065f6 <HAL_RCC_ClockConfig+0xa>
 80066fa:	e790      	b.n	800661e <HAL_RCC_ClockConfig+0x32>
 80066fc:	4904      	ldr	r1, [pc, #16]	; (8006710 <HAL_RCC_ClockConfig+0x124>)
 80066fe:	68e0      	ldr	r0, [r4, #12]
 8006700:	688b      	ldr	r3, [r1, #8]
 8006702:	f423 53e0 	bic.w	r3, r3, #7168	; 0x1c00
 8006706:	4303      	orrs	r3, r0
 8006708:	608b      	str	r3, [r1, #8]
 800670a:	e78b      	b.n	8006624 <HAL_RCC_ClockConfig+0x38>
 800670c:	40023c00 	.word	0x40023c00
 8006710:	40023800 	.word	0x40023800
 8006714:	08009664 	.word	0x08009664
 8006718:	2000001c 	.word	0x2000001c
 800671c:	20000024 	.word	0x20000024

08006720 <HAL_RCC_GetPCLK1Freq>:
 8006720:	4b04      	ldr	r3, [pc, #16]	; (8006734 <HAL_RCC_GetPCLK1Freq+0x14>)
 8006722:	4a05      	ldr	r2, [pc, #20]	; (8006738 <HAL_RCC_GetPCLK1Freq+0x18>)
 8006724:	689b      	ldr	r3, [r3, #8]
 8006726:	f3c3 2382 	ubfx	r3, r3, #10, #3
 800672a:	5cd3      	ldrb	r3, [r2, r3]
 800672c:	4a03      	ldr	r2, [pc, #12]	; (800673c <HAL_RCC_GetPCLK1Freq+0x1c>)
 800672e:	6810      	ldr	r0, [r2, #0]
 8006730:	40d8      	lsrs	r0, r3
 8006732:	4770      	bx	lr
 8006734:	40023800 	.word	0x40023800
 8006738:	08009674 	.word	0x08009674
 800673c:	2000001c 	.word	0x2000001c

08006740 <HAL_RCC_GetPCLK2Freq>:
 8006740:	4b04      	ldr	r3, [pc, #16]	; (8006754 <HAL_RCC_GetPCLK2Freq+0x14>)
 8006742:	4a05      	ldr	r2, [pc, #20]	; (8006758 <HAL_RCC_GetPCLK2Freq+0x18>)
 8006744:	689b      	ldr	r3, [r3, #8]
 8006746:	f3c3 3342 	ubfx	r3, r3, #13, #3
 800674a:	5cd3      	ldrb	r3, [r2, r3]
 800674c:	4a03      	ldr	r2, [pc, #12]	; (800675c <HAL_RCC_GetPCLK2Freq+0x1c>)
 800674e:	6810      	ldr	r0, [r2, #0]
 8006750:	40d8      	lsrs	r0, r3
 8006752:	4770      	bx	lr
 8006754:	40023800 	.word	0x40023800
 8006758:	08009674 	.word	0x08009674
 800675c:	2000001c 	.word	0x2000001c

08006760 <HAL_RCCEx_PeriphCLKConfig>:
 8006760:	6803      	ldr	r3, [r0, #0]
 8006762:	f013 0f43 	tst.w	r3, #67	; 0x43
 8006766:	b5f7      	push	{r0, r1, r2, r4, r5, r6, r7, lr}
 8006768:	4604      	mov	r4, r0
 800676a:	f040 808d 	bne.w	8006888 <HAL_RCCEx_PeriphCLKConfig+0x128>
 800676e:	6823      	ldr	r3, [r4, #0]
 8006770:	f013 0f0c 	tst.w	r3, #12
 8006774:	d045      	beq.n	8006802 <HAL_RCCEx_PeriphCLKConfig+0xa2>
 8006776:	4b8b      	ldr	r3, [pc, #556]	; (80069a4 <HAL_RCCEx_PeriphCLKConfig+0x244>)
 8006778:	4d8b      	ldr	r5, [pc, #556]	; (80069a8 <HAL_RCCEx_PeriphCLKConfig+0x248>)
 800677a:	2200      	movs	r2, #0
 800677c:	671a      	str	r2, [r3, #112]	; 0x70
 800677e:	f7ff f859 	bl	8005834 <HAL_GetTick>
 8006782:	4606      	mov	r6, r0
 8006784:	682b      	ldr	r3, [r5, #0]
 8006786:	009f      	lsls	r7, r3, #2
 8006788:	f100 80d0 	bmi.w	800692c <HAL_RCCEx_PeriphCLKConfig+0x1cc>
 800678c:	6821      	ldr	r1, [r4, #0]
 800678e:	074e      	lsls	r6, r1, #29
 8006790:	d515      	bpl.n	80067be <HAL_RCCEx_PeriphCLKConfig+0x5e>
 8006792:	e9d4 0304 	ldrd	r0, r3, [r4, #16]
 8006796:	f8d5 2088 	ldr.w	r2, [r5, #136]	; 0x88
 800679a:	061b      	lsls	r3, r3, #24
 800679c:	f002 42e0 	and.w	r2, r2, #1879048192	; 0x70000000
 80067a0:	ea43 1380 	orr.w	r3, r3, r0, lsl #6
 80067a4:	4313      	orrs	r3, r2
 80067a6:	f8c5 3088 	str.w	r3, [r5, #136]	; 0x88
 80067aa:	f8d5 308c 	ldr.w	r3, [r5, #140]	; 0x8c
 80067ae:	6a22      	ldr	r2, [r4, #32]
 80067b0:	f423 53f8 	bic.w	r3, r3, #7936	; 0x1f00
 80067b4:	3a01      	subs	r2, #1
 80067b6:	ea43 2302 	orr.w	r3, r3, r2, lsl #8
 80067ba:	f8c5 308c 	str.w	r3, [r5, #140]	; 0x8c
 80067be:	070d      	lsls	r5, r1, #28
 80067c0:	d514      	bpl.n	80067ec <HAL_RCCEx_PeriphCLKConfig+0x8c>
 80067c2:	4a79      	ldr	r2, [pc, #484]	; (80069a8 <HAL_RCCEx_PeriphCLKConfig+0x248>)
 80067c4:	69a3      	ldr	r3, [r4, #24]
 80067c6:	f8d2 1088 	ldr.w	r1, [r2, #136]	; 0x88
 80067ca:	6920      	ldr	r0, [r4, #16]
 80067cc:	071b      	lsls	r3, r3, #28
 80067ce:	f001 6170 	and.w	r1, r1, #251658240	; 0xf000000
 80067d2:	ea43 1380 	orr.w	r3, r3, r0, lsl #6
 80067d6:	430b      	orrs	r3, r1
 80067d8:	f8c2 3088 	str.w	r3, [r2, #136]	; 0x88
 80067dc:	f8d2 308c 	ldr.w	r3, [r2, #140]	; 0x8c
 80067e0:	6a61      	ldr	r1, [r4, #36]	; 0x24
 80067e2:	f423 3340 	bic.w	r3, r3, #196608	; 0x30000
 80067e6:	430b      	orrs	r3, r1
 80067e8:	f8c2 308c 	str.w	r3, [r2, #140]	; 0x8c
 80067ec:	4b6d      	ldr	r3, [pc, #436]	; (80069a4 <HAL_RCCEx_PeriphCLKConfig+0x244>)
 80067ee:	4e6e      	ldr	r6, [pc, #440]	; (80069a8 <HAL_RCCEx_PeriphCLKConfig+0x248>)
 80067f0:	2201      	movs	r2, #1
 80067f2:	671a      	str	r2, [r3, #112]	; 0x70
 80067f4:	f7ff f81e 	bl	8005834 <HAL_GetTick>
 80067f8:	4605      	mov	r5, r0
 80067fa:	6833      	ldr	r3, [r6, #0]
 80067fc:	0098      	lsls	r0, r3, #2
 80067fe:	f140 809c 	bpl.w	800693a <HAL_RCCEx_PeriphCLKConfig+0x1da>
 8006802:	6823      	ldr	r3, [r4, #0]
 8006804:	069b      	lsls	r3, r3, #26
 8006806:	d534      	bpl.n	8006872 <HAL_RCCEx_PeriphCLKConfig+0x112>
 8006808:	2300      	movs	r3, #0
 800680a:	9301      	str	r3, [sp, #4]
 800680c:	4b66      	ldr	r3, [pc, #408]	; (80069a8 <HAL_RCCEx_PeriphCLKConfig+0x248>)
 800680e:	4d67      	ldr	r5, [pc, #412]	; (80069ac <HAL_RCCEx_PeriphCLKConfig+0x24c>)
 8006810:	6c1a      	ldr	r2, [r3, #64]	; 0x40
 8006812:	f042 5280 	orr.w	r2, r2, #268435456	; 0x10000000
 8006816:	641a      	str	r2, [r3, #64]	; 0x40
 8006818:	6c1b      	ldr	r3, [r3, #64]	; 0x40
 800681a:	f003 5380 	and.w	r3, r3, #268435456	; 0x10000000
 800681e:	9301      	str	r3, [sp, #4]
 8006820:	9b01      	ldr	r3, [sp, #4]
 8006822:	682b      	ldr	r3, [r5, #0]
 8006824:	f443 7380 	orr.w	r3, r3, #256	; 0x100
 8006828:	602b      	str	r3, [r5, #0]
 800682a:	f7ff f803 	bl	8005834 <HAL_GetTick>
 800682e:	4606      	mov	r6, r0
 8006830:	682b      	ldr	r3, [r5, #0]
 8006832:	05d9      	lsls	r1, r3, #23
 8006834:	f140 8088 	bpl.w	8006948 <HAL_RCCEx_PeriphCLKConfig+0x1e8>
 8006838:	4d5b      	ldr	r5, [pc, #364]	; (80069a8 <HAL_RCCEx_PeriphCLKConfig+0x248>)
 800683a:	6aa2      	ldr	r2, [r4, #40]	; 0x28
 800683c:	6f2b      	ldr	r3, [r5, #112]	; 0x70
 800683e:	f413 7340 	ands.w	r3, r3, #768	; 0x300
 8006842:	f040 8088 	bne.w	8006956 <HAL_RCCEx_PeriphCLKConfig+0x1f6>
 8006846:	6aa3      	ldr	r3, [r4, #40]	; 0x28
 8006848:	f403 7240 	and.w	r2, r3, #768	; 0x300
 800684c:	f5b2 7f40 	cmp.w	r2, #768	; 0x300
 8006850:	4a55      	ldr	r2, [pc, #340]	; (80069a8 <HAL_RCCEx_PeriphCLKConfig+0x248>)
 8006852:	f040 80a3 	bne.w	800699c <HAL_RCCEx_PeriphCLKConfig+0x23c>
 8006856:	6891      	ldr	r1, [r2, #8]
 8006858:	f023 4070 	bic.w	r0, r3, #4026531840	; 0xf0000000
 800685c:	f421 11f8 	bic.w	r1, r1, #2031616	; 0x1f0000
 8006860:	f420 7040 	bic.w	r0, r0, #768	; 0x300
 8006864:	4301      	orrs	r1, r0
 8006866:	6091      	str	r1, [r2, #8]
 8006868:	6f11      	ldr	r1, [r2, #112]	; 0x70
 800686a:	f3c3 030b 	ubfx	r3, r3, #0, #12
 800686e:	430b      	orrs	r3, r1
 8006870:	6713      	str	r3, [r2, #112]	; 0x70
 8006872:	6820      	ldr	r0, [r4, #0]
 8006874:	f010 0010 	ands.w	r0, r0, #16
 8006878:	bf1f      	itttt	ne
 800687a:	4b4d      	ldrne	r3, [pc, #308]	; (80069b0 <HAL_RCCEx_PeriphCLKConfig+0x250>)
 800687c:	f894 202c 	ldrbne.w	r2, [r4, #44]	; 0x2c
 8006880:	f8c3 21e0 	strne.w	r2, [r3, #480]	; 0x1e0
 8006884:	2000      	movne	r0, #0
 8006886:	e04f      	b.n	8006928 <HAL_RCCEx_PeriphCLKConfig+0x1c8>
 8006888:	4b46      	ldr	r3, [pc, #280]	; (80069a4 <HAL_RCCEx_PeriphCLKConfig+0x244>)
 800688a:	4e47      	ldr	r6, [pc, #284]	; (80069a8 <HAL_RCCEx_PeriphCLKConfig+0x248>)
 800688c:	2200      	movs	r2, #0
 800688e:	669a      	str	r2, [r3, #104]	; 0x68
 8006890:	f7fe ffd0 	bl	8005834 <HAL_GetTick>
 8006894:	4605      	mov	r5, r0
 8006896:	6833      	ldr	r3, [r6, #0]
 8006898:	011f      	lsls	r7, r3, #4
 800689a:	d43f      	bmi.n	800691c <HAL_RCCEx_PeriphCLKConfig+0x1bc>
 800689c:	6821      	ldr	r1, [r4, #0]
 800689e:	07cd      	lsls	r5, r1, #31
 80068a0:	bf41      	itttt	mi
 80068a2:	e9d4 2301 	ldrdmi	r2, r3, [r4, #4]
 80068a6:	071b      	lslmi	r3, r3, #28
 80068a8:	ea43 1382 	orrmi.w	r3, r3, r2, lsl #6
 80068ac:	f8c6 3084 	strmi.w	r3, [r6, #132]	; 0x84
 80068b0:	0788      	lsls	r0, r1, #30
 80068b2:	d515      	bpl.n	80068e0 <HAL_RCCEx_PeriphCLKConfig+0x180>
 80068b4:	4a3c      	ldr	r2, [pc, #240]	; (80069a8 <HAL_RCCEx_PeriphCLKConfig+0x248>)
 80068b6:	68e3      	ldr	r3, [r4, #12]
 80068b8:	f8d2 0084 	ldr.w	r0, [r2, #132]	; 0x84
 80068bc:	6865      	ldr	r5, [r4, #4]
 80068be:	061b      	lsls	r3, r3, #24
 80068c0:	f000 40e0 	and.w	r0, r0, #1879048192	; 0x70000000
 80068c4:	ea43 1385 	orr.w	r3, r3, r5, lsl #6
 80068c8:	4303      	orrs	r3, r0
 80068ca:	f8c2 3084 	str.w	r3, [r2, #132]	; 0x84
 80068ce:	f8d2 008c 	ldr.w	r0, [r2, #140]	; 0x8c
 80068d2:	69e3      	ldr	r3, [r4, #28]
 80068d4:	f020 001f 	bic.w	r0, r0, #31
 80068d8:	3b01      	subs	r3, #1
 80068da:	4303      	orrs	r3, r0
 80068dc:	f8c2 308c 	str.w	r3, [r2, #140]	; 0x8c
 80068e0:	0649      	lsls	r1, r1, #25
 80068e2:	d50a      	bpl.n	80068fa <HAL_RCCEx_PeriphCLKConfig+0x19a>
 80068e4:	68e3      	ldr	r3, [r4, #12]
 80068e6:	6862      	ldr	r2, [r4, #4]
 80068e8:	061b      	lsls	r3, r3, #24
 80068ea:	ea43 1382 	orr.w	r3, r3, r2, lsl #6
 80068ee:	68a2      	ldr	r2, [r4, #8]
 80068f0:	ea43 7302 	orr.w	r3, r3, r2, lsl #28
 80068f4:	4a2c      	ldr	r2, [pc, #176]	; (80069a8 <HAL_RCCEx_PeriphCLKConfig+0x248>)
 80068f6:	f8c2 3084 	str.w	r3, [r2, #132]	; 0x84
 80068fa:	4b2a      	ldr	r3, [pc, #168]	; (80069a4 <HAL_RCCEx_PeriphCLKConfig+0x244>)
 80068fc:	4e2a      	ldr	r6, [pc, #168]	; (80069a8 <HAL_RCCEx_PeriphCLKConfig+0x248>)
 80068fe:	2201      	movs	r2, #1
 8006900:	669a      	str	r2, [r3, #104]	; 0x68
 8006902:	f7fe ff97 	bl	8005834 <HAL_GetTick>
 8006906:	4605      	mov	r5, r0
 8006908:	6833      	ldr	r3, [r6, #0]
 800690a:	011a      	lsls	r2, r3, #4
 800690c:	f53f af2f 	bmi.w	800676e <HAL_RCCEx_PeriphCLKConfig+0xe>
 8006910:	f7fe ff90 	bl	8005834 <HAL_GetTick>
 8006914:	1b40      	subs	r0, r0, r5
 8006916:	2802      	cmp	r0, #2
 8006918:	d9f6      	bls.n	8006908 <HAL_RCCEx_PeriphCLKConfig+0x1a8>
 800691a:	e004      	b.n	8006926 <HAL_RCCEx_PeriphCLKConfig+0x1c6>
 800691c:	f7fe ff8a 	bl	8005834 <HAL_GetTick>
 8006920:	1b40      	subs	r0, r0, r5
 8006922:	2802      	cmp	r0, #2
 8006924:	d9b7      	bls.n	8006896 <HAL_RCCEx_PeriphCLKConfig+0x136>
 8006926:	2003      	movs	r0, #3
 8006928:	b003      	add	sp, #12
 800692a:	bdf0      	pop	{r4, r5, r6, r7, pc}
 800692c:	f7fe ff82 	bl	8005834 <HAL_GetTick>
 8006930:	1b80      	subs	r0, r0, r6
 8006932:	2802      	cmp	r0, #2
 8006934:	f67f af26 	bls.w	8006784 <HAL_RCCEx_PeriphCLKConfig+0x24>
 8006938:	e7f5      	b.n	8006926 <HAL_RCCEx_PeriphCLKConfig+0x1c6>
 800693a:	f7fe ff7b 	bl	8005834 <HAL_GetTick>
 800693e:	1b40      	subs	r0, r0, r5
 8006940:	2802      	cmp	r0, #2
 8006942:	f67f af5a 	bls.w	80067fa <HAL_RCCEx_PeriphCLKConfig+0x9a>
 8006946:	e7ee      	b.n	8006926 <HAL_RCCEx_PeriphCLKConfig+0x1c6>
 8006948:	f7fe ff74 	bl	8005834 <HAL_GetTick>
 800694c:	1b80      	subs	r0, r0, r6
 800694e:	2802      	cmp	r0, #2
 8006950:	f67f af6e 	bls.w	8006830 <HAL_RCCEx_PeriphCLKConfig+0xd0>
 8006954:	e7e7      	b.n	8006926 <HAL_RCCEx_PeriphCLKConfig+0x1c6>
 8006956:	f402 7240 	and.w	r2, r2, #768	; 0x300
 800695a:	4293      	cmp	r3, r2
 800695c:	f43f af73 	beq.w	8006846 <HAL_RCCEx_PeriphCLKConfig+0xe6>
 8006960:	6f2b      	ldr	r3, [r5, #112]	; 0x70
 8006962:	4a10      	ldr	r2, [pc, #64]	; (80069a4 <HAL_RCCEx_PeriphCLKConfig+0x244>)
 8006964:	2101      	movs	r1, #1
 8006966:	f8c2 1e40 	str.w	r1, [r2, #3648]	; 0xe40
 800696a:	f423 7340 	bic.w	r3, r3, #768	; 0x300
 800696e:	2100      	movs	r1, #0
 8006970:	f8c2 1e40 	str.w	r1, [r2, #3648]	; 0xe40
 8006974:	672b      	str	r3, [r5, #112]	; 0x70
 8006976:	6f2b      	ldr	r3, [r5, #112]	; 0x70
 8006978:	07da      	lsls	r2, r3, #31
 800697a:	f57f af64 	bpl.w	8006846 <HAL_RCCEx_PeriphCLKConfig+0xe6>
 800697e:	f7fe ff59 	bl	8005834 <HAL_GetTick>
 8006982:	f241 3788 	movw	r7, #5000	; 0x1388
 8006986:	4606      	mov	r6, r0
 8006988:	6f2b      	ldr	r3, [r5, #112]	; 0x70
 800698a:	079b      	lsls	r3, r3, #30
 800698c:	f53f af5b 	bmi.w	8006846 <HAL_RCCEx_PeriphCLKConfig+0xe6>
 8006990:	f7fe ff50 	bl	8005834 <HAL_GetTick>
 8006994:	1b80      	subs	r0, r0, r6
 8006996:	42b8      	cmp	r0, r7
 8006998:	d9f6      	bls.n	8006988 <HAL_RCCEx_PeriphCLKConfig+0x228>
 800699a:	e7c4      	b.n	8006926 <HAL_RCCEx_PeriphCLKConfig+0x1c6>
 800699c:	6891      	ldr	r1, [r2, #8]
 800699e:	f421 11f8 	bic.w	r1, r1, #2031616	; 0x1f0000
 80069a2:	e760      	b.n	8006866 <HAL_RCCEx_PeriphCLKConfig+0x106>
 80069a4:	42470000 	.word	0x42470000
 80069a8:	40023800 	.word	0x40023800
 80069ac:	40007000 	.word	0x40007000
 80069b0:	42471000 	.word	0x42471000

080069b4 <HAL_SDRAM_Init>:
 80069b4:	b538      	push	{r3, r4, r5, lr}
 80069b6:	460d      	mov	r5, r1
 80069b8:	4604      	mov	r4, r0
 80069ba:	b1c8      	cbz	r0, 80069f0 <HAL_SDRAM_Init+0x3c>
 80069bc:	f890 302c 	ldrb.w	r3, [r0, #44]	; 0x2c
 80069c0:	f003 02ff 	and.w	r2, r3, #255	; 0xff
 80069c4:	b91b      	cbnz	r3, 80069ce <HAL_SDRAM_Init+0x1a>
 80069c6:	f880 202d 	strb.w	r2, [r0, #45]	; 0x2d
 80069ca:	f7fd fcbd 	bl	8004348 <HAL_SDRAM_MspInit>
 80069ce:	2302      	movs	r3, #2
 80069d0:	f884 302c 	strb.w	r3, [r4, #44]	; 0x2c
 80069d4:	1d21      	adds	r1, r4, #4
 80069d6:	6820      	ldr	r0, [r4, #0]
 80069d8:	f000 ff02 	bl	80077e0 <FMC_SDRAM_Init>
 80069dc:	6862      	ldr	r2, [r4, #4]
 80069de:	6820      	ldr	r0, [r4, #0]
 80069e0:	4629      	mov	r1, r5
 80069e2:	f000 ff35 	bl	8007850 <FMC_SDRAM_Timing_Init>
 80069e6:	2301      	movs	r3, #1
 80069e8:	f884 302c 	strb.w	r3, [r4, #44]	; 0x2c
 80069ec:	2000      	movs	r0, #0
 80069ee:	bd38      	pop	{r3, r4, r5, pc}
 80069f0:	2001      	movs	r0, #1
 80069f2:	e7fc      	b.n	80069ee <HAL_SDRAM_Init+0x3a>

080069f4 <HAL_SDRAM_SendCommand>:
 80069f4:	b570      	push	{r4, r5, r6, lr}
 80069f6:	f890 302c 	ldrb.w	r3, [r0, #44]	; 0x2c
 80069fa:	2b02      	cmp	r3, #2
 80069fc:	4605      	mov	r5, r0
 80069fe:	460e      	mov	r6, r1
 8006a00:	b2d8      	uxtb	r0, r3
 8006a02:	d012      	beq.n	8006a2a <HAL_SDRAM_SendCommand+0x36>
 8006a04:	f000 04fb 	and.w	r4, r0, #251	; 0xfb
 8006a08:	2c01      	cmp	r4, #1
 8006a0a:	d10f      	bne.n	8006a2c <HAL_SDRAM_SendCommand+0x38>
 8006a0c:	2302      	movs	r3, #2
 8006a0e:	f885 302c 	strb.w	r3, [r5, #44]	; 0x2c
 8006a12:	6828      	ldr	r0, [r5, #0]
 8006a14:	f000 ff52 	bl	80078bc <FMC_SDRAM_SendCommand>
 8006a18:	6833      	ldr	r3, [r6, #0]
 8006a1a:	2b02      	cmp	r3, #2
 8006a1c:	bf06      	itte	eq
 8006a1e:	2305      	moveq	r3, #5
 8006a20:	f885 302c 	strbeq.w	r3, [r5, #44]	; 0x2c
 8006a24:	f885 402c 	strbne.w	r4, [r5, #44]	; 0x2c
 8006a28:	2000      	movs	r0, #0
 8006a2a:	bd70      	pop	{r4, r5, r6, pc}
 8006a2c:	2001      	movs	r0, #1
 8006a2e:	e7fc      	b.n	8006a2a <HAL_SDRAM_SendCommand+0x36>

08006a30 <HAL_SPI_Init>:
 8006a30:	b510      	push	{r4, lr}
 8006a32:	4604      	mov	r4, r0
 8006a34:	2800      	cmp	r0, #0
 8006a36:	d055      	beq.n	8006ae4 <HAL_SPI_Init+0xb4>
 8006a38:	6a43      	ldr	r3, [r0, #36]	; 0x24
 8006a3a:	2b00      	cmp	r3, #0
 8006a3c:	d14e      	bne.n	8006adc <HAL_SPI_Init+0xac>
 8006a3e:	6842      	ldr	r2, [r0, #4]
 8006a40:	f5b2 7f82 	cmp.w	r2, #260	; 0x104
 8006a44:	d000      	beq.n	8006a48 <HAL_SPI_Init+0x18>
 8006a46:	61c3      	str	r3, [r0, #28]
 8006a48:	2300      	movs	r3, #0
 8006a4a:	62a3      	str	r3, [r4, #40]	; 0x28
 8006a4c:	f894 3051 	ldrb.w	r3, [r4, #81]	; 0x51
 8006a50:	f003 02ff 	and.w	r2, r3, #255	; 0xff
 8006a54:	b923      	cbnz	r3, 8006a60 <HAL_SPI_Init+0x30>
 8006a56:	f884 2050 	strb.w	r2, [r4, #80]	; 0x50
 8006a5a:	4620      	mov	r0, r4
 8006a5c:	f7fd fba2 	bl	80041a4 <HAL_SPI_MspInit>
 8006a60:	6821      	ldr	r1, [r4, #0]
 8006a62:	68a0      	ldr	r0, [r4, #8]
 8006a64:	69a2      	ldr	r2, [r4, #24]
 8006a66:	2302      	movs	r3, #2
 8006a68:	f884 3051 	strb.w	r3, [r4, #81]	; 0x51
 8006a6c:	680b      	ldr	r3, [r1, #0]
 8006a6e:	f023 0340 	bic.w	r3, r3, #64	; 0x40
 8006a72:	600b      	str	r3, [r1, #0]
 8006a74:	6863      	ldr	r3, [r4, #4]
 8006a76:	f400 4004 	and.w	r0, r0, #33792	; 0x8400
 8006a7a:	f403 7382 	and.w	r3, r3, #260	; 0x104
 8006a7e:	4303      	orrs	r3, r0
 8006a80:	68e0      	ldr	r0, [r4, #12]
 8006a82:	f400 6000 	and.w	r0, r0, #2048	; 0x800
 8006a86:	4303      	orrs	r3, r0
 8006a88:	6920      	ldr	r0, [r4, #16]
 8006a8a:	f000 0002 	and.w	r0, r0, #2
 8006a8e:	4303      	orrs	r3, r0
 8006a90:	6960      	ldr	r0, [r4, #20]
 8006a92:	f000 0001 	and.w	r0, r0, #1
 8006a96:	4303      	orrs	r3, r0
 8006a98:	f402 7000 	and.w	r0, r2, #512	; 0x200
 8006a9c:	4303      	orrs	r3, r0
 8006a9e:	69e0      	ldr	r0, [r4, #28]
 8006aa0:	f000 0038 	and.w	r0, r0, #56	; 0x38
 8006aa4:	4303      	orrs	r3, r0
 8006aa6:	6a20      	ldr	r0, [r4, #32]
 8006aa8:	f000 0080 	and.w	r0, r0, #128	; 0x80
 8006aac:	4303      	orrs	r3, r0
 8006aae:	6aa0      	ldr	r0, [r4, #40]	; 0x28
 8006ab0:	f400 5000 	and.w	r0, r0, #8192	; 0x2000
 8006ab4:	4303      	orrs	r3, r0
 8006ab6:	600b      	str	r3, [r1, #0]
 8006ab8:	6a63      	ldr	r3, [r4, #36]	; 0x24
 8006aba:	0c12      	lsrs	r2, r2, #16
 8006abc:	f003 0310 	and.w	r3, r3, #16
 8006ac0:	f002 0204 	and.w	r2, r2, #4
 8006ac4:	431a      	orrs	r2, r3
 8006ac6:	604a      	str	r2, [r1, #4]
 8006ac8:	69cb      	ldr	r3, [r1, #28]
 8006aca:	f423 6300 	bic.w	r3, r3, #2048	; 0x800
 8006ace:	61cb      	str	r3, [r1, #28]
 8006ad0:	2000      	movs	r0, #0
 8006ad2:	2301      	movs	r3, #1
 8006ad4:	6560      	str	r0, [r4, #84]	; 0x54
 8006ad6:	f884 3051 	strb.w	r3, [r4, #81]	; 0x51
 8006ada:	bd10      	pop	{r4, pc}
 8006adc:	2300      	movs	r3, #0
 8006ade:	e9c0 3304 	strd	r3, r3, [r0, #16]
 8006ae2:	e7b1      	b.n	8006a48 <HAL_SPI_Init+0x18>
 8006ae4:	2001      	movs	r0, #1
 8006ae6:	e7f8      	b.n	8006ada <HAL_SPI_Init+0xaa>

08006ae8 <TIM_OC1_SetConfig>:
 8006ae8:	6a03      	ldr	r3, [r0, #32]
 8006aea:	f023 0301 	bic.w	r3, r3, #1
 8006aee:	6203      	str	r3, [r0, #32]
 8006af0:	6a03      	ldr	r3, [r0, #32]
 8006af2:	b570      	push	{r4, r5, r6, lr}
 8006af4:	6844      	ldr	r4, [r0, #4]
 8006af6:	6982      	ldr	r2, [r0, #24]
 8006af8:	680d      	ldr	r5, [r1, #0]
 8006afa:	f022 0273 	bic.w	r2, r2, #115	; 0x73
 8006afe:	432a      	orrs	r2, r5
 8006b00:	688d      	ldr	r5, [r1, #8]
 8006b02:	f023 0302 	bic.w	r3, r3, #2
 8006b06:	432b      	orrs	r3, r5
 8006b08:	4d0e      	ldr	r5, [pc, #56]	; (8006b44 <TIM_OC1_SetConfig+0x5c>)
 8006b0a:	42a8      	cmp	r0, r5
 8006b0c:	d002      	beq.n	8006b14 <TIM_OC1_SetConfig+0x2c>
 8006b0e:	4e0e      	ldr	r6, [pc, #56]	; (8006b48 <TIM_OC1_SetConfig+0x60>)
 8006b10:	42b0      	cmp	r0, r6
 8006b12:	d110      	bne.n	8006b36 <TIM_OC1_SetConfig+0x4e>
 8006b14:	68ce      	ldr	r6, [r1, #12]
 8006b16:	f023 0308 	bic.w	r3, r3, #8
 8006b1a:	4333      	orrs	r3, r6
 8006b1c:	42a8      	cmp	r0, r5
 8006b1e:	f023 0304 	bic.w	r3, r3, #4
 8006b22:	d002      	beq.n	8006b2a <TIM_OC1_SetConfig+0x42>
 8006b24:	4d08      	ldr	r5, [pc, #32]	; (8006b48 <TIM_OC1_SetConfig+0x60>)
 8006b26:	42a8      	cmp	r0, r5
 8006b28:	d105      	bne.n	8006b36 <TIM_OC1_SetConfig+0x4e>
 8006b2a:	e9d1 5605 	ldrd	r5, r6, [r1, #20]
 8006b2e:	f424 7440 	bic.w	r4, r4, #768	; 0x300
 8006b32:	4335      	orrs	r5, r6
 8006b34:	432c      	orrs	r4, r5
 8006b36:	6044      	str	r4, [r0, #4]
 8006b38:	6182      	str	r2, [r0, #24]
 8006b3a:	684a      	ldr	r2, [r1, #4]
 8006b3c:	6342      	str	r2, [r0, #52]	; 0x34
 8006b3e:	6203      	str	r3, [r0, #32]
 8006b40:	bd70      	pop	{r4, r5, r6, pc}
 8006b42:	bf00      	nop
 8006b44:	40010000 	.word	0x40010000
 8006b48:	40010400 	.word	0x40010400

08006b4c <TIM_OC3_SetConfig>:
 8006b4c:	6a03      	ldr	r3, [r0, #32]
 8006b4e:	f423 7380 	bic.w	r3, r3, #256	; 0x100
 8006b52:	6203      	str	r3, [r0, #32]
 8006b54:	6a03      	ldr	r3, [r0, #32]
 8006b56:	b570      	push	{r4, r5, r6, lr}
 8006b58:	6844      	ldr	r4, [r0, #4]
 8006b5a:	69c2      	ldr	r2, [r0, #28]
 8006b5c:	680d      	ldr	r5, [r1, #0]
 8006b5e:	f022 0273 	bic.w	r2, r2, #115	; 0x73
 8006b62:	432a      	orrs	r2, r5
 8006b64:	688d      	ldr	r5, [r1, #8]
 8006b66:	f423 7300 	bic.w	r3, r3, #512	; 0x200
 8006b6a:	ea43 2305 	orr.w	r3, r3, r5, lsl #8
 8006b6e:	4d11      	ldr	r5, [pc, #68]	; (8006bb4 <TIM_OC3_SetConfig+0x68>)
 8006b70:	42a8      	cmp	r0, r5
 8006b72:	d003      	beq.n	8006b7c <TIM_OC3_SetConfig+0x30>
 8006b74:	f505 6580 	add.w	r5, r5, #1024	; 0x400
 8006b78:	42a8      	cmp	r0, r5
 8006b7a:	d114      	bne.n	8006ba6 <TIM_OC3_SetConfig+0x5a>
 8006b7c:	68cd      	ldr	r5, [r1, #12]
 8006b7e:	f423 6300 	bic.w	r3, r3, #2048	; 0x800
 8006b82:	ea43 2305 	orr.w	r3, r3, r5, lsl #8
 8006b86:	4d0b      	ldr	r5, [pc, #44]	; (8006bb4 <TIM_OC3_SetConfig+0x68>)
 8006b88:	42a8      	cmp	r0, r5
 8006b8a:	f423 6380 	bic.w	r3, r3, #1024	; 0x400
 8006b8e:	d003      	beq.n	8006b98 <TIM_OC3_SetConfig+0x4c>
 8006b90:	f505 6580 	add.w	r5, r5, #1024	; 0x400
 8006b94:	42a8      	cmp	r0, r5
 8006b96:	d106      	bne.n	8006ba6 <TIM_OC3_SetConfig+0x5a>
 8006b98:	e9d1 5605 	ldrd	r5, r6, [r1, #20]
 8006b9c:	f424 5440 	bic.w	r4, r4, #12288	; 0x3000
 8006ba0:	4335      	orrs	r5, r6
 8006ba2:	ea44 1405 	orr.w	r4, r4, r5, lsl #4
 8006ba6:	6044      	str	r4, [r0, #4]
 8006ba8:	61c2      	str	r2, [r0, #28]
 8006baa:	684a      	ldr	r2, [r1, #4]
 8006bac:	63c2      	str	r2, [r0, #60]	; 0x3c
 8006bae:	6203      	str	r3, [r0, #32]
 8006bb0:	bd70      	pop	{r4, r5, r6, pc}
 8006bb2:	bf00      	nop
 8006bb4:	40010000 	.word	0x40010000

08006bb8 <TIM_OC4_SetConfig>:
 8006bb8:	6a03      	ldr	r3, [r0, #32]
 8006bba:	f423 5380 	bic.w	r3, r3, #4096	; 0x1000
 8006bbe:	6203      	str	r3, [r0, #32]
 8006bc0:	6a03      	ldr	r3, [r0, #32]
 8006bc2:	b530      	push	{r4, r5, lr}
 8006bc4:	6844      	ldr	r4, [r0, #4]
 8006bc6:	69c2      	ldr	r2, [r0, #28]
 8006bc8:	680d      	ldr	r5, [r1, #0]
 8006bca:	f422 42e6 	bic.w	r2, r2, #29440	; 0x7300
 8006bce:	ea42 2205 	orr.w	r2, r2, r5, lsl #8
 8006bd2:	688d      	ldr	r5, [r1, #8]
 8006bd4:	f423 5300 	bic.w	r3, r3, #8192	; 0x2000
 8006bd8:	ea43 3305 	orr.w	r3, r3, r5, lsl #12
 8006bdc:	4d08      	ldr	r5, [pc, #32]	; (8006c00 <TIM_OC4_SetConfig+0x48>)
 8006bde:	42a8      	cmp	r0, r5
 8006be0:	d003      	beq.n	8006bea <TIM_OC4_SetConfig+0x32>
 8006be2:	f505 6580 	add.w	r5, r5, #1024	; 0x400
 8006be6:	42a8      	cmp	r0, r5
 8006be8:	d104      	bne.n	8006bf4 <TIM_OC4_SetConfig+0x3c>
 8006bea:	694d      	ldr	r5, [r1, #20]
 8006bec:	f424 4480 	bic.w	r4, r4, #16384	; 0x4000
 8006bf0:	ea44 1485 	orr.w	r4, r4, r5, lsl #6
 8006bf4:	6044      	str	r4, [r0, #4]
 8006bf6:	61c2      	str	r2, [r0, #28]
 8006bf8:	684a      	ldr	r2, [r1, #4]
 8006bfa:	6402      	str	r2, [r0, #64]	; 0x40
 8006bfc:	6203      	str	r3, [r0, #32]
 8006bfe:	bd30      	pop	{r4, r5, pc}
 8006c00:	40010000 	.word	0x40010000

08006c04 <HAL_TIM_Base_Start_IT>:
 8006c04:	f890 303d 	ldrb.w	r3, [r0, #61]	; 0x3d
 8006c08:	2b01      	cmp	r3, #1
 8006c0a:	d130      	bne.n	8006c6e <HAL_TIM_Base_Start_IT+0x6a>
 8006c0c:	2302      	movs	r3, #2
 8006c0e:	f880 303d 	strb.w	r3, [r0, #61]	; 0x3d
 8006c12:	6803      	ldr	r3, [r0, #0]
 8006c14:	68da      	ldr	r2, [r3, #12]
 8006c16:	f042 0201 	orr.w	r2, r2, #1
 8006c1a:	60da      	str	r2, [r3, #12]
 8006c1c:	4a15      	ldr	r2, [pc, #84]	; (8006c74 <HAL_TIM_Base_Start_IT+0x70>)
 8006c1e:	4293      	cmp	r3, r2
 8006c20:	d01a      	beq.n	8006c58 <HAL_TIM_Base_Start_IT+0x54>
 8006c22:	f1b3 4f80 	cmp.w	r3, #1073741824	; 0x40000000
 8006c26:	d017      	beq.n	8006c58 <HAL_TIM_Base_Start_IT+0x54>
 8006c28:	f5a2 427c 	sub.w	r2, r2, #64512	; 0xfc00
 8006c2c:	4293      	cmp	r3, r2
 8006c2e:	d013      	beq.n	8006c58 <HAL_TIM_Base_Start_IT+0x54>
 8006c30:	f502 6280 	add.w	r2, r2, #1024	; 0x400
 8006c34:	4293      	cmp	r3, r2
 8006c36:	d00f      	beq.n	8006c58 <HAL_TIM_Base_Start_IT+0x54>
 8006c38:	f502 6280 	add.w	r2, r2, #1024	; 0x400
 8006c3c:	4293      	cmp	r3, r2
 8006c3e:	d00b      	beq.n	8006c58 <HAL_TIM_Base_Start_IT+0x54>
 8006c40:	f502 4278 	add.w	r2, r2, #63488	; 0xf800
 8006c44:	4293      	cmp	r3, r2
 8006c46:	d007      	beq.n	8006c58 <HAL_TIM_Base_Start_IT+0x54>
 8006c48:	f502 5270 	add.w	r2, r2, #15360	; 0x3c00
 8006c4c:	4293      	cmp	r3, r2
 8006c4e:	d003      	beq.n	8006c58 <HAL_TIM_Base_Start_IT+0x54>
 8006c50:	f5a2 3294 	sub.w	r2, r2, #75776	; 0x12800
 8006c54:	4293      	cmp	r3, r2
 8006c56:	d104      	bne.n	8006c62 <HAL_TIM_Base_Start_IT+0x5e>
 8006c58:	689a      	ldr	r2, [r3, #8]
 8006c5a:	f002 0207 	and.w	r2, r2, #7
 8006c5e:	2a06      	cmp	r2, #6
 8006c60:	d003      	beq.n	8006c6a <HAL_TIM_Base_Start_IT+0x66>
 8006c62:	681a      	ldr	r2, [r3, #0]
 8006c64:	f042 0201 	orr.w	r2, r2, #1
 8006c68:	601a      	str	r2, [r3, #0]
 8006c6a:	2000      	movs	r0, #0
 8006c6c:	4770      	bx	lr
 8006c6e:	2001      	movs	r0, #1
 8006c70:	4770      	bx	lr
 8006c72:	bf00      	nop
 8006c74:	40010000 	.word	0x40010000

08006c78 <HAL_TIM_PWM_MspInit>:
 8006c78:	4770      	bx	lr

08006c7a <HAL_TIM_PeriodElapsedCallback>:
 8006c7a:	4770      	bx	lr

08006c7c <HAL_TIM_OC_DelayElapsedCallback>:
 8006c7c:	4770      	bx	lr

08006c7e <HAL_TIM_IC_CaptureCallback>:
 8006c7e:	4770      	bx	lr

08006c80 <HAL_TIM_PWM_PulseFinishedCallback>:
 8006c80:	4770      	bx	lr

08006c82 <HAL_TIM_TriggerCallback>:
 8006c82:	4770      	bx	lr

08006c84 <HAL_TIM_IRQHandler>:
 8006c84:	6803      	ldr	r3, [r0, #0]
 8006c86:	691a      	ldr	r2, [r3, #16]
 8006c88:	0791      	lsls	r1, r2, #30
 8006c8a:	b510      	push	{r4, lr}
 8006c8c:	4604      	mov	r4, r0
 8006c8e:	d50e      	bpl.n	8006cae <HAL_TIM_IRQHandler+0x2a>
 8006c90:	68da      	ldr	r2, [r3, #12]
 8006c92:	0792      	lsls	r2, r2, #30
 8006c94:	d50b      	bpl.n	8006cae <HAL_TIM_IRQHandler+0x2a>
 8006c96:	f06f 0202 	mvn.w	r2, #2
 8006c9a:	611a      	str	r2, [r3, #16]
 8006c9c:	2201      	movs	r2, #1
 8006c9e:	7702      	strb	r2, [r0, #28]
 8006ca0:	699b      	ldr	r3, [r3, #24]
 8006ca2:	079b      	lsls	r3, r3, #30
 8006ca4:	d077      	beq.n	8006d96 <HAL_TIM_IRQHandler+0x112>
 8006ca6:	f7ff ffea 	bl	8006c7e <HAL_TIM_IC_CaptureCallback>
 8006caa:	2300      	movs	r3, #0
 8006cac:	7723      	strb	r3, [r4, #28]
 8006cae:	6823      	ldr	r3, [r4, #0]
 8006cb0:	691a      	ldr	r2, [r3, #16]
 8006cb2:	0750      	lsls	r0, r2, #29
 8006cb4:	d510      	bpl.n	8006cd8 <HAL_TIM_IRQHandler+0x54>
 8006cb6:	68da      	ldr	r2, [r3, #12]
 8006cb8:	0751      	lsls	r1, r2, #29
 8006cba:	d50d      	bpl.n	8006cd8 <HAL_TIM_IRQHandler+0x54>
 8006cbc:	f06f 0204 	mvn.w	r2, #4
 8006cc0:	611a      	str	r2, [r3, #16]
 8006cc2:	2202      	movs	r2, #2
 8006cc4:	7722      	strb	r2, [r4, #28]
 8006cc6:	699b      	ldr	r3, [r3, #24]
 8006cc8:	f413 7f40 	tst.w	r3, #768	; 0x300
 8006ccc:	4620      	mov	r0, r4
 8006cce:	d068      	beq.n	8006da2 <HAL_TIM_IRQHandler+0x11e>
 8006cd0:	f7ff ffd5 	bl	8006c7e <HAL_TIM_IC_CaptureCallback>
 8006cd4:	2300      	movs	r3, #0
 8006cd6:	7723      	strb	r3, [r4, #28]
 8006cd8:	6823      	ldr	r3, [r4, #0]
 8006cda:	691a      	ldr	r2, [r3, #16]
 8006cdc:	0712      	lsls	r2, r2, #28
 8006cde:	d50f      	bpl.n	8006d00 <HAL_TIM_IRQHandler+0x7c>
 8006ce0:	68da      	ldr	r2, [r3, #12]
 8006ce2:	0710      	lsls	r0, r2, #28
 8006ce4:	d50c      	bpl.n	8006d00 <HAL_TIM_IRQHandler+0x7c>
 8006ce6:	f06f 0208 	mvn.w	r2, #8
 8006cea:	611a      	str	r2, [r3, #16]
 8006cec:	2204      	movs	r2, #4
 8006cee:	7722      	strb	r2, [r4, #28]
 8006cf0:	69db      	ldr	r3, [r3, #28]
 8006cf2:	0799      	lsls	r1, r3, #30
 8006cf4:	4620      	mov	r0, r4
 8006cf6:	d05a      	beq.n	8006dae <HAL_TIM_IRQHandler+0x12a>
 8006cf8:	f7ff ffc1 	bl	8006c7e <HAL_TIM_IC_CaptureCallback>
 8006cfc:	2300      	movs	r3, #0
 8006cfe:	7723      	strb	r3, [r4, #28]
 8006d00:	6823      	ldr	r3, [r4, #0]
 8006d02:	691a      	ldr	r2, [r3, #16]
 8006d04:	06d2      	lsls	r2, r2, #27
 8006d06:	d510      	bpl.n	8006d2a <HAL_TIM_IRQHandler+0xa6>
 8006d08:	68da      	ldr	r2, [r3, #12]
 8006d0a:	06d0      	lsls	r0, r2, #27
 8006d0c:	d50d      	bpl.n	8006d2a <HAL_TIM_IRQHandler+0xa6>
 8006d0e:	f06f 0210 	mvn.w	r2, #16
 8006d12:	611a      	str	r2, [r3, #16]
 8006d14:	2208      	movs	r2, #8
 8006d16:	7722      	strb	r2, [r4, #28]
 8006d18:	69db      	ldr	r3, [r3, #28]
 8006d1a:	f413 7f40 	tst.w	r3, #768	; 0x300
 8006d1e:	4620      	mov	r0, r4
 8006d20:	d04b      	beq.n	8006dba <HAL_TIM_IRQHandler+0x136>
 8006d22:	f7ff ffac 	bl	8006c7e <HAL_TIM_IC_CaptureCallback>
 8006d26:	2300      	movs	r3, #0
 8006d28:	7723      	strb	r3, [r4, #28]
 8006d2a:	6823      	ldr	r3, [r4, #0]
 8006d2c:	691a      	ldr	r2, [r3, #16]
 8006d2e:	07d1      	lsls	r1, r2, #31
 8006d30:	d508      	bpl.n	8006d44 <HAL_TIM_IRQHandler+0xc0>
 8006d32:	68da      	ldr	r2, [r3, #12]
 8006d34:	07d2      	lsls	r2, r2, #31
 8006d36:	d505      	bpl.n	8006d44 <HAL_TIM_IRQHandler+0xc0>
 8006d38:	f06f 0201 	mvn.w	r2, #1
 8006d3c:	611a      	str	r2, [r3, #16]
 8006d3e:	4620      	mov	r0, r4
 8006d40:	f7ff ff9b 	bl	8006c7a <HAL_TIM_PeriodElapsedCallback>
 8006d44:	6823      	ldr	r3, [r4, #0]
 8006d46:	691a      	ldr	r2, [r3, #16]
 8006d48:	0610      	lsls	r0, r2, #24
 8006d4a:	d508      	bpl.n	8006d5e <HAL_TIM_IRQHandler+0xda>
 8006d4c:	68da      	ldr	r2, [r3, #12]
 8006d4e:	0611      	lsls	r1, r2, #24
 8006d50:	d505      	bpl.n	8006d5e <HAL_TIM_IRQHandler+0xda>
 8006d52:	f06f 0280 	mvn.w	r2, #128	; 0x80
 8006d56:	611a      	str	r2, [r3, #16]
 8006d58:	4620      	mov	r0, r4
 8006d5a:	f000 fada 	bl	8007312 <HAL_TIMEx_BreakCallback>
 8006d5e:	6823      	ldr	r3, [r4, #0]
 8006d60:	691a      	ldr	r2, [r3, #16]
 8006d62:	0652      	lsls	r2, r2, #25
 8006d64:	d508      	bpl.n	8006d78 <HAL_TIM_IRQHandler+0xf4>
 8006d66:	68da      	ldr	r2, [r3, #12]
 8006d68:	0650      	lsls	r0, r2, #25
 8006d6a:	d505      	bpl.n	8006d78 <HAL_TIM_IRQHandler+0xf4>
 8006d6c:	f06f 0240 	mvn.w	r2, #64	; 0x40
 8006d70:	611a      	str	r2, [r3, #16]
 8006d72:	4620      	mov	r0, r4
 8006d74:	f7ff ff85 	bl	8006c82 <HAL_TIM_TriggerCallback>
 8006d78:	6823      	ldr	r3, [r4, #0]
 8006d7a:	691a      	ldr	r2, [r3, #16]
 8006d7c:	0691      	lsls	r1, r2, #26
 8006d7e:	d522      	bpl.n	8006dc6 <HAL_TIM_IRQHandler+0x142>
 8006d80:	68da      	ldr	r2, [r3, #12]
 8006d82:	0692      	lsls	r2, r2, #26
 8006d84:	d51f      	bpl.n	8006dc6 <HAL_TIM_IRQHandler+0x142>
 8006d86:	f06f 0220 	mvn.w	r2, #32
 8006d8a:	4620      	mov	r0, r4
 8006d8c:	611a      	str	r2, [r3, #16]
 8006d8e:	e8bd 4010 	ldmia.w	sp!, {r4, lr}
 8006d92:	f000 babd 	b.w	8007310 <HAL_TIMEx_CommutCallback>
 8006d96:	f7ff ff71 	bl	8006c7c <HAL_TIM_OC_DelayElapsedCallback>
 8006d9a:	4620      	mov	r0, r4
 8006d9c:	f7ff ff70 	bl	8006c80 <HAL_TIM_PWM_PulseFinishedCallback>
 8006da0:	e783      	b.n	8006caa <HAL_TIM_IRQHandler+0x26>
 8006da2:	f7ff ff6b 	bl	8006c7c <HAL_TIM_OC_DelayElapsedCallback>
 8006da6:	4620      	mov	r0, r4
 8006da8:	f7ff ff6a 	bl	8006c80 <HAL_TIM_PWM_PulseFinishedCallback>
 8006dac:	e792      	b.n	8006cd4 <HAL_TIM_IRQHandler+0x50>
 8006dae:	f7ff ff65 	bl	8006c7c <HAL_TIM_OC_DelayElapsedCallback>
 8006db2:	4620      	mov	r0, r4
 8006db4:	f7ff ff64 	bl	8006c80 <HAL_TIM_PWM_PulseFinishedCallback>
 8006db8:	e7a0      	b.n	8006cfc <HAL_TIM_IRQHandler+0x78>
 8006dba:	f7ff ff5f 	bl	8006c7c <HAL_TIM_OC_DelayElapsedCallback>
 8006dbe:	4620      	mov	r0, r4
 8006dc0:	f7ff ff5e 	bl	8006c80 <HAL_TIM_PWM_PulseFinishedCallback>
 8006dc4:	e7af      	b.n	8006d26 <HAL_TIM_IRQHandler+0xa2>
 8006dc6:	bd10      	pop	{r4, pc}

08006dc8 <TIM_Base_SetConfig>:
 8006dc8:	4a30      	ldr	r2, [pc, #192]	; (8006e8c <TIM_Base_SetConfig+0xc4>)
 8006dca:	6803      	ldr	r3, [r0, #0]
 8006dcc:	4290      	cmp	r0, r2
 8006dce:	d012      	beq.n	8006df6 <TIM_Base_SetConfig+0x2e>
 8006dd0:	f1b0 4f80 	cmp.w	r0, #1073741824	; 0x40000000
 8006dd4:	d00f      	beq.n	8006df6 <TIM_Base_SetConfig+0x2e>
 8006dd6:	f5a2 427c 	sub.w	r2, r2, #64512	; 0xfc00
 8006dda:	4290      	cmp	r0, r2
 8006ddc:	d00b      	beq.n	8006df6 <TIM_Base_SetConfig+0x2e>
 8006dde:	f502 6280 	add.w	r2, r2, #1024	; 0x400
 8006de2:	4290      	cmp	r0, r2
 8006de4:	d007      	beq.n	8006df6 <TIM_Base_SetConfig+0x2e>
 8006de6:	f502 6280 	add.w	r2, r2, #1024	; 0x400
 8006dea:	4290      	cmp	r0, r2
 8006dec:	d003      	beq.n	8006df6 <TIM_Base_SetConfig+0x2e>
 8006dee:	f502 4278 	add.w	r2, r2, #63488	; 0xf800
 8006df2:	4290      	cmp	r0, r2
 8006df4:	d119      	bne.n	8006e2a <TIM_Base_SetConfig+0x62>
 8006df6:	684a      	ldr	r2, [r1, #4]
 8006df8:	f023 0370 	bic.w	r3, r3, #112	; 0x70
 8006dfc:	4313      	orrs	r3, r2
 8006dfe:	4a23      	ldr	r2, [pc, #140]	; (8006e8c <TIM_Base_SetConfig+0xc4>)
 8006e00:	4290      	cmp	r0, r2
 8006e02:	d029      	beq.n	8006e58 <TIM_Base_SetConfig+0x90>
 8006e04:	f1b0 4f80 	cmp.w	r0, #1073741824	; 0x40000000
 8006e08:	d026      	beq.n	8006e58 <TIM_Base_SetConfig+0x90>
 8006e0a:	f5a2 427c 	sub.w	r2, r2, #64512	; 0xfc00
 8006e0e:	4290      	cmp	r0, r2
 8006e10:	d022      	beq.n	8006e58 <TIM_Base_SetConfig+0x90>
 8006e12:	f502 6280 	add.w	r2, r2, #1024	; 0x400
 8006e16:	4290      	cmp	r0, r2
 8006e18:	d01e      	beq.n	8006e58 <TIM_Base_SetConfig+0x90>
 8006e1a:	f502 6280 	add.w	r2, r2, #1024	; 0x400
 8006e1e:	4290      	cmp	r0, r2
 8006e20:	d01a      	beq.n	8006e58 <TIM_Base_SetConfig+0x90>
 8006e22:	f502 4278 	add.w	r2, r2, #63488	; 0xf800
 8006e26:	4290      	cmp	r0, r2
 8006e28:	d016      	beq.n	8006e58 <TIM_Base_SetConfig+0x90>
 8006e2a:	4a19      	ldr	r2, [pc, #100]	; (8006e90 <TIM_Base_SetConfig+0xc8>)
 8006e2c:	4290      	cmp	r0, r2
 8006e2e:	d013      	beq.n	8006e58 <TIM_Base_SetConfig+0x90>
 8006e30:	f502 6280 	add.w	r2, r2, #1024	; 0x400
 8006e34:	4290      	cmp	r0, r2
 8006e36:	d00f      	beq.n	8006e58 <TIM_Base_SetConfig+0x90>
 8006e38:	f502 6280 	add.w	r2, r2, #1024	; 0x400
 8006e3c:	4290      	cmp	r0, r2
 8006e3e:	d00b      	beq.n	8006e58 <TIM_Base_SetConfig+0x90>
 8006e40:	f5a2 3298 	sub.w	r2, r2, #77824	; 0x13000
 8006e44:	4290      	cmp	r0, r2
 8006e46:	d007      	beq.n	8006e58 <TIM_Base_SetConfig+0x90>
 8006e48:	f502 6280 	add.w	r2, r2, #1024	; 0x400
 8006e4c:	4290      	cmp	r0, r2
 8006e4e:	d003      	beq.n	8006e58 <TIM_Base_SetConfig+0x90>
 8006e50:	f502 6280 	add.w	r2, r2, #1024	; 0x400
 8006e54:	4290      	cmp	r0, r2
 8006e56:	d103      	bne.n	8006e60 <TIM_Base_SetConfig+0x98>
 8006e58:	68ca      	ldr	r2, [r1, #12]
 8006e5a:	f423 7340 	bic.w	r3, r3, #768	; 0x300
 8006e5e:	4313      	orrs	r3, r2
 8006e60:	694a      	ldr	r2, [r1, #20]
 8006e62:	f023 0380 	bic.w	r3, r3, #128	; 0x80
 8006e66:	4313      	orrs	r3, r2
 8006e68:	6003      	str	r3, [r0, #0]
 8006e6a:	688b      	ldr	r3, [r1, #8]
 8006e6c:	62c3      	str	r3, [r0, #44]	; 0x2c
 8006e6e:	680b      	ldr	r3, [r1, #0]
 8006e70:	6283      	str	r3, [r0, #40]	; 0x28
 8006e72:	4b06      	ldr	r3, [pc, #24]	; (8006e8c <TIM_Base_SetConfig+0xc4>)
 8006e74:	4298      	cmp	r0, r3
 8006e76:	d003      	beq.n	8006e80 <TIM_Base_SetConfig+0xb8>
 8006e78:	f503 6380 	add.w	r3, r3, #1024	; 0x400
 8006e7c:	4298      	cmp	r0, r3
 8006e7e:	d101      	bne.n	8006e84 <TIM_Base_SetConfig+0xbc>
 8006e80:	690b      	ldr	r3, [r1, #16]
 8006e82:	6303      	str	r3, [r0, #48]	; 0x30
 8006e84:	2301      	movs	r3, #1
 8006e86:	6143      	str	r3, [r0, #20]
 8006e88:	4770      	bx	lr
 8006e8a:	bf00      	nop
 8006e8c:	40010000 	.word	0x40010000
 8006e90:	40014000 	.word	0x40014000

08006e94 <HAL_TIM_Base_Init>:
 8006e94:	b510      	push	{r4, lr}
 8006e96:	4604      	mov	r4, r0
 8006e98:	b330      	cbz	r0, 8006ee8 <HAL_TIM_Base_Init+0x54>
 8006e9a:	f890 303d 	ldrb.w	r3, [r0, #61]	; 0x3d
 8006e9e:	f003 02ff 	and.w	r2, r3, #255	; 0xff
 8006ea2:	b91b      	cbnz	r3, 8006eac <HAL_TIM_Base_Init+0x18>
 8006ea4:	f880 203c 	strb.w	r2, [r0, #60]	; 0x3c
 8006ea8:	f7fd f9b2 	bl	8004210 <HAL_TIM_Base_MspInit>
 8006eac:	2302      	movs	r3, #2
 8006eae:	6820      	ldr	r0, [r4, #0]
 8006eb0:	f884 303d 	strb.w	r3, [r4, #61]	; 0x3d
 8006eb4:	1d21      	adds	r1, r4, #4
 8006eb6:	f7ff ff87 	bl	8006dc8 <TIM_Base_SetConfig>
 8006eba:	2301      	movs	r3, #1
 8006ebc:	f884 3046 	strb.w	r3, [r4, #70]	; 0x46
 8006ec0:	2000      	movs	r0, #0
 8006ec2:	f884 303e 	strb.w	r3, [r4, #62]	; 0x3e
 8006ec6:	f884 303f 	strb.w	r3, [r4, #63]	; 0x3f
 8006eca:	f884 3040 	strb.w	r3, [r4, #64]	; 0x40
 8006ece:	f884 3041 	strb.w	r3, [r4, #65]	; 0x41
 8006ed2:	f884 3042 	strb.w	r3, [r4, #66]	; 0x42
 8006ed6:	f884 3043 	strb.w	r3, [r4, #67]	; 0x43
 8006eda:	f884 3044 	strb.w	r3, [r4, #68]	; 0x44
 8006ede:	f884 3045 	strb.w	r3, [r4, #69]	; 0x45
 8006ee2:	f884 303d 	strb.w	r3, [r4, #61]	; 0x3d
 8006ee6:	bd10      	pop	{r4, pc}
 8006ee8:	2001      	movs	r0, #1
 8006eea:	e7fc      	b.n	8006ee6 <HAL_TIM_Base_Init+0x52>

08006eec <HAL_TIM_PWM_Init>:
 8006eec:	b510      	push	{r4, lr}
 8006eee:	4604      	mov	r4, r0
 8006ef0:	b330      	cbz	r0, 8006f40 <HAL_TIM_PWM_Init+0x54>
 8006ef2:	f890 303d 	ldrb.w	r3, [r0, #61]	; 0x3d
 8006ef6:	f003 02ff 	and.w	r2, r3, #255	; 0xff
 8006efa:	b91b      	cbnz	r3, 8006f04 <HAL_TIM_PWM_Init+0x18>
 8006efc:	f880 203c 	strb.w	r2, [r0, #60]	; 0x3c
 8006f00:	f7ff feba 	bl	8006c78 <HAL_TIM_PWM_MspInit>
 8006f04:	2302      	movs	r3, #2
 8006f06:	6820      	ldr	r0, [r4, #0]
 8006f08:	f884 303d 	strb.w	r3, [r4, #61]	; 0x3d
 8006f0c:	1d21      	adds	r1, r4, #4
 8006f0e:	f7ff ff5b 	bl	8006dc8 <TIM_Base_SetConfig>
 8006f12:	2301      	movs	r3, #1
 8006f14:	f884 3046 	strb.w	r3, [r4, #70]	; 0x46
 8006f18:	2000      	movs	r0, #0
 8006f1a:	f884 303e 	strb.w	r3, [r4, #62]	; 0x3e
 8006f1e:	f884 303f 	strb.w	r3, [r4, #63]	; 0x3f
 8006f22:	f884 3040 	strb.w	r3, [r4, #64]	; 0x40
 8006f26:	f884 3041 	strb.w	r3, [r4, #65]	; 0x41
 8006f2a:	f884 3042 	strb.w	r3, [r4, #66]	; 0x42
 8006f2e:	f884 3043 	strb.w	r3, [r4, #67]	; 0x43
 8006f32:	f884 3044 	strb.w	r3, [r4, #68]	; 0x44
 8006f36:	f884 3045 	strb.w	r3, [r4, #69]	; 0x45
 8006f3a:	f884 303d 	strb.w	r3, [r4, #61]	; 0x3d
 8006f3e:	bd10      	pop	{r4, pc}
 8006f40:	2001      	movs	r0, #1
 8006f42:	e7fc      	b.n	8006f3e <HAL_TIM_PWM_Init+0x52>

08006f44 <TIM_OC2_SetConfig>:
 8006f44:	6a03      	ldr	r3, [r0, #32]
 8006f46:	f023 0310 	bic.w	r3, r3, #16
 8006f4a:	6203      	str	r3, [r0, #32]
 8006f4c:	6a03      	ldr	r3, [r0, #32]
 8006f4e:	b570      	push	{r4, r5, r6, lr}
 8006f50:	6844      	ldr	r4, [r0, #4]
 8006f52:	6982      	ldr	r2, [r0, #24]
 8006f54:	680d      	ldr	r5, [r1, #0]
 8006f56:	f422 42e6 	bic.w	r2, r2, #29440	; 0x7300
 8006f5a:	ea42 2205 	orr.w	r2, r2, r5, lsl #8
 8006f5e:	688d      	ldr	r5, [r1, #8]
 8006f60:	f023 0320 	bic.w	r3, r3, #32
 8006f64:	ea43 1305 	orr.w	r3, r3, r5, lsl #4
 8006f68:	4d10      	ldr	r5, [pc, #64]	; (8006fac <TIM_OC2_SetConfig+0x68>)
 8006f6a:	42a8      	cmp	r0, r5
 8006f6c:	d003      	beq.n	8006f76 <TIM_OC2_SetConfig+0x32>
 8006f6e:	f505 6580 	add.w	r5, r5, #1024	; 0x400
 8006f72:	42a8      	cmp	r0, r5
 8006f74:	d114      	bne.n	8006fa0 <TIM_OC2_SetConfig+0x5c>
 8006f76:	68cd      	ldr	r5, [r1, #12]
 8006f78:	f023 0380 	bic.w	r3, r3, #128	; 0x80
 8006f7c:	ea43 1305 	orr.w	r3, r3, r5, lsl #4
 8006f80:	4d0a      	ldr	r5, [pc, #40]	; (8006fac <TIM_OC2_SetConfig+0x68>)
 8006f82:	42a8      	cmp	r0, r5
 8006f84:	f023 0340 	bic.w	r3, r3, #64	; 0x40
 8006f88:	d003      	beq.n	8006f92 <TIM_OC2_SetConfig+0x4e>
 8006f8a:	f505 6580 	add.w	r5, r5, #1024	; 0x400
 8006f8e:	42a8      	cmp	r0, r5
 8006f90:	d106      	bne.n	8006fa0 <TIM_OC2_SetConfig+0x5c>
 8006f92:	e9d1 5605 	ldrd	r5, r6, [r1, #20]
 8006f96:	f424 6440 	bic.w	r4, r4, #3072	; 0xc00
 8006f9a:	4335      	orrs	r5, r6
 8006f9c:	ea44 0485 	orr.w	r4, r4, r5, lsl #2
 8006fa0:	6044      	str	r4, [r0, #4]
 8006fa2:	6182      	str	r2, [r0, #24]
 8006fa4:	684a      	ldr	r2, [r1, #4]
 8006fa6:	6382      	str	r2, [r0, #56]	; 0x38
 8006fa8:	6203      	str	r3, [r0, #32]
 8006faa:	bd70      	pop	{r4, r5, r6, pc}
 8006fac:	40010000 	.word	0x40010000

08006fb0 <HAL_TIM_PWM_ConfigChannel>:
 8006fb0:	b570      	push	{r4, r5, r6, lr}
 8006fb2:	f890 303c 	ldrb.w	r3, [r0, #60]	; 0x3c
 8006fb6:	2b01      	cmp	r3, #1
 8006fb8:	4605      	mov	r5, r0
 8006fba:	d050      	beq.n	800705e <HAL_TIM_PWM_ConfigChannel+0xae>
 8006fbc:	2301      	movs	r3, #1
 8006fbe:	2a08      	cmp	r2, #8
 8006fc0:	f880 303c 	strb.w	r3, [r0, #60]	; 0x3c
 8006fc4:	d03b      	beq.n	800703e <HAL_TIM_PWM_ConfigChannel+0x8e>
 8006fc6:	d807      	bhi.n	8006fd8 <HAL_TIM_PWM_ConfigChannel+0x28>
 8006fc8:	b1c2      	cbz	r2, 8006ffc <HAL_TIM_PWM_ConfigChannel+0x4c>
 8006fca:	2a04      	cmp	r2, #4
 8006fcc:	d027      	beq.n	800701e <HAL_TIM_PWM_ConfigChannel+0x6e>
 8006fce:	4618      	mov	r0, r3
 8006fd0:	2300      	movs	r3, #0
 8006fd2:	f885 303c 	strb.w	r3, [r5, #60]	; 0x3c
 8006fd6:	bd70      	pop	{r4, r5, r6, pc}
 8006fd8:	2a0c      	cmp	r2, #12
 8006fda:	d1f8      	bne.n	8006fce <HAL_TIM_PWM_ConfigChannel+0x1e>
 8006fdc:	6800      	ldr	r0, [r0, #0]
 8006fde:	f7ff fdeb 	bl	8006bb8 <TIM_OC4_SetConfig>
 8006fe2:	69c3      	ldr	r3, [r0, #28]
 8006fe4:	690a      	ldr	r2, [r1, #16]
 8006fe6:	f443 6300 	orr.w	r3, r3, #2048	; 0x800
 8006fea:	61c3      	str	r3, [r0, #28]
 8006fec:	69c3      	ldr	r3, [r0, #28]
 8006fee:	f423 6380 	bic.w	r3, r3, #1024	; 0x400
 8006ff2:	61c3      	str	r3, [r0, #28]
 8006ff4:	69c3      	ldr	r3, [r0, #28]
 8006ff6:	ea43 2302 	orr.w	r3, r3, r2, lsl #8
 8006ffa:	e02e      	b.n	800705a <HAL_TIM_PWM_ConfigChannel+0xaa>
 8006ffc:	6800      	ldr	r0, [r0, #0]
 8006ffe:	f7ff fd73 	bl	8006ae8 <TIM_OC1_SetConfig>
 8007002:	6983      	ldr	r3, [r0, #24]
 8007004:	690a      	ldr	r2, [r1, #16]
 8007006:	f043 0308 	orr.w	r3, r3, #8
 800700a:	6183      	str	r3, [r0, #24]
 800700c:	6983      	ldr	r3, [r0, #24]
 800700e:	f023 0304 	bic.w	r3, r3, #4
 8007012:	6183      	str	r3, [r0, #24]
 8007014:	6983      	ldr	r3, [r0, #24]
 8007016:	4313      	orrs	r3, r2
 8007018:	6183      	str	r3, [r0, #24]
 800701a:	2000      	movs	r0, #0
 800701c:	e7d8      	b.n	8006fd0 <HAL_TIM_PWM_ConfigChannel+0x20>
 800701e:	6800      	ldr	r0, [r0, #0]
 8007020:	f7ff ff90 	bl	8006f44 <TIM_OC2_SetConfig>
 8007024:	6983      	ldr	r3, [r0, #24]
 8007026:	690a      	ldr	r2, [r1, #16]
 8007028:	f443 6300 	orr.w	r3, r3, #2048	; 0x800
 800702c:	6183      	str	r3, [r0, #24]
 800702e:	6983      	ldr	r3, [r0, #24]
 8007030:	f423 6380 	bic.w	r3, r3, #1024	; 0x400
 8007034:	6183      	str	r3, [r0, #24]
 8007036:	6983      	ldr	r3, [r0, #24]
 8007038:	ea43 2302 	orr.w	r3, r3, r2, lsl #8
 800703c:	e7ec      	b.n	8007018 <HAL_TIM_PWM_ConfigChannel+0x68>
 800703e:	6800      	ldr	r0, [r0, #0]
 8007040:	f7ff fd84 	bl	8006b4c <TIM_OC3_SetConfig>
 8007044:	69c3      	ldr	r3, [r0, #28]
 8007046:	690a      	ldr	r2, [r1, #16]
 8007048:	f043 0308 	orr.w	r3, r3, #8
 800704c:	61c3      	str	r3, [r0, #28]
 800704e:	69c3      	ldr	r3, [r0, #28]
 8007050:	f023 0304 	bic.w	r3, r3, #4
 8007054:	61c3      	str	r3, [r0, #28]
 8007056:	69c3      	ldr	r3, [r0, #28]
 8007058:	4313      	orrs	r3, r2
 800705a:	61c3      	str	r3, [r0, #28]
 800705c:	e7dd      	b.n	800701a <HAL_TIM_PWM_ConfigChannel+0x6a>
 800705e:	2002      	movs	r0, #2
 8007060:	e7b9      	b.n	8006fd6 <HAL_TIM_PWM_ConfigChannel+0x26>

08007062 <TIM_ETR_SetConfig>:
 8007062:	b510      	push	{r4, lr}
 8007064:	6884      	ldr	r4, [r0, #8]
 8007066:	4311      	orrs	r1, r2
 8007068:	f424 447f 	bic.w	r4, r4, #65280	; 0xff00
 800706c:	ea41 2303 	orr.w	r3, r1, r3, lsl #8
 8007070:	4323      	orrs	r3, r4
 8007072:	6083      	str	r3, [r0, #8]
 8007074:	bd10      	pop	{r4, pc}

08007076 <HAL_TIM_ConfigClockSource>:
 8007076:	b538      	push	{r3, r4, r5, lr}
 8007078:	f890 303c 	ldrb.w	r3, [r0, #60]	; 0x3c
 800707c:	2b01      	cmp	r3, #1
 800707e:	4604      	mov	r4, r0
 8007080:	f04f 0302 	mov.w	r3, #2
 8007084:	f000 808e 	beq.w	80071a4 <HAL_TIM_ConfigClockSource+0x12e>
 8007088:	2201      	movs	r2, #1
 800708a:	f880 303d 	strb.w	r3, [r0, #61]	; 0x3d
 800708e:	f880 203c 	strb.w	r2, [r0, #60]	; 0x3c
 8007092:	6800      	ldr	r0, [r0, #0]
 8007094:	6883      	ldr	r3, [r0, #8]
 8007096:	f423 437f 	bic.w	r3, r3, #65280	; 0xff00
 800709a:	f023 0377 	bic.w	r3, r3, #119	; 0x77
 800709e:	6083      	str	r3, [r0, #8]
 80070a0:	680b      	ldr	r3, [r1, #0]
 80070a2:	2b60      	cmp	r3, #96	; 0x60
 80070a4:	d04f      	beq.n	8007146 <HAL_TIM_ConfigClockSource+0xd0>
 80070a6:	d832      	bhi.n	800710e <HAL_TIM_ConfigClockSource+0x98>
 80070a8:	2b40      	cmp	r3, #64	; 0x40
 80070aa:	d064      	beq.n	8007176 <HAL_TIM_ConfigClockSource+0x100>
 80070ac:	d816      	bhi.n	80070dc <HAL_TIM_ConfigClockSource+0x66>
 80070ae:	2b20      	cmp	r3, #32
 80070b0:	d00d      	beq.n	80070ce <HAL_TIM_ConfigClockSource+0x58>
 80070b2:	d80a      	bhi.n	80070ca <HAL_TIM_ConfigClockSource+0x54>
 80070b4:	f033 0110 	bics.w	r1, r3, #16
 80070b8:	d009      	beq.n	80070ce <HAL_TIM_ConfigClockSource+0x58>
 80070ba:	2301      	movs	r3, #1
 80070bc:	f884 303d 	strb.w	r3, [r4, #61]	; 0x3d
 80070c0:	2300      	movs	r3, #0
 80070c2:	f884 303c 	strb.w	r3, [r4, #60]	; 0x3c
 80070c6:	4610      	mov	r0, r2
 80070c8:	bd38      	pop	{r3, r4, r5, pc}
 80070ca:	2b30      	cmp	r3, #48	; 0x30
 80070cc:	d1f5      	bne.n	80070ba <HAL_TIM_ConfigClockSource+0x44>
 80070ce:	6882      	ldr	r2, [r0, #8]
 80070d0:	f022 0270 	bic.w	r2, r2, #112	; 0x70
 80070d4:	4313      	orrs	r3, r2
 80070d6:	f043 0307 	orr.w	r3, r3, #7
 80070da:	e028      	b.n	800712e <HAL_TIM_ConfigClockSource+0xb8>
 80070dc:	2b50      	cmp	r3, #80	; 0x50
 80070de:	d1ec      	bne.n	80070ba <HAL_TIM_ConfigClockSource+0x44>
 80070e0:	684a      	ldr	r2, [r1, #4]
 80070e2:	68cd      	ldr	r5, [r1, #12]
 80070e4:	6a01      	ldr	r1, [r0, #32]
 80070e6:	6a03      	ldr	r3, [r0, #32]
 80070e8:	f023 0301 	bic.w	r3, r3, #1
 80070ec:	6203      	str	r3, [r0, #32]
 80070ee:	6983      	ldr	r3, [r0, #24]
 80070f0:	f021 010a 	bic.w	r1, r1, #10
 80070f4:	f023 03f0 	bic.w	r3, r3, #240	; 0xf0
 80070f8:	ea43 1305 	orr.w	r3, r3, r5, lsl #4
 80070fc:	430a      	orrs	r2, r1
 80070fe:	6183      	str	r3, [r0, #24]
 8007100:	6202      	str	r2, [r0, #32]
 8007102:	6883      	ldr	r3, [r0, #8]
 8007104:	f023 0370 	bic.w	r3, r3, #112	; 0x70
 8007108:	f043 0357 	orr.w	r3, r3, #87	; 0x57
 800710c:	e00f      	b.n	800712e <HAL_TIM_ConfigClockSource+0xb8>
 800710e:	f5b3 5f80 	cmp.w	r3, #4096	; 0x1000
 8007112:	d00d      	beq.n	8007130 <HAL_TIM_ConfigClockSource+0xba>
 8007114:	f5b3 5f00 	cmp.w	r3, #8192	; 0x2000
 8007118:	d00c      	beq.n	8007134 <HAL_TIM_ConfigClockSource+0xbe>
 800711a:	2b70      	cmp	r3, #112	; 0x70
 800711c:	d1cd      	bne.n	80070ba <HAL_TIM_ConfigClockSource+0x44>
 800711e:	68cb      	ldr	r3, [r1, #12]
 8007120:	e9d1 2101 	ldrd	r2, r1, [r1, #4]
 8007124:	f7ff ff9d 	bl	8007062 <TIM_ETR_SetConfig>
 8007128:	6883      	ldr	r3, [r0, #8]
 800712a:	f043 0377 	orr.w	r3, r3, #119	; 0x77
 800712e:	6083      	str	r3, [r0, #8]
 8007130:	2200      	movs	r2, #0
 8007132:	e7c2      	b.n	80070ba <HAL_TIM_ConfigClockSource+0x44>
 8007134:	68cb      	ldr	r3, [r1, #12]
 8007136:	e9d1 2101 	ldrd	r2, r1, [r1, #4]
 800713a:	f7ff ff92 	bl	8007062 <TIM_ETR_SetConfig>
 800713e:	6883      	ldr	r3, [r0, #8]
 8007140:	f443 4380 	orr.w	r3, r3, #16384	; 0x4000
 8007144:	e7f3      	b.n	800712e <HAL_TIM_ConfigClockSource+0xb8>
 8007146:	6a03      	ldr	r3, [r0, #32]
 8007148:	684d      	ldr	r5, [r1, #4]
 800714a:	68c9      	ldr	r1, [r1, #12]
 800714c:	f023 0310 	bic.w	r3, r3, #16
 8007150:	6203      	str	r3, [r0, #32]
 8007152:	6982      	ldr	r2, [r0, #24]
 8007154:	6a03      	ldr	r3, [r0, #32]
 8007156:	f422 4270 	bic.w	r2, r2, #61440	; 0xf000
 800715a:	f023 03a0 	bic.w	r3, r3, #160	; 0xa0
 800715e:	ea43 1305 	orr.w	r3, r3, r5, lsl #4
 8007162:	ea42 3201 	orr.w	r2, r2, r1, lsl #12
 8007166:	6182      	str	r2, [r0, #24]
 8007168:	6203      	str	r3, [r0, #32]
 800716a:	6883      	ldr	r3, [r0, #8]
 800716c:	f023 0370 	bic.w	r3, r3, #112	; 0x70
 8007170:	f043 0367 	orr.w	r3, r3, #103	; 0x67
 8007174:	e7db      	b.n	800712e <HAL_TIM_ConfigClockSource+0xb8>
 8007176:	684a      	ldr	r2, [r1, #4]
 8007178:	68cd      	ldr	r5, [r1, #12]
 800717a:	6a01      	ldr	r1, [r0, #32]
 800717c:	6a03      	ldr	r3, [r0, #32]
 800717e:	f023 0301 	bic.w	r3, r3, #1
 8007182:	6203      	str	r3, [r0, #32]
 8007184:	6983      	ldr	r3, [r0, #24]
 8007186:	f021 010a 	bic.w	r1, r1, #10
 800718a:	f023 03f0 	bic.w	r3, r3, #240	; 0xf0
 800718e:	ea43 1305 	orr.w	r3, r3, r5, lsl #4
 8007192:	430a      	orrs	r2, r1
 8007194:	6183      	str	r3, [r0, #24]
 8007196:	6202      	str	r2, [r0, #32]
 8007198:	6883      	ldr	r3, [r0, #8]
 800719a:	f023 0370 	bic.w	r3, r3, #112	; 0x70
 800719e:	f043 0347 	orr.w	r3, r3, #71	; 0x47
 80071a2:	e7c4      	b.n	800712e <HAL_TIM_ConfigClockSource+0xb8>
 80071a4:	461a      	mov	r2, r3
 80071a6:	e78e      	b.n	80070c6 <HAL_TIM_ConfigClockSource+0x50>

080071a8 <TIM_CCxChannelCmd>:
 80071a8:	6a03      	ldr	r3, [r0, #32]
 80071aa:	f001 011f 	and.w	r1, r1, #31
 80071ae:	b510      	push	{r4, lr}
 80071b0:	2401      	movs	r4, #1
 80071b2:	408c      	lsls	r4, r1
 80071b4:	ea23 0304 	bic.w	r3, r3, r4
 80071b8:	6203      	str	r3, [r0, #32]
 80071ba:	6a03      	ldr	r3, [r0, #32]
 80071bc:	408a      	lsls	r2, r1
 80071be:	431a      	orrs	r2, r3
 80071c0:	6202      	str	r2, [r0, #32]
 80071c2:	bd10      	pop	{r4, pc}

080071c4 <HAL_TIM_OC_Start>:
 80071c4:	b508      	push	{r3, lr}
 80071c6:	b929      	cbnz	r1, 80071d4 <HAL_TIM_OC_Start+0x10>
 80071c8:	f890 303e 	ldrb.w	r3, [r0, #62]	; 0x3e
 80071cc:	2b01      	cmp	r3, #1
 80071ce:	d018      	beq.n	8007202 <HAL_TIM_OC_Start+0x3e>
 80071d0:	2001      	movs	r0, #1
 80071d2:	e02c      	b.n	800722e <HAL_TIM_OC_Start+0x6a>
 80071d4:	2904      	cmp	r1, #4
 80071d6:	d10d      	bne.n	80071f4 <HAL_TIM_OC_Start+0x30>
 80071d8:	f890 303f 	ldrb.w	r3, [r0, #63]	; 0x3f
 80071dc:	3b01      	subs	r3, #1
 80071de:	bf18      	it	ne
 80071e0:	2301      	movne	r3, #1
 80071e2:	2b00      	cmp	r3, #0
 80071e4:	d1f4      	bne.n	80071d0 <HAL_TIM_OC_Start+0xc>
 80071e6:	2904      	cmp	r1, #4
 80071e8:	f04f 0302 	mov.w	r3, #2
 80071ec:	d120      	bne.n	8007230 <HAL_TIM_OC_Start+0x6c>
 80071ee:	f880 303f 	strb.w	r3, [r0, #63]	; 0x3f
 80071f2:	e009      	b.n	8007208 <HAL_TIM_OC_Start+0x44>
 80071f4:	2908      	cmp	r1, #8
 80071f6:	bf0c      	ite	eq
 80071f8:	f890 3040 	ldrbeq.w	r3, [r0, #64]	; 0x40
 80071fc:	f890 3041 	ldrbne.w	r3, [r0, #65]	; 0x41
 8007200:	e7ec      	b.n	80071dc <HAL_TIM_OC_Start+0x18>
 8007202:	2302      	movs	r3, #2
 8007204:	f880 303e 	strb.w	r3, [r0, #62]	; 0x3e
 8007208:	6800      	ldr	r0, [r0, #0]
 800720a:	2201      	movs	r2, #1
 800720c:	f7ff ffcc 	bl	80071a8 <TIM_CCxChannelCmd>
 8007210:	4a1c      	ldr	r2, [pc, #112]	; (8007284 <HAL_TIM_OC_Start+0xc0>)
 8007212:	4290      	cmp	r0, r2
 8007214:	d013      	beq.n	800723e <HAL_TIM_OC_Start+0x7a>
 8007216:	4b1c      	ldr	r3, [pc, #112]	; (8007288 <HAL_TIM_OC_Start+0xc4>)
 8007218:	4298      	cmp	r0, r3
 800721a:	d010      	beq.n	800723e <HAL_TIM_OC_Start+0x7a>
 800721c:	f1b0 4f80 	cmp.w	r0, #1073741824	; 0x40000000
 8007220:	d114      	bne.n	800724c <HAL_TIM_OC_Start+0x88>
 8007222:	6883      	ldr	r3, [r0, #8]
 8007224:	f003 0307 	and.w	r3, r3, #7
 8007228:	2b06      	cmp	r3, #6
 800722a:	d126      	bne.n	800727a <HAL_TIM_OC_Start+0xb6>
 800722c:	2000      	movs	r0, #0
 800722e:	bd08      	pop	{r3, pc}
 8007230:	2908      	cmp	r1, #8
 8007232:	bf0c      	ite	eq
 8007234:	f880 3040 	strbeq.w	r3, [r0, #64]	; 0x40
 8007238:	f880 3041 	strbne.w	r3, [r0, #65]	; 0x41
 800723c:	e7e4      	b.n	8007208 <HAL_TIM_OC_Start+0x44>
 800723e:	6c43      	ldr	r3, [r0, #68]	; 0x44
 8007240:	4290      	cmp	r0, r2
 8007242:	f443 4300 	orr.w	r3, r3, #32768	; 0x8000
 8007246:	6443      	str	r3, [r0, #68]	; 0x44
 8007248:	d0eb      	beq.n	8007222 <HAL_TIM_OC_Start+0x5e>
 800724a:	e7e7      	b.n	800721c <HAL_TIM_OC_Start+0x58>
 800724c:	4b0f      	ldr	r3, [pc, #60]	; (800728c <HAL_TIM_OC_Start+0xc8>)
 800724e:	4298      	cmp	r0, r3
 8007250:	d0e7      	beq.n	8007222 <HAL_TIM_OC_Start+0x5e>
 8007252:	f503 6380 	add.w	r3, r3, #1024	; 0x400
 8007256:	4298      	cmp	r0, r3
 8007258:	d0e3      	beq.n	8007222 <HAL_TIM_OC_Start+0x5e>
 800725a:	f503 6380 	add.w	r3, r3, #1024	; 0x400
 800725e:	4298      	cmp	r0, r3
 8007260:	d0df      	beq.n	8007222 <HAL_TIM_OC_Start+0x5e>
 8007262:	f503 4378 	add.w	r3, r3, #63488	; 0xf800
 8007266:	4298      	cmp	r0, r3
 8007268:	d0db      	beq.n	8007222 <HAL_TIM_OC_Start+0x5e>
 800726a:	f503 5370 	add.w	r3, r3, #15360	; 0x3c00
 800726e:	4298      	cmp	r0, r3
 8007270:	d0d7      	beq.n	8007222 <HAL_TIM_OC_Start+0x5e>
 8007272:	f5a3 3394 	sub.w	r3, r3, #75776	; 0x12800
 8007276:	4298      	cmp	r0, r3
 8007278:	d0d3      	beq.n	8007222 <HAL_TIM_OC_Start+0x5e>
 800727a:	6803      	ldr	r3, [r0, #0]
 800727c:	f043 0301 	orr.w	r3, r3, #1
 8007280:	6003      	str	r3, [r0, #0]
 8007282:	e7d3      	b.n	800722c <HAL_TIM_OC_Start+0x68>
 8007284:	40010000 	.word	0x40010000
 8007288:	40010400 	.word	0x40010400
 800728c:	40000400 	.word	0x40000400

08007290 <HAL_TIM_PWM_Start>:
 8007290:	f7ff bf98 	b.w	80071c4 <HAL_TIM_OC_Start>

08007294 <HAL_TIMEx_MasterConfigSynchronization>:
 8007294:	b530      	push	{r4, r5, lr}
 8007296:	f890 303c 	ldrb.w	r3, [r0, #60]	; 0x3c
 800729a:	2b01      	cmp	r3, #1
 800729c:	f04f 0302 	mov.w	r3, #2
 80072a0:	d032      	beq.n	8007308 <HAL_TIMEx_MasterConfigSynchronization+0x74>
 80072a2:	f880 303d 	strb.w	r3, [r0, #61]	; 0x3d
 80072a6:	6803      	ldr	r3, [r0, #0]
 80072a8:	680d      	ldr	r5, [r1, #0]
 80072aa:	685c      	ldr	r4, [r3, #4]
 80072ac:	689a      	ldr	r2, [r3, #8]
 80072ae:	f024 0470 	bic.w	r4, r4, #112	; 0x70
 80072b2:	432c      	orrs	r4, r5
 80072b4:	605c      	str	r4, [r3, #4]
 80072b6:	4c15      	ldr	r4, [pc, #84]	; (800730c <HAL_TIMEx_MasterConfigSynchronization+0x78>)
 80072b8:	42a3      	cmp	r3, r4
 80072ba:	d01a      	beq.n	80072f2 <HAL_TIMEx_MasterConfigSynchronization+0x5e>
 80072bc:	f1b3 4f80 	cmp.w	r3, #1073741824	; 0x40000000
 80072c0:	d017      	beq.n	80072f2 <HAL_TIMEx_MasterConfigSynchronization+0x5e>
 80072c2:	f5a4 447c 	sub.w	r4, r4, #64512	; 0xfc00
 80072c6:	42a3      	cmp	r3, r4
 80072c8:	d013      	beq.n	80072f2 <HAL_TIMEx_MasterConfigSynchronization+0x5e>
 80072ca:	f504 6480 	add.w	r4, r4, #1024	; 0x400
 80072ce:	42a3      	cmp	r3, r4
 80072d0:	d00f      	beq.n	80072f2 <HAL_TIMEx_MasterConfigSynchronization+0x5e>
 80072d2:	f504 6480 	add.w	r4, r4, #1024	; 0x400
 80072d6:	42a3      	cmp	r3, r4
 80072d8:	d00b      	beq.n	80072f2 <HAL_TIMEx_MasterConfigSynchronization+0x5e>
 80072da:	f504 4478 	add.w	r4, r4, #63488	; 0xf800
 80072de:	42a3      	cmp	r3, r4
 80072e0:	d007      	beq.n	80072f2 <HAL_TIMEx_MasterConfigSynchronization+0x5e>
 80072e2:	f504 5470 	add.w	r4, r4, #15360	; 0x3c00
 80072e6:	42a3      	cmp	r3, r4
 80072e8:	d003      	beq.n	80072f2 <HAL_TIMEx_MasterConfigSynchronization+0x5e>
 80072ea:	f5a4 3494 	sub.w	r4, r4, #75776	; 0x12800
 80072ee:	42a3      	cmp	r3, r4
 80072f0:	d104      	bne.n	80072fc <HAL_TIMEx_MasterConfigSynchronization+0x68>
 80072f2:	6849      	ldr	r1, [r1, #4]
 80072f4:	f022 0280 	bic.w	r2, r2, #128	; 0x80
 80072f8:	430a      	orrs	r2, r1
 80072fa:	609a      	str	r2, [r3, #8]
 80072fc:	2301      	movs	r3, #1
 80072fe:	f880 303d 	strb.w	r3, [r0, #61]	; 0x3d
 8007302:	2300      	movs	r3, #0
 8007304:	f880 303c 	strb.w	r3, [r0, #60]	; 0x3c
 8007308:	4618      	mov	r0, r3
 800730a:	bd30      	pop	{r4, r5, pc}
 800730c:	40010000 	.word	0x40010000

08007310 <HAL_TIMEx_CommutCallback>:
 8007310:	4770      	bx	lr

08007312 <HAL_TIMEx_BreakCallback>:
 8007312:	4770      	bx	lr

08007314 <UART_EndRxTransfer>:
 8007314:	6802      	ldr	r2, [r0, #0]
 8007316:	f102 030c 	add.w	r3, r2, #12
 800731a:	e853 3f00 	ldrex	r3, [r3]
 800731e:	f423 7390 	bic.w	r3, r3, #288	; 0x120
 8007322:	320c      	adds	r2, #12
 8007324:	e842 3100 	strex	r1, r3, [r2]
 8007328:	6802      	ldr	r2, [r0, #0]
 800732a:	2900      	cmp	r1, #0
 800732c:	d1f2      	bne.n	8007314 <UART_EndRxTransfer>
 800732e:	f102 0314 	add.w	r3, r2, #20
 8007332:	e853 3f00 	ldrex	r3, [r3]
 8007336:	f023 0301 	bic.w	r3, r3, #1
 800733a:	f102 0c14 	add.w	ip, r2, #20
 800733e:	e84c 3100 	strex	r1, r3, [ip]
 8007342:	2900      	cmp	r1, #0
 8007344:	d1f3      	bne.n	800732e <UART_EndRxTransfer+0x1a>
 8007346:	6b03      	ldr	r3, [r0, #48]	; 0x30
 8007348:	2b01      	cmp	r3, #1
 800734a:	d10b      	bne.n	8007364 <UART_EndRxTransfer+0x50>
 800734c:	f102 030c 	add.w	r3, r2, #12
 8007350:	e853 3f00 	ldrex	r3, [r3]
 8007354:	f023 0310 	bic.w	r3, r3, #16
 8007358:	f102 0c0c 	add.w	ip, r2, #12
 800735c:	e84c 3100 	strex	r1, r3, [ip]
 8007360:	2900      	cmp	r1, #0
 8007362:	d1f3      	bne.n	800734c <UART_EndRxTransfer+0x38>
 8007364:	2320      	movs	r3, #32
 8007366:	f880 303e 	strb.w	r3, [r0, #62]	; 0x3e
 800736a:	2300      	movs	r3, #0
 800736c:	6303      	str	r3, [r0, #48]	; 0x30
 800736e:	4770      	bx	lr

08007370 <UART_SetConfig>:
 8007370:	6802      	ldr	r2, [r0, #0]
 8007372:	68c1      	ldr	r1, [r0, #12]
 8007374:	6913      	ldr	r3, [r2, #16]
 8007376:	f423 5340 	bic.w	r3, r3, #12288	; 0x3000
 800737a:	430b      	orrs	r3, r1
 800737c:	b570      	push	{r4, r5, r6, lr}
 800737e:	6113      	str	r3, [r2, #16]
 8007380:	4605      	mov	r5, r0
 8007382:	6883      	ldr	r3, [r0, #8]
 8007384:	6900      	ldr	r0, [r0, #16]
 8007386:	68d1      	ldr	r1, [r2, #12]
 8007388:	4303      	orrs	r3, r0
 800738a:	6968      	ldr	r0, [r5, #20]
 800738c:	4303      	orrs	r3, r0
 800738e:	69e8      	ldr	r0, [r5, #28]
 8007390:	f421 4116 	bic.w	r1, r1, #38400	; 0x9600
 8007394:	f021 010c 	bic.w	r1, r1, #12
 8007398:	4303      	orrs	r3, r0
 800739a:	430b      	orrs	r3, r1
 800739c:	60d3      	str	r3, [r2, #12]
 800739e:	6953      	ldr	r3, [r2, #20]
 80073a0:	69a9      	ldr	r1, [r5, #24]
 80073a2:	f423 7340 	bic.w	r3, r3, #768	; 0x300
 80073a6:	430b      	orrs	r3, r1
 80073a8:	6153      	str	r3, [r2, #20]
 80073aa:	4b1f      	ldr	r3, [pc, #124]	; (8007428 <UART_SetConfig+0xb8>)
 80073ac:	429a      	cmp	r2, r3
 80073ae:	d003      	beq.n	80073b8 <UART_SetConfig+0x48>
 80073b0:	f503 6380 	add.w	r3, r3, #1024	; 0x400
 80073b4:	429a      	cmp	r2, r3
 80073b6:	d123      	bne.n	8007400 <UART_SetConfig+0x90>
 80073b8:	f7ff f9c2 	bl	8006740 <HAL_RCC_GetPCLK2Freq>
 80073bc:	69eb      	ldr	r3, [r5, #28]
 80073be:	2119      	movs	r1, #25
 80073c0:	f5b3 4f00 	cmp.w	r3, #32768	; 0x8000
 80073c4:	e9d5 4600 	ldrd	r4, r6, [r5]
 80073c8:	fba0 0101 	umull	r0, r1, r0, r1
 80073cc:	d11b      	bne.n	8007406 <UART_SetConfig+0x96>
 80073ce:	19b2      	adds	r2, r6, r6
 80073d0:	f04f 0300 	mov.w	r3, #0
 80073d4:	415b      	adcs	r3, r3
 80073d6:	f7f9 fb9f 	bl	8000b18 <__aeabi_uldivmod>
 80073da:	2264      	movs	r2, #100	; 0x64
 80073dc:	fbb0 f1f2 	udiv	r1, r0, r2
 80073e0:	fb02 0311 	mls	r3, r2, r1, r0
 80073e4:	00db      	lsls	r3, r3, #3
 80073e6:	3332      	adds	r3, #50	; 0x32
 80073e8:	fbb3 f3f2 	udiv	r3, r3, r2
 80073ec:	f003 0207 	and.w	r2, r3, #7
 80073f0:	005b      	lsls	r3, r3, #1
 80073f2:	eb02 1201 	add.w	r2, r2, r1, lsl #4
 80073f6:	f403 73f8 	and.w	r3, r3, #496	; 0x1f0
 80073fa:	4413      	add	r3, r2
 80073fc:	60a3      	str	r3, [r4, #8]
 80073fe:	bd70      	pop	{r4, r5, r6, pc}
 8007400:	f7ff f98e 	bl	8006720 <HAL_RCC_GetPCLK1Freq>
 8007404:	e7da      	b.n	80073bc <UART_SetConfig+0x4c>
 8007406:	00b2      	lsls	r2, r6, #2
 8007408:	0fb3      	lsrs	r3, r6, #30
 800740a:	f7f9 fb85 	bl	8000b18 <__aeabi_uldivmod>
 800740e:	2264      	movs	r2, #100	; 0x64
 8007410:	fbb0 f1f2 	udiv	r1, r0, r2
 8007414:	fb02 0311 	mls	r3, r2, r1, r0
 8007418:	011b      	lsls	r3, r3, #4
 800741a:	3332      	adds	r3, #50	; 0x32
 800741c:	fbb3 f3f2 	udiv	r3, r3, r2
 8007420:	eb03 1301 	add.w	r3, r3, r1, lsl #4
 8007424:	e7ea      	b.n	80073fc <UART_SetConfig+0x8c>
 8007426:	bf00      	nop
 8007428:	40011000 	.word	0x40011000

0800742c <HAL_UART_Init>:
 800742c:	b510      	push	{r4, lr}
 800742e:	4604      	mov	r4, r0
 8007430:	b340      	cbz	r0, 8007484 <HAL_UART_Init+0x58>
 8007432:	f890 303d 	ldrb.w	r3, [r0, #61]	; 0x3d
 8007436:	f003 02ff 	and.w	r2, r3, #255	; 0xff
 800743a:	b91b      	cbnz	r3, 8007444 <HAL_UART_Init+0x18>
 800743c:	f880 203c 	strb.w	r2, [r0, #60]	; 0x3c
 8007440:	f7fc ff44 	bl	80042cc <HAL_UART_MspInit>
 8007444:	6822      	ldr	r2, [r4, #0]
 8007446:	2324      	movs	r3, #36	; 0x24
 8007448:	f884 303d 	strb.w	r3, [r4, #61]	; 0x3d
 800744c:	68d3      	ldr	r3, [r2, #12]
 800744e:	f423 5300 	bic.w	r3, r3, #8192	; 0x2000
 8007452:	60d3      	str	r3, [r2, #12]
 8007454:	4620      	mov	r0, r4
 8007456:	f7ff ff8b 	bl	8007370 <UART_SetConfig>
 800745a:	6823      	ldr	r3, [r4, #0]
 800745c:	691a      	ldr	r2, [r3, #16]
 800745e:	f422 4290 	bic.w	r2, r2, #18432	; 0x4800
 8007462:	611a      	str	r2, [r3, #16]
 8007464:	695a      	ldr	r2, [r3, #20]
 8007466:	f022 022a 	bic.w	r2, r2, #42	; 0x2a
 800746a:	615a      	str	r2, [r3, #20]
 800746c:	68da      	ldr	r2, [r3, #12]
 800746e:	f442 5200 	orr.w	r2, r2, #8192	; 0x2000
 8007472:	60da      	str	r2, [r3, #12]
 8007474:	2000      	movs	r0, #0
 8007476:	2320      	movs	r3, #32
 8007478:	6420      	str	r0, [r4, #64]	; 0x40
 800747a:	f884 303d 	strb.w	r3, [r4, #61]	; 0x3d
 800747e:	f884 303e 	strb.w	r3, [r4, #62]	; 0x3e
 8007482:	bd10      	pop	{r4, pc}
 8007484:	2001      	movs	r0, #1
 8007486:	e7fc      	b.n	8007482 <HAL_UART_Init+0x56>

08007488 <HAL_UART_TxCpltCallback>:
 8007488:	4770      	bx	lr

0800748a <HAL_UART_RxCpltCallback>:
 800748a:	4770      	bx	lr

0800748c <HAL_UART_ErrorCallback>:
 800748c:	4770      	bx	lr

0800748e <UART_DMAAbortOnError>:
 800748e:	b508      	push	{r3, lr}
 8007490:	6b80      	ldr	r0, [r0, #56]	; 0x38
 8007492:	2300      	movs	r3, #0
 8007494:	85c3      	strh	r3, [r0, #46]	; 0x2e
 8007496:	84c3      	strh	r3, [r0, #38]	; 0x26
 8007498:	f7ff fff8 	bl	800748c <HAL_UART_ErrorCallback>
 800749c:	bd08      	pop	{r3, pc}

0800749e <HAL_UARTEx_RxEventCallback>:
 800749e:	4770      	bx	lr

080074a0 <UART_Receive_IT.isra.0>:
 80074a0:	f890 303e 	ldrb.w	r3, [r0, #62]	; 0x3e
 80074a4:	2b22      	cmp	r3, #34	; 0x22
 80074a6:	b507      	push	{r0, r1, r2, lr}
 80074a8:	d141      	bne.n	800752e <UART_Receive_IT.isra.0+0x8e>
 80074aa:	6881      	ldr	r1, [r0, #8]
 80074ac:	6a83      	ldr	r3, [r0, #40]	; 0x28
 80074ae:	6802      	ldr	r2, [r0, #0]
 80074b0:	f5b1 5f80 	cmp.w	r1, #4096	; 0x1000
 80074b4:	d13e      	bne.n	8007534 <UART_Receive_IT.isra.0+0x94>
 80074b6:	6901      	ldr	r1, [r0, #16]
 80074b8:	2900      	cmp	r1, #0
 80074ba:	d13e      	bne.n	800753a <UART_Receive_IT.isra.0+0x9a>
 80074bc:	6852      	ldr	r2, [r2, #4]
 80074be:	f3c2 0208 	ubfx	r2, r2, #0, #9
 80074c2:	f823 2b02 	strh.w	r2, [r3], #2
 80074c6:	6283      	str	r3, [r0, #40]	; 0x28
 80074c8:	8dc3      	ldrh	r3, [r0, #46]	; 0x2e
 80074ca:	3b01      	subs	r3, #1
 80074cc:	b29b      	uxth	r3, r3
 80074ce:	85c3      	strh	r3, [r0, #46]	; 0x2e
 80074d0:	2b00      	cmp	r3, #0
 80074d2:	d12c      	bne.n	800752e <UART_Receive_IT.isra.0+0x8e>
 80074d4:	6802      	ldr	r2, [r0, #0]
 80074d6:	68d1      	ldr	r1, [r2, #12]
 80074d8:	f021 0120 	bic.w	r1, r1, #32
 80074dc:	60d1      	str	r1, [r2, #12]
 80074de:	68d1      	ldr	r1, [r2, #12]
 80074e0:	f421 7180 	bic.w	r1, r1, #256	; 0x100
 80074e4:	60d1      	str	r1, [r2, #12]
 80074e6:	6951      	ldr	r1, [r2, #20]
 80074e8:	f021 0101 	bic.w	r1, r1, #1
 80074ec:	6151      	str	r1, [r2, #20]
 80074ee:	2220      	movs	r2, #32
 80074f0:	f880 203e 	strb.w	r2, [r0, #62]	; 0x3e
 80074f4:	6b02      	ldr	r2, [r0, #48]	; 0x30
 80074f6:	2a01      	cmp	r2, #1
 80074f8:	6802      	ldr	r2, [r0, #0]
 80074fa:	d128      	bne.n	800754e <UART_Receive_IT.isra.0+0xae>
 80074fc:	6303      	str	r3, [r0, #48]	; 0x30
 80074fe:	f102 030c 	add.w	r3, r2, #12
 8007502:	e853 3f00 	ldrex	r3, [r3]
 8007506:	f023 0310 	bic.w	r3, r3, #16
 800750a:	f102 0c0c 	add.w	ip, r2, #12
 800750e:	e84c 3100 	strex	r1, r3, [ip]
 8007512:	2900      	cmp	r1, #0
 8007514:	d1f3      	bne.n	80074fe <UART_Receive_IT.isra.0+0x5e>
 8007516:	6813      	ldr	r3, [r2, #0]
 8007518:	06db      	lsls	r3, r3, #27
 800751a:	d505      	bpl.n	8007528 <UART_Receive_IT.isra.0+0x88>
 800751c:	9101      	str	r1, [sp, #4]
 800751e:	6813      	ldr	r3, [r2, #0]
 8007520:	9301      	str	r3, [sp, #4]
 8007522:	6853      	ldr	r3, [r2, #4]
 8007524:	9301      	str	r3, [sp, #4]
 8007526:	9b01      	ldr	r3, [sp, #4]
 8007528:	8d81      	ldrh	r1, [r0, #44]	; 0x2c
 800752a:	f7ff ffb8 	bl	800749e <HAL_UARTEx_RxEventCallback>
 800752e:	b003      	add	sp, #12
 8007530:	f85d fb04 	ldr.w	pc, [sp], #4
 8007534:	b939      	cbnz	r1, 8007546 <UART_Receive_IT.isra.0+0xa6>
 8007536:	6901      	ldr	r1, [r0, #16]
 8007538:	b929      	cbnz	r1, 8007546 <UART_Receive_IT.isra.0+0xa6>
 800753a:	6852      	ldr	r2, [r2, #4]
 800753c:	b2d2      	uxtb	r2, r2
 800753e:	701a      	strb	r2, [r3, #0]
 8007540:	6a83      	ldr	r3, [r0, #40]	; 0x28
 8007542:	3301      	adds	r3, #1
 8007544:	e7bf      	b.n	80074c6 <UART_Receive_IT.isra.0+0x26>
 8007546:	6852      	ldr	r2, [r2, #4]
 8007548:	f002 027f 	and.w	r2, r2, #127	; 0x7f
 800754c:	e7f7      	b.n	800753e <UART_Receive_IT.isra.0+0x9e>
 800754e:	f7ff ff9c 	bl	800748a <HAL_UART_RxCpltCallback>
 8007552:	e7ec      	b.n	800752e <UART_Receive_IT.isra.0+0x8e>

08007554 <HAL_UART_IRQHandler>:
 8007554:	6803      	ldr	r3, [r0, #0]
 8007556:	681a      	ldr	r2, [r3, #0]
 8007558:	b573      	push	{r0, r1, r4, r5, r6, lr}
 800755a:	0716      	lsls	r6, r2, #28
 800755c:	68d9      	ldr	r1, [r3, #12]
 800755e:	695d      	ldr	r5, [r3, #20]
 8007560:	4604      	mov	r4, r0
 8007562:	d108      	bne.n	8007576 <HAL_UART_IRQHandler+0x22>
 8007564:	0696      	lsls	r6, r2, #26
 8007566:	d568      	bpl.n	800763a <HAL_UART_IRQHandler+0xe6>
 8007568:	068d      	lsls	r5, r1, #26
 800756a:	d566      	bpl.n	800763a <HAL_UART_IRQHandler+0xe6>
 800756c:	b002      	add	sp, #8
 800756e:	e8bd 4070 	ldmia.w	sp!, {r4, r5, r6, lr}
 8007572:	f7ff bf95 	b.w	80074a0 <UART_Receive_IT.isra.0>
 8007576:	f005 0001 	and.w	r0, r5, #1
 800757a:	f401 7590 	and.w	r5, r1, #288	; 0x120
 800757e:	4305      	orrs	r5, r0
 8007580:	d05b      	beq.n	800763a <HAL_UART_IRQHandler+0xe6>
 8007582:	07d6      	lsls	r6, r2, #31
 8007584:	d505      	bpl.n	8007592 <HAL_UART_IRQHandler+0x3e>
 8007586:	05cd      	lsls	r5, r1, #23
 8007588:	bf42      	ittt	mi
 800758a:	6c23      	ldrmi	r3, [r4, #64]	; 0x40
 800758c:	f043 0301 	orrmi.w	r3, r3, #1
 8007590:	6423      	strmi	r3, [r4, #64]	; 0x40
 8007592:	0753      	lsls	r3, r2, #29
 8007594:	d504      	bpl.n	80075a0 <HAL_UART_IRQHandler+0x4c>
 8007596:	b118      	cbz	r0, 80075a0 <HAL_UART_IRQHandler+0x4c>
 8007598:	6c23      	ldr	r3, [r4, #64]	; 0x40
 800759a:	f043 0302 	orr.w	r3, r3, #2
 800759e:	6423      	str	r3, [r4, #64]	; 0x40
 80075a0:	0796      	lsls	r6, r2, #30
 80075a2:	d504      	bpl.n	80075ae <HAL_UART_IRQHandler+0x5a>
 80075a4:	b118      	cbz	r0, 80075ae <HAL_UART_IRQHandler+0x5a>
 80075a6:	6c23      	ldr	r3, [r4, #64]	; 0x40
 80075a8:	f043 0304 	orr.w	r3, r3, #4
 80075ac:	6423      	str	r3, [r4, #64]	; 0x40
 80075ae:	0715      	lsls	r5, r2, #28
 80075b0:	d507      	bpl.n	80075c2 <HAL_UART_IRQHandler+0x6e>
 80075b2:	f001 0320 	and.w	r3, r1, #32
 80075b6:	4303      	orrs	r3, r0
 80075b8:	bf1e      	ittt	ne
 80075ba:	6c23      	ldrne	r3, [r4, #64]	; 0x40
 80075bc:	f043 0308 	orrne.w	r3, r3, #8
 80075c0:	6423      	strne	r3, [r4, #64]	; 0x40
 80075c2:	6c23      	ldr	r3, [r4, #64]	; 0x40
 80075c4:	2b00      	cmp	r3, #0
 80075c6:	d032      	beq.n	800762e <HAL_UART_IRQHandler+0xda>
 80075c8:	0692      	lsls	r2, r2, #26
 80075ca:	d504      	bpl.n	80075d6 <HAL_UART_IRQHandler+0x82>
 80075cc:	068b      	lsls	r3, r1, #26
 80075ce:	d502      	bpl.n	80075d6 <HAL_UART_IRQHandler+0x82>
 80075d0:	4620      	mov	r0, r4
 80075d2:	f7ff ff65 	bl	80074a0 <UART_Receive_IT.isra.0>
 80075d6:	6826      	ldr	r6, [r4, #0]
 80075d8:	6973      	ldr	r3, [r6, #20]
 80075da:	6c22      	ldr	r2, [r4, #64]	; 0x40
 80075dc:	f003 0340 	and.w	r3, r3, #64	; 0x40
 80075e0:	f002 0208 	and.w	r2, r2, #8
 80075e4:	ea53 0502 	orrs.w	r5, r3, r2
 80075e8:	4620      	mov	r0, r4
 80075ea:	d022      	beq.n	8007632 <HAL_UART_IRQHandler+0xde>
 80075ec:	f7ff fe92 	bl	8007314 <UART_EndRxTransfer>
 80075f0:	6973      	ldr	r3, [r6, #20]
 80075f2:	065e      	lsls	r6, r3, #25
 80075f4:	d518      	bpl.n	8007628 <HAL_UART_IRQHandler+0xd4>
 80075f6:	6822      	ldr	r2, [r4, #0]
 80075f8:	f102 0314 	add.w	r3, r2, #20
 80075fc:	e853 3f00 	ldrex	r3, [r3]
 8007600:	f023 0340 	bic.w	r3, r3, #64	; 0x40
 8007604:	3214      	adds	r2, #20
 8007606:	e842 3100 	strex	r1, r3, [r2]
 800760a:	2900      	cmp	r1, #0
 800760c:	d1f3      	bne.n	80075f6 <HAL_UART_IRQHandler+0xa2>
 800760e:	6ba0      	ldr	r0, [r4, #56]	; 0x38
 8007610:	b150      	cbz	r0, 8007628 <HAL_UART_IRQHandler+0xd4>
 8007612:	4b72      	ldr	r3, [pc, #456]	; (80077dc <HAL_UART_IRQHandler+0x288>)
 8007614:	6503      	str	r3, [r0, #80]	; 0x50
 8007616:	f7fe f9cc 	bl	80059b2 <HAL_DMA_Abort_IT>
 800761a:	b140      	cbz	r0, 800762e <HAL_UART_IRQHandler+0xda>
 800761c:	6ba0      	ldr	r0, [r4, #56]	; 0x38
 800761e:	6d03      	ldr	r3, [r0, #80]	; 0x50
 8007620:	b002      	add	sp, #8
 8007622:	e8bd 4070 	ldmia.w	sp!, {r4, r5, r6, lr}
 8007626:	4718      	bx	r3
 8007628:	4620      	mov	r0, r4
 800762a:	f7ff ff2f 	bl	800748c <HAL_UART_ErrorCallback>
 800762e:	b002      	add	sp, #8
 8007630:	bd70      	pop	{r4, r5, r6, pc}
 8007632:	f7ff ff2b 	bl	800748c <HAL_UART_ErrorCallback>
 8007636:	6425      	str	r5, [r4, #64]	; 0x40
 8007638:	e7f9      	b.n	800762e <HAL_UART_IRQHandler+0xda>
 800763a:	6b20      	ldr	r0, [r4, #48]	; 0x30
 800763c:	2801      	cmp	r0, #1
 800763e:	f040 8091 	bne.w	8007764 <HAL_UART_IRQHandler+0x210>
 8007642:	06d5      	lsls	r5, r2, #27
 8007644:	f140 808e 	bpl.w	8007764 <HAL_UART_IRQHandler+0x210>
 8007648:	06c8      	lsls	r0, r1, #27
 800764a:	f140 808b 	bpl.w	8007764 <HAL_UART_IRQHandler+0x210>
 800764e:	2200      	movs	r2, #0
 8007650:	9201      	str	r2, [sp, #4]
 8007652:	681a      	ldr	r2, [r3, #0]
 8007654:	9201      	str	r2, [sp, #4]
 8007656:	685a      	ldr	r2, [r3, #4]
 8007658:	9201      	str	r2, [sp, #4]
 800765a:	9a01      	ldr	r2, [sp, #4]
 800765c:	695a      	ldr	r2, [r3, #20]
 800765e:	0652      	lsls	r2, r2, #25
 8007660:	d54c      	bpl.n	80076fc <HAL_UART_IRQHandler+0x1a8>
 8007662:	6ba1      	ldr	r1, [r4, #56]	; 0x38
 8007664:	680a      	ldr	r2, [r1, #0]
 8007666:	6852      	ldr	r2, [r2, #4]
 8007668:	b292      	uxth	r2, r2
 800766a:	2a00      	cmp	r2, #0
 800766c:	d0df      	beq.n	800762e <HAL_UART_IRQHandler+0xda>
 800766e:	8da0      	ldrh	r0, [r4, #44]	; 0x2c
 8007670:	4290      	cmp	r0, r2
 8007672:	d9dc      	bls.n	800762e <HAL_UART_IRQHandler+0xda>
 8007674:	85e2      	strh	r2, [r4, #46]	; 0x2e
 8007676:	69ca      	ldr	r2, [r1, #28]
 8007678:	f5b2 7f80 	cmp.w	r2, #256	; 0x100
 800767c:	d036      	beq.n	80076ec <HAL_UART_IRQHandler+0x198>
 800767e:	f103 020c 	add.w	r2, r3, #12
 8007682:	e852 2f00 	ldrex	r2, [r2]
 8007686:	f422 7280 	bic.w	r2, r2, #256	; 0x100
 800768a:	f103 000c 	add.w	r0, r3, #12
 800768e:	e840 2100 	strex	r1, r2, [r0]
 8007692:	2900      	cmp	r1, #0
 8007694:	d1f3      	bne.n	800767e <HAL_UART_IRQHandler+0x12a>
 8007696:	f103 0214 	add.w	r2, r3, #20
 800769a:	e852 2f00 	ldrex	r2, [r2]
 800769e:	f022 0201 	bic.w	r2, r2, #1
 80076a2:	f103 0014 	add.w	r0, r3, #20
 80076a6:	e840 2100 	strex	r1, r2, [r0]
 80076aa:	2900      	cmp	r1, #0
 80076ac:	d1f3      	bne.n	8007696 <HAL_UART_IRQHandler+0x142>
 80076ae:	f103 0214 	add.w	r2, r3, #20
 80076b2:	e852 2f00 	ldrex	r2, [r2]
 80076b6:	f022 0240 	bic.w	r2, r2, #64	; 0x40
 80076ba:	f103 0014 	add.w	r0, r3, #20
 80076be:	e840 2100 	strex	r1, r2, [r0]
 80076c2:	2900      	cmp	r1, #0
 80076c4:	d1f3      	bne.n	80076ae <HAL_UART_IRQHandler+0x15a>
 80076c6:	2220      	movs	r2, #32
 80076c8:	f884 203e 	strb.w	r2, [r4, #62]	; 0x3e
 80076cc:	6321      	str	r1, [r4, #48]	; 0x30
 80076ce:	f103 020c 	add.w	r2, r3, #12
 80076d2:	e852 2f00 	ldrex	r2, [r2]
 80076d6:	f022 0210 	bic.w	r2, r2, #16
 80076da:	f103 000c 	add.w	r0, r3, #12
 80076de:	e840 2100 	strex	r1, r2, [r0]
 80076e2:	2900      	cmp	r1, #0
 80076e4:	d1f3      	bne.n	80076ce <HAL_UART_IRQHandler+0x17a>
 80076e6:	6ba0      	ldr	r0, [r4, #56]	; 0x38
 80076e8:	f7fe f924 	bl	8005934 <HAL_DMA_Abort>
 80076ec:	8de3      	ldrh	r3, [r4, #46]	; 0x2e
 80076ee:	8da1      	ldrh	r1, [r4, #44]	; 0x2c
 80076f0:	1ac9      	subs	r1, r1, r3
 80076f2:	b289      	uxth	r1, r1
 80076f4:	4620      	mov	r0, r4
 80076f6:	f7ff fed2 	bl	800749e <HAL_UARTEx_RxEventCallback>
 80076fa:	e798      	b.n	800762e <HAL_UART_IRQHandler+0xda>
 80076fc:	8de2      	ldrh	r2, [r4, #46]	; 0x2e
 80076fe:	8de0      	ldrh	r0, [r4, #46]	; 0x2e
 8007700:	8da1      	ldrh	r1, [r4, #44]	; 0x2c
 8007702:	b280      	uxth	r0, r0
 8007704:	b292      	uxth	r2, r2
 8007706:	2800      	cmp	r0, #0
 8007708:	d091      	beq.n	800762e <HAL_UART_IRQHandler+0xda>
 800770a:	1a89      	subs	r1, r1, r2
 800770c:	b289      	uxth	r1, r1
 800770e:	2900      	cmp	r1, #0
 8007710:	d08d      	beq.n	800762e <HAL_UART_IRQHandler+0xda>
 8007712:	f103 020c 	add.w	r2, r3, #12
 8007716:	e852 2f00 	ldrex	r2, [r2]
 800771a:	f422 7290 	bic.w	r2, r2, #288	; 0x120
 800771e:	f103 050c 	add.w	r5, r3, #12
 8007722:	e845 2000 	strex	r0, r2, [r5]
 8007726:	2800      	cmp	r0, #0
 8007728:	d1f3      	bne.n	8007712 <HAL_UART_IRQHandler+0x1be>
 800772a:	f103 0214 	add.w	r2, r3, #20
 800772e:	e852 2f00 	ldrex	r2, [r2]
 8007732:	f022 0201 	bic.w	r2, r2, #1
 8007736:	f103 0514 	add.w	r5, r3, #20
 800773a:	e845 2000 	strex	r0, r2, [r5]
 800773e:	2800      	cmp	r0, #0
 8007740:	d1f3      	bne.n	800772a <HAL_UART_IRQHandler+0x1d6>
 8007742:	2220      	movs	r2, #32
 8007744:	f884 203e 	strb.w	r2, [r4, #62]	; 0x3e
 8007748:	6320      	str	r0, [r4, #48]	; 0x30
 800774a:	f103 020c 	add.w	r2, r3, #12
 800774e:	e852 2f00 	ldrex	r2, [r2]
 8007752:	f022 0210 	bic.w	r2, r2, #16
 8007756:	f103 050c 	add.w	r5, r3, #12
 800775a:	e845 2000 	strex	r0, r2, [r5]
 800775e:	2800      	cmp	r0, #0
 8007760:	d1f3      	bne.n	800774a <HAL_UART_IRQHandler+0x1f6>
 8007762:	e7c7      	b.n	80076f4 <HAL_UART_IRQHandler+0x1a0>
 8007764:	0616      	lsls	r6, r2, #24
 8007766:	d528      	bpl.n	80077ba <HAL_UART_IRQHandler+0x266>
 8007768:	060d      	lsls	r5, r1, #24
 800776a:	d526      	bpl.n	80077ba <HAL_UART_IRQHandler+0x266>
 800776c:	f894 203d 	ldrb.w	r2, [r4, #61]	; 0x3d
 8007770:	2a21      	cmp	r2, #33	; 0x21
 8007772:	f47f af5c 	bne.w	800762e <HAL_UART_IRQHandler+0xda>
 8007776:	68a1      	ldr	r1, [r4, #8]
 8007778:	6a22      	ldr	r2, [r4, #32]
 800777a:	f5b1 5f80 	cmp.w	r1, #4096	; 0x1000
 800777e:	d117      	bne.n	80077b0 <HAL_UART_IRQHandler+0x25c>
 8007780:	6921      	ldr	r1, [r4, #16]
 8007782:	b9a9      	cbnz	r1, 80077b0 <HAL_UART_IRQHandler+0x25c>
 8007784:	f832 1b02 	ldrh.w	r1, [r2], #2
 8007788:	f3c1 0108 	ubfx	r1, r1, #0, #9
 800778c:	6059      	str	r1, [r3, #4]
 800778e:	6222      	str	r2, [r4, #32]
 8007790:	8ce2      	ldrh	r2, [r4, #38]	; 0x26
 8007792:	3a01      	subs	r2, #1
 8007794:	b292      	uxth	r2, r2
 8007796:	84e2      	strh	r2, [r4, #38]	; 0x26
 8007798:	2a00      	cmp	r2, #0
 800779a:	f47f af48 	bne.w	800762e <HAL_UART_IRQHandler+0xda>
 800779e:	68da      	ldr	r2, [r3, #12]
 80077a0:	f022 0280 	bic.w	r2, r2, #128	; 0x80
 80077a4:	60da      	str	r2, [r3, #12]
 80077a6:	68da      	ldr	r2, [r3, #12]
 80077a8:	f042 0240 	orr.w	r2, r2, #64	; 0x40
 80077ac:	60da      	str	r2, [r3, #12]
 80077ae:	e73e      	b.n	800762e <HAL_UART_IRQHandler+0xda>
 80077b0:	1c51      	adds	r1, r2, #1
 80077b2:	6221      	str	r1, [r4, #32]
 80077b4:	7812      	ldrb	r2, [r2, #0]
 80077b6:	605a      	str	r2, [r3, #4]
 80077b8:	e7ea      	b.n	8007790 <HAL_UART_IRQHandler+0x23c>
 80077ba:	0650      	lsls	r0, r2, #25
 80077bc:	f57f af37 	bpl.w	800762e <HAL_UART_IRQHandler+0xda>
 80077c0:	064a      	lsls	r2, r1, #25
 80077c2:	f57f af34 	bpl.w	800762e <HAL_UART_IRQHandler+0xda>
 80077c6:	68da      	ldr	r2, [r3, #12]
 80077c8:	f022 0240 	bic.w	r2, r2, #64	; 0x40
 80077cc:	60da      	str	r2, [r3, #12]
 80077ce:	2320      	movs	r3, #32
 80077d0:	f884 303d 	strb.w	r3, [r4, #61]	; 0x3d
 80077d4:	4620      	mov	r0, r4
 80077d6:	f7ff fe57 	bl	8007488 <HAL_UART_TxCpltCallback>
 80077da:	e728      	b.n	800762e <HAL_UART_IRQHandler+0xda>
 80077dc:	0800748f 	.word	0x0800748f

080077e0 <FMC_SDRAM_Init>:
 80077e0:	e92d 41f0 	stmdb	sp!, {r4, r5, r6, r7, r8, lr}
 80077e4:	e9d1 3807 	ldrd	r3, r8, [r1, #28]
 80077e8:	e9d1 2c01 	ldrd	r2, ip, [r1, #4]
 80077ec:	e9d1 7603 	ldrd	r7, r6, [r1, #12]
 80077f0:	e9d1 5405 	ldrd	r5, r4, [r1, #20]
 80077f4:	f8d1 e024 	ldr.w	lr, [r1, #36]	; 0x24
 80077f8:	6809      	ldr	r1, [r1, #0]
 80077fa:	ea43 0308 	orr.w	r3, r3, r8
 80077fe:	b991      	cbnz	r1, 8007826 <FMC_SDRAM_Init+0x46>
 8007800:	ea43 030e 	orr.w	r3, r3, lr
 8007804:	4313      	orrs	r3, r2
 8007806:	ea43 030c 	orr.w	r3, r3, ip
 800780a:	6801      	ldr	r1, [r0, #0]
 800780c:	433b      	orrs	r3, r7
 800780e:	4333      	orrs	r3, r6
 8007810:	432b      	orrs	r3, r5
 8007812:	f421 41ff 	bic.w	r1, r1, #32640	; 0x7f80
 8007816:	4323      	orrs	r3, r4
 8007818:	f021 017f 	bic.w	r1, r1, #127	; 0x7f
 800781c:	430b      	orrs	r3, r1
 800781e:	6003      	str	r3, [r0, #0]
 8007820:	2000      	movs	r0, #0
 8007822:	e8bd 81f0 	ldmia.w	sp!, {r4, r5, r6, r7, r8, pc}
 8007826:	6801      	ldr	r1, [r0, #0]
 8007828:	ea43 030e 	orr.w	r3, r3, lr
 800782c:	f421 41f8 	bic.w	r1, r1, #31744	; 0x7c00
 8007830:	430b      	orrs	r3, r1
 8007832:	6003      	str	r3, [r0, #0]
 8007834:	ea42 030c 	orr.w	r3, r2, ip
 8007838:	6841      	ldr	r1, [r0, #4]
 800783a:	433b      	orrs	r3, r7
 800783c:	4333      	orrs	r3, r6
 800783e:	432b      	orrs	r3, r5
 8007840:	f421 42ff 	bic.w	r2, r1, #32640	; 0x7f80
 8007844:	4323      	orrs	r3, r4
 8007846:	f022 027f 	bic.w	r2, r2, #127	; 0x7f
 800784a:	4313      	orrs	r3, r2
 800784c:	6043      	str	r3, [r0, #4]
 800784e:	e7e7      	b.n	8007820 <FMC_SDRAM_Init+0x40>

08007850 <FMC_SDRAM_Timing_Init>:
 8007850:	68cb      	ldr	r3, [r1, #12]
 8007852:	f103 3cff 	add.w	ip, r3, #4294967295
 8007856:	694b      	ldr	r3, [r1, #20]
 8007858:	b5f0      	push	{r4, r5, r6, r7, lr}
 800785a:	680f      	ldr	r7, [r1, #0]
 800785c:	684c      	ldr	r4, [r1, #4]
 800785e:	688e      	ldr	r6, [r1, #8]
 8007860:	690d      	ldr	r5, [r1, #16]
 8007862:	6989      	ldr	r1, [r1, #24]
 8007864:	3b01      	subs	r3, #1
 8007866:	051b      	lsls	r3, r3, #20
 8007868:	3c01      	subs	r4, #1
 800786a:	3e01      	subs	r6, #1
 800786c:	3d01      	subs	r5, #1
 800786e:	3901      	subs	r1, #1
 8007870:	3f01      	subs	r7, #1
 8007872:	0124      	lsls	r4, r4, #4
 8007874:	0236      	lsls	r6, r6, #8
 8007876:	042d      	lsls	r5, r5, #16
 8007878:	0609      	lsls	r1, r1, #24
 800787a:	ea43 330c 	orr.w	r3, r3, ip, lsl #12
 800787e:	b95a      	cbnz	r2, 8007898 <FMC_SDRAM_Timing_Init+0x48>
 8007880:	433b      	orrs	r3, r7
 8007882:	4323      	orrs	r3, r4
 8007884:	6882      	ldr	r2, [r0, #8]
 8007886:	4333      	orrs	r3, r6
 8007888:	432b      	orrs	r3, r5
 800788a:	430b      	orrs	r3, r1
 800788c:	f002 4270 	and.w	r2, r2, #4026531840	; 0xf0000000
 8007890:	4313      	orrs	r3, r2
 8007892:	6083      	str	r3, [r0, #8]
 8007894:	2000      	movs	r0, #0
 8007896:	bdf0      	pop	{r4, r5, r6, r7, pc}
 8007898:	6882      	ldr	r2, [r0, #8]
 800789a:	f422 0270 	bic.w	r2, r2, #15728640	; 0xf00000
 800789e:	f422 4270 	bic.w	r2, r2, #61440	; 0xf000
 80078a2:	431a      	orrs	r2, r3
 80078a4:	6082      	str	r2, [r0, #8]
 80078a6:	ea44 0306 	orr.w	r3, r4, r6
 80078aa:	68c2      	ldr	r2, [r0, #12]
 80078ac:	433b      	orrs	r3, r7
 80078ae:	432b      	orrs	r3, r5
 80078b0:	430b      	orrs	r3, r1
 80078b2:	f002 4270 	and.w	r2, r2, #4026531840	; 0xf0000000
 80078b6:	4313      	orrs	r3, r2
 80078b8:	60c3      	str	r3, [r0, #12]
 80078ba:	e7eb      	b.n	8007894 <FMC_SDRAM_Timing_Init+0x44>

080078bc <FMC_SDRAM_SendCommand>:
 80078bc:	b570      	push	{r4, r5, r6, lr}
 80078be:	4604      	mov	r4, r0
 80078c0:	4615      	mov	r5, r2
 80078c2:	6902      	ldr	r2, [r0, #16]
 80078c4:	e9d1 3000 	ldrd	r3, r0, [r1]
 80078c8:	4303      	orrs	r3, r0
 80078ca:	68c8      	ldr	r0, [r1, #12]
 80078cc:	0d92      	lsrs	r2, r2, #22
 80078ce:	ea43 2340 	orr.w	r3, r3, r0, lsl #9
 80078d2:	0592      	lsls	r2, r2, #22
 80078d4:	4313      	orrs	r3, r2
 80078d6:	688a      	ldr	r2, [r1, #8]
 80078d8:	3a01      	subs	r2, #1
 80078da:	ea43 1342 	orr.w	r3, r3, r2, lsl #5
 80078de:	6123      	str	r3, [r4, #16]
 80078e0:	f7fd ffa8 	bl	8005834 <HAL_GetTick>
 80078e4:	4606      	mov	r6, r0
 80078e6:	69a3      	ldr	r3, [r4, #24]
 80078e8:	f013 0320 	ands.w	r3, r3, #32
 80078ec:	d101      	bne.n	80078f2 <FMC_SDRAM_SendCommand+0x36>
 80078ee:	4618      	mov	r0, r3
 80078f0:	e003      	b.n	80078fa <FMC_SDRAM_SendCommand+0x3e>
 80078f2:	1c6b      	adds	r3, r5, #1
 80078f4:	d0f7      	beq.n	80078e6 <FMC_SDRAM_SendCommand+0x2a>
 80078f6:	b90d      	cbnz	r5, 80078fc <FMC_SDRAM_SendCommand+0x40>
 80078f8:	2003      	movs	r0, #3
 80078fa:	bd70      	pop	{r4, r5, r6, pc}
 80078fc:	f7fd ff9a 	bl	8005834 <HAL_GetTick>
 8007900:	1b80      	subs	r0, r0, r6
 8007902:	42a8      	cmp	r0, r5
 8007904:	d9ef      	bls.n	80078e6 <FMC_SDRAM_SendCommand+0x2a>
 8007906:	e7f7      	b.n	80078f8 <FMC_SDRAM_SendCommand+0x3c>

08007908 <__itoa>:
 8007908:	1e93      	subs	r3, r2, #2
 800790a:	2b22      	cmp	r3, #34	; 0x22
 800790c:	b510      	push	{r4, lr}
 800790e:	460c      	mov	r4, r1
 8007910:	d904      	bls.n	800791c <__itoa+0x14>
 8007912:	2300      	movs	r3, #0
 8007914:	700b      	strb	r3, [r1, #0]
 8007916:	461c      	mov	r4, r3
 8007918:	4620      	mov	r0, r4
 800791a:	bd10      	pop	{r4, pc}
 800791c:	2a0a      	cmp	r2, #10
 800791e:	d109      	bne.n	8007934 <__itoa+0x2c>
 8007920:	2800      	cmp	r0, #0
 8007922:	da07      	bge.n	8007934 <__itoa+0x2c>
 8007924:	232d      	movs	r3, #45	; 0x2d
 8007926:	700b      	strb	r3, [r1, #0]
 8007928:	4240      	negs	r0, r0
 800792a:	2101      	movs	r1, #1
 800792c:	4421      	add	r1, r4
 800792e:	f000 f805 	bl	800793c <__utoa>
 8007932:	e7f1      	b.n	8007918 <__itoa+0x10>
 8007934:	2100      	movs	r1, #0
 8007936:	e7f9      	b.n	800792c <__itoa+0x24>

08007938 <itoa>:
 8007938:	f7ff bfe6 	b.w	8007908 <__itoa>

0800793c <__utoa>:
 800793c:	b5f0      	push	{r4, r5, r6, r7, lr}
 800793e:	4c1f      	ldr	r4, [pc, #124]	; (80079bc <__utoa+0x80>)
 8007940:	b08b      	sub	sp, #44	; 0x2c
 8007942:	4605      	mov	r5, r0
 8007944:	460b      	mov	r3, r1
 8007946:	466e      	mov	r6, sp
 8007948:	f104 0c20 	add.w	ip, r4, #32
 800794c:	6820      	ldr	r0, [r4, #0]
 800794e:	6861      	ldr	r1, [r4, #4]
 8007950:	4637      	mov	r7, r6
 8007952:	c703      	stmia	r7!, {r0, r1}
 8007954:	3408      	adds	r4, #8
 8007956:	4564      	cmp	r4, ip
 8007958:	463e      	mov	r6, r7
 800795a:	d1f7      	bne.n	800794c <__utoa+0x10>
 800795c:	7921      	ldrb	r1, [r4, #4]
 800795e:	7139      	strb	r1, [r7, #4]
 8007960:	1e91      	subs	r1, r2, #2
 8007962:	6820      	ldr	r0, [r4, #0]
 8007964:	6038      	str	r0, [r7, #0]
 8007966:	2922      	cmp	r1, #34	; 0x22
 8007968:	f04f 0100 	mov.w	r1, #0
 800796c:	d904      	bls.n	8007978 <__utoa+0x3c>
 800796e:	7019      	strb	r1, [r3, #0]
 8007970:	460b      	mov	r3, r1
 8007972:	4618      	mov	r0, r3
 8007974:	b00b      	add	sp, #44	; 0x2c
 8007976:	bdf0      	pop	{r4, r5, r6, r7, pc}
 8007978:	1e58      	subs	r0, r3, #1
 800797a:	4684      	mov	ip, r0
 800797c:	fbb5 f7f2 	udiv	r7, r5, r2
 8007980:	fb02 5617 	mls	r6, r2, r7, r5
 8007984:	3628      	adds	r6, #40	; 0x28
 8007986:	446e      	add	r6, sp
 8007988:	460c      	mov	r4, r1
 800798a:	f816 6c28 	ldrb.w	r6, [r6, #-40]
 800798e:	f80c 6f01 	strb.w	r6, [ip, #1]!
 8007992:	462e      	mov	r6, r5
 8007994:	42b2      	cmp	r2, r6
 8007996:	f101 0101 	add.w	r1, r1, #1
 800799a:	463d      	mov	r5, r7
 800799c:	d9ee      	bls.n	800797c <__utoa+0x40>
 800799e:	2200      	movs	r2, #0
 80079a0:	545a      	strb	r2, [r3, r1]
 80079a2:	1919      	adds	r1, r3, r4
 80079a4:	1aa5      	subs	r5, r4, r2
 80079a6:	42aa      	cmp	r2, r5
 80079a8:	dae3      	bge.n	8007972 <__utoa+0x36>
 80079aa:	f810 5f01 	ldrb.w	r5, [r0, #1]!
 80079ae:	780e      	ldrb	r6, [r1, #0]
 80079b0:	7006      	strb	r6, [r0, #0]
 80079b2:	3201      	adds	r2, #1
 80079b4:	f801 5901 	strb.w	r5, [r1], #-1
 80079b8:	e7f4      	b.n	80079a4 <__utoa+0x68>
 80079ba:	bf00      	nop
 80079bc:	0800df59 	.word	0x0800df59

080079c0 <memmove>:
 80079c0:	4288      	cmp	r0, r1
 80079c2:	b510      	push	{r4, lr}
 80079c4:	eb01 0402 	add.w	r4, r1, r2
 80079c8:	d902      	bls.n	80079d0 <memmove+0x10>
 80079ca:	4284      	cmp	r4, r0
 80079cc:	4623      	mov	r3, r4
 80079ce:	d807      	bhi.n	80079e0 <memmove+0x20>
 80079d0:	1e43      	subs	r3, r0, #1
 80079d2:	42a1      	cmp	r1, r4
 80079d4:	d008      	beq.n	80079e8 <memmove+0x28>
 80079d6:	f811 2b01 	ldrb.w	r2, [r1], #1
 80079da:	f803 2f01 	strb.w	r2, [r3, #1]!
 80079de:	e7f8      	b.n	80079d2 <memmove+0x12>
 80079e0:	4402      	add	r2, r0
 80079e2:	4601      	mov	r1, r0
 80079e4:	428a      	cmp	r2, r1
 80079e6:	d100      	bne.n	80079ea <memmove+0x2a>
 80079e8:	bd10      	pop	{r4, pc}
 80079ea:	f813 4d01 	ldrb.w	r4, [r3, #-1]!
 80079ee:	f802 4d01 	strb.w	r4, [r2, #-1]!
 80079f2:	e7f7      	b.n	80079e4 <memmove+0x24>

080079f4 <memset>:
 80079f4:	4402      	add	r2, r0
 80079f6:	4603      	mov	r3, r0
 80079f8:	4293      	cmp	r3, r2
 80079fa:	d100      	bne.n	80079fe <memset+0xa>
 80079fc:	4770      	bx	lr
 80079fe:	f803 1b01 	strb.w	r1, [r3], #1
 8007a02:	e7f9      	b.n	80079f8 <memset+0x4>

08007a04 <__errno>:
 8007a04:	4b01      	ldr	r3, [pc, #4]	; (8007a0c <__errno+0x8>)
 8007a06:	6818      	ldr	r0, [r3, #0]
 8007a08:	4770      	bx	lr
 8007a0a:	bf00      	nop
 8007a0c:	20000074 	.word	0x20000074

08007a10 <__libc_init_array>:
 8007a10:	b570      	push	{r4, r5, r6, lr}
 8007a12:	4d0d      	ldr	r5, [pc, #52]	; (8007a48 <__libc_init_array+0x38>)
 8007a14:	4c0d      	ldr	r4, [pc, #52]	; (8007a4c <__libc_init_array+0x3c>)
 8007a16:	1b64      	subs	r4, r4, r5
 8007a18:	10a4      	asrs	r4, r4, #2
 8007a1a:	2600      	movs	r6, #0
 8007a1c:	42a6      	cmp	r6, r4
 8007a1e:	d109      	bne.n	8007a34 <__libc_init_array+0x24>
 8007a20:	4d0b      	ldr	r5, [pc, #44]	; (8007a50 <__libc_init_array+0x40>)
 8007a22:	4c0c      	ldr	r4, [pc, #48]	; (8007a54 <__libc_init_array+0x44>)
 8007a24:	f000 ff50 	bl	80088c8 <_init>
 8007a28:	1b64      	subs	r4, r4, r5
 8007a2a:	10a4      	asrs	r4, r4, #2
 8007a2c:	2600      	movs	r6, #0
 8007a2e:	42a6      	cmp	r6, r4
 8007a30:	d105      	bne.n	8007a3e <__libc_init_array+0x2e>
 8007a32:	bd70      	pop	{r4, r5, r6, pc}
 8007a34:	f855 3b04 	ldr.w	r3, [r5], #4
 8007a38:	4798      	blx	r3
 8007a3a:	3601      	adds	r6, #1
 8007a3c:	e7ee      	b.n	8007a1c <__libc_init_array+0xc>
 8007a3e:	f855 3b04 	ldr.w	r3, [r5], #4
 8007a42:	4798      	blx	r3
 8007a44:	3601      	adds	r6, #1
 8007a46:	e7f2      	b.n	8007a2e <__libc_init_array+0x1e>
 8007a48:	0800dfb8 	.word	0x0800dfb8
 8007a4c:	0800dfb8 	.word	0x0800dfb8
 8007a50:	0800dfb8 	.word	0x0800dfb8
 8007a54:	0800dfbc 	.word	0x0800dfbc

08007a58 <pow>:
 8007a58:	b5f8      	push	{r3, r4, r5, r6, r7, lr}
 8007a5a:	ed2d 8b02 	vpush	{d8}
 8007a5e:	eeb0 8a40 	vmov.f32	s16, s0
 8007a62:	eef0 8a60 	vmov.f32	s17, s1
 8007a66:	ec55 4b11 	vmov	r4, r5, d1
 8007a6a:	f000 f871 	bl	8007b50 <__ieee754_pow>
 8007a6e:	4622      	mov	r2, r4
 8007a70:	462b      	mov	r3, r5
 8007a72:	4620      	mov	r0, r4
 8007a74:	4629      	mov	r1, r5
 8007a76:	ec57 6b10 	vmov	r6, r7, d0
 8007a7a:	f7f9 f80f 	bl	8000a9c <__aeabi_dcmpun>
 8007a7e:	2800      	cmp	r0, #0
 8007a80:	d13b      	bne.n	8007afa <pow+0xa2>
 8007a82:	ec51 0b18 	vmov	r0, r1, d8
 8007a86:	2200      	movs	r2, #0
 8007a88:	2300      	movs	r3, #0
 8007a8a:	f7f8 ffd5 	bl	8000a38 <__aeabi_dcmpeq>
 8007a8e:	b1b8      	cbz	r0, 8007ac0 <pow+0x68>
 8007a90:	2200      	movs	r2, #0
 8007a92:	2300      	movs	r3, #0
 8007a94:	4620      	mov	r0, r4
 8007a96:	4629      	mov	r1, r5
 8007a98:	f7f8 ffce 	bl	8000a38 <__aeabi_dcmpeq>
 8007a9c:	2800      	cmp	r0, #0
 8007a9e:	d146      	bne.n	8007b2e <pow+0xd6>
 8007aa0:	ec45 4b10 	vmov	d0, r4, r5
 8007aa4:	f000 f848 	bl	8007b38 <finite>
 8007aa8:	b338      	cbz	r0, 8007afa <pow+0xa2>
 8007aaa:	2200      	movs	r2, #0
 8007aac:	2300      	movs	r3, #0
 8007aae:	4620      	mov	r0, r4
 8007ab0:	4629      	mov	r1, r5
 8007ab2:	f7f8 ffcb 	bl	8000a4c <__aeabi_dcmplt>
 8007ab6:	b300      	cbz	r0, 8007afa <pow+0xa2>
 8007ab8:	f7ff ffa4 	bl	8007a04 <__errno>
 8007abc:	2322      	movs	r3, #34	; 0x22
 8007abe:	e01b      	b.n	8007af8 <pow+0xa0>
 8007ac0:	ec47 6b10 	vmov	d0, r6, r7
 8007ac4:	f000 f838 	bl	8007b38 <finite>
 8007ac8:	b9e0      	cbnz	r0, 8007b04 <pow+0xac>
 8007aca:	eeb0 0a48 	vmov.f32	s0, s16
 8007ace:	eef0 0a68 	vmov.f32	s1, s17
 8007ad2:	f000 f831 	bl	8007b38 <finite>
 8007ad6:	b1a8      	cbz	r0, 8007b04 <pow+0xac>
 8007ad8:	ec45 4b10 	vmov	d0, r4, r5
 8007adc:	f000 f82c 	bl	8007b38 <finite>
 8007ae0:	b180      	cbz	r0, 8007b04 <pow+0xac>
 8007ae2:	4632      	mov	r2, r6
 8007ae4:	463b      	mov	r3, r7
 8007ae6:	4630      	mov	r0, r6
 8007ae8:	4639      	mov	r1, r7
 8007aea:	f7f8 ffd7 	bl	8000a9c <__aeabi_dcmpun>
 8007aee:	2800      	cmp	r0, #0
 8007af0:	d0e2      	beq.n	8007ab8 <pow+0x60>
 8007af2:	f7ff ff87 	bl	8007a04 <__errno>
 8007af6:	2321      	movs	r3, #33	; 0x21
 8007af8:	6003      	str	r3, [r0, #0]
 8007afa:	ecbd 8b02 	vpop	{d8}
 8007afe:	ec47 6b10 	vmov	d0, r6, r7
 8007b02:	bdf8      	pop	{r3, r4, r5, r6, r7, pc}
 8007b04:	2200      	movs	r2, #0
 8007b06:	2300      	movs	r3, #0
 8007b08:	4630      	mov	r0, r6
 8007b0a:	4639      	mov	r1, r7
 8007b0c:	f7f8 ff94 	bl	8000a38 <__aeabi_dcmpeq>
 8007b10:	2800      	cmp	r0, #0
 8007b12:	d0f2      	beq.n	8007afa <pow+0xa2>
 8007b14:	eeb0 0a48 	vmov.f32	s0, s16
 8007b18:	eef0 0a68 	vmov.f32	s1, s17
 8007b1c:	f000 f80c 	bl	8007b38 <finite>
 8007b20:	2800      	cmp	r0, #0
 8007b22:	d0ea      	beq.n	8007afa <pow+0xa2>
 8007b24:	ec45 4b10 	vmov	d0, r4, r5
 8007b28:	f000 f806 	bl	8007b38 <finite>
 8007b2c:	e7c3      	b.n	8007ab6 <pow+0x5e>
 8007b2e:	4f01      	ldr	r7, [pc, #4]	; (8007b34 <pow+0xdc>)
 8007b30:	2600      	movs	r6, #0
 8007b32:	e7e2      	b.n	8007afa <pow+0xa2>
 8007b34:	3ff00000 	.word	0x3ff00000

08007b38 <finite>:
 8007b38:	b082      	sub	sp, #8
 8007b3a:	ed8d 0b00 	vstr	d0, [sp]
 8007b3e:	9801      	ldr	r0, [sp, #4]
 8007b40:	f040 4000 	orr.w	r0, r0, #2147483648	; 0x80000000
 8007b44:	f500 1080 	add.w	r0, r0, #1048576	; 0x100000
 8007b48:	0fc0      	lsrs	r0, r0, #31
 8007b4a:	b002      	add	sp, #8
 8007b4c:	4770      	bx	lr
	...

08007b50 <__ieee754_pow>:
 8007b50:	e92d 4ff0 	stmdb	sp!, {r4, r5, r6, r7, r8, r9, sl, fp, lr}
 8007b54:	ed2d 8b06 	vpush	{d8-d10}
 8007b58:	b089      	sub	sp, #36	; 0x24
 8007b5a:	ed8d 1b00 	vstr	d1, [sp]
 8007b5e:	e9dd 2900 	ldrd	r2, r9, [sp]
 8007b62:	f029 4800 	bic.w	r8, r9, #2147483648	; 0x80000000
 8007b66:	ea58 0102 	orrs.w	r1, r8, r2
 8007b6a:	ec57 6b10 	vmov	r6, r7, d0
 8007b6e:	d115      	bne.n	8007b9c <__ieee754_pow+0x4c>
 8007b70:	19b3      	adds	r3, r6, r6
 8007b72:	f487 2200 	eor.w	r2, r7, #524288	; 0x80000
 8007b76:	4152      	adcs	r2, r2
 8007b78:	4299      	cmp	r1, r3
 8007b7a:	4b89      	ldr	r3, [pc, #548]	; (8007da0 <__ieee754_pow+0x250>)
 8007b7c:	4193      	sbcs	r3, r2
 8007b7e:	f080 84d1 	bcs.w	8008524 <__ieee754_pow+0x9d4>
 8007b82:	e9dd 2300 	ldrd	r2, r3, [sp]
 8007b86:	4630      	mov	r0, r6
 8007b88:	4639      	mov	r1, r7
 8007b8a:	f7f8 fb37 	bl	80001fc <__adddf3>
 8007b8e:	ec41 0b10 	vmov	d0, r0, r1
 8007b92:	b009      	add	sp, #36	; 0x24
 8007b94:	ecbd 8b06 	vpop	{d8-d10}
 8007b98:	e8bd 8ff0 	ldmia.w	sp!, {r4, r5, r6, r7, r8, r9, sl, fp, pc}
 8007b9c:	4b81      	ldr	r3, [pc, #516]	; (8007da4 <__ieee754_pow+0x254>)
 8007b9e:	f027 4400 	bic.w	r4, r7, #2147483648	; 0x80000000
 8007ba2:	429c      	cmp	r4, r3
 8007ba4:	ee10 aa10 	vmov	sl, s0
 8007ba8:	463d      	mov	r5, r7
 8007baa:	dc06      	bgt.n	8007bba <__ieee754_pow+0x6a>
 8007bac:	d101      	bne.n	8007bb2 <__ieee754_pow+0x62>
 8007bae:	2e00      	cmp	r6, #0
 8007bb0:	d1e7      	bne.n	8007b82 <__ieee754_pow+0x32>
 8007bb2:	4598      	cmp	r8, r3
 8007bb4:	dc01      	bgt.n	8007bba <__ieee754_pow+0x6a>
 8007bb6:	d10f      	bne.n	8007bd8 <__ieee754_pow+0x88>
 8007bb8:	b172      	cbz	r2, 8007bd8 <__ieee754_pow+0x88>
 8007bba:	f105 4540 	add.w	r5, r5, #3221225472	; 0xc0000000
 8007bbe:	f505 1580 	add.w	r5, r5, #1048576	; 0x100000
 8007bc2:	ea55 050a 	orrs.w	r5, r5, sl
 8007bc6:	d1dc      	bne.n	8007b82 <__ieee754_pow+0x32>
 8007bc8:	e9dd 3200 	ldrd	r3, r2, [sp]
 8007bcc:	18db      	adds	r3, r3, r3
 8007bce:	f482 2200 	eor.w	r2, r2, #524288	; 0x80000
 8007bd2:	4152      	adcs	r2, r2
 8007bd4:	429d      	cmp	r5, r3
 8007bd6:	e7d0      	b.n	8007b7a <__ieee754_pow+0x2a>
 8007bd8:	2d00      	cmp	r5, #0
 8007bda:	da3b      	bge.n	8007c54 <__ieee754_pow+0x104>
 8007bdc:	4b72      	ldr	r3, [pc, #456]	; (8007da8 <__ieee754_pow+0x258>)
 8007bde:	4598      	cmp	r8, r3
 8007be0:	dc51      	bgt.n	8007c86 <__ieee754_pow+0x136>
 8007be2:	f1a3 7354 	sub.w	r3, r3, #55574528	; 0x3500000
 8007be6:	4598      	cmp	r8, r3
 8007be8:	f340 84ab 	ble.w	8008542 <__ieee754_pow+0x9f2>
 8007bec:	ea4f 5328 	mov.w	r3, r8, asr #20
 8007bf0:	f2a3 33ff 	subw	r3, r3, #1023	; 0x3ff
 8007bf4:	2b14      	cmp	r3, #20
 8007bf6:	dd0f      	ble.n	8007c18 <__ieee754_pow+0xc8>
 8007bf8:	f1c3 0334 	rsb	r3, r3, #52	; 0x34
 8007bfc:	fa22 f103 	lsr.w	r1, r2, r3
 8007c00:	fa01 f303 	lsl.w	r3, r1, r3
 8007c04:	4293      	cmp	r3, r2
 8007c06:	f040 849c 	bne.w	8008542 <__ieee754_pow+0x9f2>
 8007c0a:	f001 0101 	and.w	r1, r1, #1
 8007c0e:	f1c1 0302 	rsb	r3, r1, #2
 8007c12:	9304      	str	r3, [sp, #16]
 8007c14:	b182      	cbz	r2, 8007c38 <__ieee754_pow+0xe8>
 8007c16:	e05f      	b.n	8007cd8 <__ieee754_pow+0x188>
 8007c18:	2a00      	cmp	r2, #0
 8007c1a:	d15b      	bne.n	8007cd4 <__ieee754_pow+0x184>
 8007c1c:	f1c3 0314 	rsb	r3, r3, #20
 8007c20:	fa48 f103 	asr.w	r1, r8, r3
 8007c24:	fa01 f303 	lsl.w	r3, r1, r3
 8007c28:	4543      	cmp	r3, r8
 8007c2a:	f040 8487 	bne.w	800853c <__ieee754_pow+0x9ec>
 8007c2e:	f001 0101 	and.w	r1, r1, #1
 8007c32:	f1c1 0302 	rsb	r3, r1, #2
 8007c36:	9304      	str	r3, [sp, #16]
 8007c38:	4b5c      	ldr	r3, [pc, #368]	; (8007dac <__ieee754_pow+0x25c>)
 8007c3a:	4598      	cmp	r8, r3
 8007c3c:	d132      	bne.n	8007ca4 <__ieee754_pow+0x154>
 8007c3e:	f1b9 0f00 	cmp.w	r9, #0
 8007c42:	f280 8477 	bge.w	8008534 <__ieee754_pow+0x9e4>
 8007c46:	4959      	ldr	r1, [pc, #356]	; (8007dac <__ieee754_pow+0x25c>)
 8007c48:	4632      	mov	r2, r6
 8007c4a:	463b      	mov	r3, r7
 8007c4c:	2000      	movs	r0, #0
 8007c4e:	f7f8 fdb5 	bl	80007bc <__aeabi_ddiv>
 8007c52:	e79c      	b.n	8007b8e <__ieee754_pow+0x3e>
 8007c54:	2300      	movs	r3, #0
 8007c56:	9304      	str	r3, [sp, #16]
 8007c58:	2a00      	cmp	r2, #0
 8007c5a:	d13d      	bne.n	8007cd8 <__ieee754_pow+0x188>
 8007c5c:	4b51      	ldr	r3, [pc, #324]	; (8007da4 <__ieee754_pow+0x254>)
 8007c5e:	4598      	cmp	r8, r3
 8007c60:	d1ea      	bne.n	8007c38 <__ieee754_pow+0xe8>
 8007c62:	f104 4340 	add.w	r3, r4, #3221225472	; 0xc0000000
 8007c66:	f503 1380 	add.w	r3, r3, #1048576	; 0x100000
 8007c6a:	ea53 030a 	orrs.w	r3, r3, sl
 8007c6e:	f000 8459 	beq.w	8008524 <__ieee754_pow+0x9d4>
 8007c72:	4b4f      	ldr	r3, [pc, #316]	; (8007db0 <__ieee754_pow+0x260>)
 8007c74:	429c      	cmp	r4, r3
 8007c76:	dd08      	ble.n	8007c8a <__ieee754_pow+0x13a>
 8007c78:	f1b9 0f00 	cmp.w	r9, #0
 8007c7c:	f2c0 8456 	blt.w	800852c <__ieee754_pow+0x9dc>
 8007c80:	e9dd 0100 	ldrd	r0, r1, [sp]
 8007c84:	e783      	b.n	8007b8e <__ieee754_pow+0x3e>
 8007c86:	2302      	movs	r3, #2
 8007c88:	e7e5      	b.n	8007c56 <__ieee754_pow+0x106>
 8007c8a:	f1b9 0f00 	cmp.w	r9, #0
 8007c8e:	f04f 0000 	mov.w	r0, #0
 8007c92:	f04f 0100 	mov.w	r1, #0
 8007c96:	f6bf af7a 	bge.w	8007b8e <__ieee754_pow+0x3e>
 8007c9a:	e9dd 0300 	ldrd	r0, r3, [sp]
 8007c9e:	f103 4100 	add.w	r1, r3, #2147483648	; 0x80000000
 8007ca2:	e774      	b.n	8007b8e <__ieee754_pow+0x3e>
 8007ca4:	f1b9 4f80 	cmp.w	r9, #1073741824	; 0x40000000
 8007ca8:	d106      	bne.n	8007cb8 <__ieee754_pow+0x168>
 8007caa:	4632      	mov	r2, r6
 8007cac:	463b      	mov	r3, r7
 8007cae:	4630      	mov	r0, r6
 8007cb0:	4639      	mov	r1, r7
 8007cb2:	f7f8 fc59 	bl	8000568 <__aeabi_dmul>
 8007cb6:	e76a      	b.n	8007b8e <__ieee754_pow+0x3e>
 8007cb8:	4b3e      	ldr	r3, [pc, #248]	; (8007db4 <__ieee754_pow+0x264>)
 8007cba:	4599      	cmp	r9, r3
 8007cbc:	d10c      	bne.n	8007cd8 <__ieee754_pow+0x188>
 8007cbe:	2d00      	cmp	r5, #0
 8007cc0:	db0a      	blt.n	8007cd8 <__ieee754_pow+0x188>
 8007cc2:	ec47 6b10 	vmov	d0, r6, r7
 8007cc6:	b009      	add	sp, #36	; 0x24
 8007cc8:	ecbd 8b06 	vpop	{d8-d10}
 8007ccc:	e8bd 4ff0 	ldmia.w	sp!, {r4, r5, r6, r7, r8, r9, sl, fp, lr}
 8007cd0:	f000 bd20 	b.w	8008714 <__ieee754_sqrt>
 8007cd4:	2300      	movs	r3, #0
 8007cd6:	9304      	str	r3, [sp, #16]
 8007cd8:	ec47 6b10 	vmov	d0, r6, r7
 8007cdc:	f000 fc62 	bl	80085a4 <fabs>
 8007ce0:	ec51 0b10 	vmov	r0, r1, d0
 8007ce4:	f1ba 0f00 	cmp.w	sl, #0
 8007ce8:	d129      	bne.n	8007d3e <__ieee754_pow+0x1ee>
 8007cea:	b124      	cbz	r4, 8007cf6 <__ieee754_pow+0x1a6>
 8007cec:	4b2f      	ldr	r3, [pc, #188]	; (8007dac <__ieee754_pow+0x25c>)
 8007cee:	f025 4240 	bic.w	r2, r5, #3221225472	; 0xc0000000
 8007cf2:	429a      	cmp	r2, r3
 8007cf4:	d123      	bne.n	8007d3e <__ieee754_pow+0x1ee>
 8007cf6:	f1b9 0f00 	cmp.w	r9, #0
 8007cfa:	da05      	bge.n	8007d08 <__ieee754_pow+0x1b8>
 8007cfc:	4602      	mov	r2, r0
 8007cfe:	460b      	mov	r3, r1
 8007d00:	2000      	movs	r0, #0
 8007d02:	492a      	ldr	r1, [pc, #168]	; (8007dac <__ieee754_pow+0x25c>)
 8007d04:	f7f8 fd5a 	bl	80007bc <__aeabi_ddiv>
 8007d08:	2d00      	cmp	r5, #0
 8007d0a:	f6bf af40 	bge.w	8007b8e <__ieee754_pow+0x3e>
 8007d0e:	9b04      	ldr	r3, [sp, #16]
 8007d10:	f104 4440 	add.w	r4, r4, #3221225472	; 0xc0000000
 8007d14:	f504 1480 	add.w	r4, r4, #1048576	; 0x100000
 8007d18:	431c      	orrs	r4, r3
 8007d1a:	d108      	bne.n	8007d2e <__ieee754_pow+0x1de>
 8007d1c:	4602      	mov	r2, r0
 8007d1e:	460b      	mov	r3, r1
 8007d20:	4610      	mov	r0, r2
 8007d22:	4619      	mov	r1, r3
 8007d24:	f7f8 fa68 	bl	80001f8 <__aeabi_dsub>
 8007d28:	4602      	mov	r2, r0
 8007d2a:	460b      	mov	r3, r1
 8007d2c:	e78f      	b.n	8007c4e <__ieee754_pow+0xfe>
 8007d2e:	9b04      	ldr	r3, [sp, #16]
 8007d30:	2b01      	cmp	r3, #1
 8007d32:	f47f af2c 	bne.w	8007b8e <__ieee754_pow+0x3e>
 8007d36:	f101 4300 	add.w	r3, r1, #2147483648	; 0x80000000
 8007d3a:	4619      	mov	r1, r3
 8007d3c:	e727      	b.n	8007b8e <__ieee754_pow+0x3e>
 8007d3e:	0feb      	lsrs	r3, r5, #31
 8007d40:	3b01      	subs	r3, #1
 8007d42:	9306      	str	r3, [sp, #24]
 8007d44:	9a06      	ldr	r2, [sp, #24]
 8007d46:	9b04      	ldr	r3, [sp, #16]
 8007d48:	4313      	orrs	r3, r2
 8007d4a:	d102      	bne.n	8007d52 <__ieee754_pow+0x202>
 8007d4c:	4632      	mov	r2, r6
 8007d4e:	463b      	mov	r3, r7
 8007d50:	e7e6      	b.n	8007d20 <__ieee754_pow+0x1d0>
 8007d52:	4b19      	ldr	r3, [pc, #100]	; (8007db8 <__ieee754_pow+0x268>)
 8007d54:	4598      	cmp	r8, r3
 8007d56:	f340 80fb 	ble.w	8007f50 <__ieee754_pow+0x400>
 8007d5a:	f103 7304 	add.w	r3, r3, #34603008	; 0x2100000
 8007d5e:	4598      	cmp	r8, r3
 8007d60:	4b13      	ldr	r3, [pc, #76]	; (8007db0 <__ieee754_pow+0x260>)
 8007d62:	dd0c      	ble.n	8007d7e <__ieee754_pow+0x22e>
 8007d64:	429c      	cmp	r4, r3
 8007d66:	dc0f      	bgt.n	8007d88 <__ieee754_pow+0x238>
 8007d68:	f1b9 0f00 	cmp.w	r9, #0
 8007d6c:	da0f      	bge.n	8007d8e <__ieee754_pow+0x23e>
 8007d6e:	2000      	movs	r0, #0
 8007d70:	b009      	add	sp, #36	; 0x24
 8007d72:	ecbd 8b06 	vpop	{d8-d10}
 8007d76:	e8bd 4ff0 	ldmia.w	sp!, {r4, r5, r6, r7, r8, r9, sl, fp, lr}
 8007d7a:	f000 bcc2 	b.w	8008702 <__math_oflow>
 8007d7e:	429c      	cmp	r4, r3
 8007d80:	dbf2      	blt.n	8007d68 <__ieee754_pow+0x218>
 8007d82:	4b0a      	ldr	r3, [pc, #40]	; (8007dac <__ieee754_pow+0x25c>)
 8007d84:	429c      	cmp	r4, r3
 8007d86:	dd19      	ble.n	8007dbc <__ieee754_pow+0x26c>
 8007d88:	f1b9 0f00 	cmp.w	r9, #0
 8007d8c:	dcef      	bgt.n	8007d6e <__ieee754_pow+0x21e>
 8007d8e:	2000      	movs	r0, #0
 8007d90:	b009      	add	sp, #36	; 0x24
 8007d92:	ecbd 8b06 	vpop	{d8-d10}
 8007d96:	e8bd 4ff0 	ldmia.w	sp!, {r4, r5, r6, r7, r8, r9, sl, fp, lr}
 8007d9a:	f000 bca9 	b.w	80086f0 <__math_uflow>
 8007d9e:	bf00      	nop
 8007da0:	fff00000 	.word	0xfff00000
 8007da4:	7ff00000 	.word	0x7ff00000
 8007da8:	433fffff 	.word	0x433fffff
 8007dac:	3ff00000 	.word	0x3ff00000
 8007db0:	3fefffff 	.word	0x3fefffff
 8007db4:	3fe00000 	.word	0x3fe00000
 8007db8:	41e00000 	.word	0x41e00000
 8007dbc:	4b60      	ldr	r3, [pc, #384]	; (8007f40 <__ieee754_pow+0x3f0>)
 8007dbe:	2200      	movs	r2, #0
 8007dc0:	f7f8 fa1a 	bl	80001f8 <__aeabi_dsub>
 8007dc4:	a354      	add	r3, pc, #336	; (adr r3, 8007f18 <__ieee754_pow+0x3c8>)
 8007dc6:	e9d3 2300 	ldrd	r2, r3, [r3]
 8007dca:	4604      	mov	r4, r0
 8007dcc:	460d      	mov	r5, r1
 8007dce:	f7f8 fbcb 	bl	8000568 <__aeabi_dmul>
 8007dd2:	a353      	add	r3, pc, #332	; (adr r3, 8007f20 <__ieee754_pow+0x3d0>)
 8007dd4:	e9d3 2300 	ldrd	r2, r3, [r3]
 8007dd8:	4606      	mov	r6, r0
 8007dda:	460f      	mov	r7, r1
 8007ddc:	4620      	mov	r0, r4
 8007dde:	4629      	mov	r1, r5
 8007de0:	f7f8 fbc2 	bl	8000568 <__aeabi_dmul>
 8007de4:	4b57      	ldr	r3, [pc, #348]	; (8007f44 <__ieee754_pow+0x3f4>)
 8007de6:	4682      	mov	sl, r0
 8007de8:	468b      	mov	fp, r1
 8007dea:	2200      	movs	r2, #0
 8007dec:	4620      	mov	r0, r4
 8007dee:	4629      	mov	r1, r5
 8007df0:	f7f8 fbba 	bl	8000568 <__aeabi_dmul>
 8007df4:	4602      	mov	r2, r0
 8007df6:	460b      	mov	r3, r1
 8007df8:	a14b      	add	r1, pc, #300	; (adr r1, 8007f28 <__ieee754_pow+0x3d8>)
 8007dfa:	e9d1 0100 	ldrd	r0, r1, [r1]
 8007dfe:	f7f8 f9fb 	bl	80001f8 <__aeabi_dsub>
 8007e02:	4622      	mov	r2, r4
 8007e04:	462b      	mov	r3, r5
 8007e06:	f7f8 fbaf 	bl	8000568 <__aeabi_dmul>
 8007e0a:	4602      	mov	r2, r0
 8007e0c:	460b      	mov	r3, r1
 8007e0e:	2000      	movs	r0, #0
 8007e10:	494d      	ldr	r1, [pc, #308]	; (8007f48 <__ieee754_pow+0x3f8>)
 8007e12:	f7f8 f9f1 	bl	80001f8 <__aeabi_dsub>
 8007e16:	4622      	mov	r2, r4
 8007e18:	4680      	mov	r8, r0
 8007e1a:	4689      	mov	r9, r1
 8007e1c:	462b      	mov	r3, r5
 8007e1e:	4620      	mov	r0, r4
 8007e20:	4629      	mov	r1, r5
 8007e22:	f7f8 fba1 	bl	8000568 <__aeabi_dmul>
 8007e26:	4602      	mov	r2, r0
 8007e28:	460b      	mov	r3, r1
 8007e2a:	4640      	mov	r0, r8
 8007e2c:	4649      	mov	r1, r9
 8007e2e:	f7f8 fb9b 	bl	8000568 <__aeabi_dmul>
 8007e32:	a33f      	add	r3, pc, #252	; (adr r3, 8007f30 <__ieee754_pow+0x3e0>)
 8007e34:	e9d3 2300 	ldrd	r2, r3, [r3]
 8007e38:	f7f8 fb96 	bl	8000568 <__aeabi_dmul>
 8007e3c:	4602      	mov	r2, r0
 8007e3e:	460b      	mov	r3, r1
 8007e40:	4650      	mov	r0, sl
 8007e42:	4659      	mov	r1, fp
 8007e44:	f7f8 f9d8 	bl	80001f8 <__aeabi_dsub>
 8007e48:	4602      	mov	r2, r0
 8007e4a:	460b      	mov	r3, r1
 8007e4c:	4680      	mov	r8, r0
 8007e4e:	4689      	mov	r9, r1
 8007e50:	4630      	mov	r0, r6
 8007e52:	4639      	mov	r1, r7
 8007e54:	f7f8 f9d2 	bl	80001fc <__adddf3>
 8007e58:	2000      	movs	r0, #0
 8007e5a:	4632      	mov	r2, r6
 8007e5c:	463b      	mov	r3, r7
 8007e5e:	4604      	mov	r4, r0
 8007e60:	460d      	mov	r5, r1
 8007e62:	f7f8 f9c9 	bl	80001f8 <__aeabi_dsub>
 8007e66:	4602      	mov	r2, r0
 8007e68:	460b      	mov	r3, r1
 8007e6a:	4640      	mov	r0, r8
 8007e6c:	4649      	mov	r1, r9
 8007e6e:	f7f8 f9c3 	bl	80001f8 <__aeabi_dsub>
 8007e72:	9b04      	ldr	r3, [sp, #16]
 8007e74:	9a06      	ldr	r2, [sp, #24]
 8007e76:	3b01      	subs	r3, #1
 8007e78:	4313      	orrs	r3, r2
 8007e7a:	4682      	mov	sl, r0
 8007e7c:	468b      	mov	fp, r1
 8007e7e:	f040 81e7 	bne.w	8008250 <__ieee754_pow+0x700>
 8007e82:	ed9f 7b2d 	vldr	d7, [pc, #180]	; 8007f38 <__ieee754_pow+0x3e8>
 8007e86:	eeb0 8a47 	vmov.f32	s16, s14
 8007e8a:	eef0 8a67 	vmov.f32	s17, s15
 8007e8e:	e9dd 6700 	ldrd	r6, r7, [sp]
 8007e92:	2600      	movs	r6, #0
 8007e94:	4632      	mov	r2, r6
 8007e96:	463b      	mov	r3, r7
 8007e98:	e9dd 0100 	ldrd	r0, r1, [sp]
 8007e9c:	f7f8 f9ac 	bl	80001f8 <__aeabi_dsub>
 8007ea0:	4622      	mov	r2, r4
 8007ea2:	462b      	mov	r3, r5
 8007ea4:	f7f8 fb60 	bl	8000568 <__aeabi_dmul>
 8007ea8:	e9dd 2300 	ldrd	r2, r3, [sp]
 8007eac:	4680      	mov	r8, r0
 8007eae:	4689      	mov	r9, r1
 8007eb0:	4650      	mov	r0, sl
 8007eb2:	4659      	mov	r1, fp
 8007eb4:	f7f8 fb58 	bl	8000568 <__aeabi_dmul>
 8007eb8:	4602      	mov	r2, r0
 8007eba:	460b      	mov	r3, r1
 8007ebc:	4640      	mov	r0, r8
 8007ebe:	4649      	mov	r1, r9
 8007ec0:	f7f8 f99c 	bl	80001fc <__adddf3>
 8007ec4:	4632      	mov	r2, r6
 8007ec6:	463b      	mov	r3, r7
 8007ec8:	4680      	mov	r8, r0
 8007eca:	4689      	mov	r9, r1
 8007ecc:	4620      	mov	r0, r4
 8007ece:	4629      	mov	r1, r5
 8007ed0:	f7f8 fb4a 	bl	8000568 <__aeabi_dmul>
 8007ed4:	460b      	mov	r3, r1
 8007ed6:	4604      	mov	r4, r0
 8007ed8:	460d      	mov	r5, r1
 8007eda:	4602      	mov	r2, r0
 8007edc:	4649      	mov	r1, r9
 8007ede:	4640      	mov	r0, r8
 8007ee0:	f7f8 f98c 	bl	80001fc <__adddf3>
 8007ee4:	4b19      	ldr	r3, [pc, #100]	; (8007f4c <__ieee754_pow+0x3fc>)
 8007ee6:	4299      	cmp	r1, r3
 8007ee8:	ec45 4b19 	vmov	d9, r4, r5
 8007eec:	4606      	mov	r6, r0
 8007eee:	460f      	mov	r7, r1
 8007ef0:	468b      	mov	fp, r1
 8007ef2:	f340 82f0 	ble.w	80084d6 <__ieee754_pow+0x986>
 8007ef6:	f101 433f 	add.w	r3, r1, #3204448256	; 0xbf000000
 8007efa:	f503 03e0 	add.w	r3, r3, #7340032	; 0x700000
 8007efe:	4303      	orrs	r3, r0
 8007f00:	f000 81e4 	beq.w	80082cc <__ieee754_pow+0x77c>
 8007f04:	ec51 0b18 	vmov	r0, r1, d8
 8007f08:	2200      	movs	r2, #0
 8007f0a:	2300      	movs	r3, #0
 8007f0c:	f7f8 fd9e 	bl	8000a4c <__aeabi_dcmplt>
 8007f10:	3800      	subs	r0, #0
 8007f12:	bf18      	it	ne
 8007f14:	2001      	movne	r0, #1
 8007f16:	e72b      	b.n	8007d70 <__ieee754_pow+0x220>
 8007f18:	60000000 	.word	0x60000000
 8007f1c:	3ff71547 	.word	0x3ff71547
 8007f20:	f85ddf44 	.word	0xf85ddf44
 8007f24:	3e54ae0b 	.word	0x3e54ae0b
 8007f28:	55555555 	.word	0x55555555
 8007f2c:	3fd55555 	.word	0x3fd55555
 8007f30:	652b82fe 	.word	0x652b82fe
 8007f34:	3ff71547 	.word	0x3ff71547
 8007f38:	00000000 	.word	0x00000000
 8007f3c:	bff00000 	.word	0xbff00000
 8007f40:	3ff00000 	.word	0x3ff00000
 8007f44:	3fd00000 	.word	0x3fd00000
 8007f48:	3fe00000 	.word	0x3fe00000
 8007f4c:	408fffff 	.word	0x408fffff
 8007f50:	4bd5      	ldr	r3, [pc, #852]	; (80082a8 <__ieee754_pow+0x758>)
 8007f52:	402b      	ands	r3, r5
 8007f54:	2200      	movs	r2, #0
 8007f56:	b92b      	cbnz	r3, 8007f64 <__ieee754_pow+0x414>
 8007f58:	4bd4      	ldr	r3, [pc, #848]	; (80082ac <__ieee754_pow+0x75c>)
 8007f5a:	f7f8 fb05 	bl	8000568 <__aeabi_dmul>
 8007f5e:	f06f 0234 	mvn.w	r2, #52	; 0x34
 8007f62:	460c      	mov	r4, r1
 8007f64:	1523      	asrs	r3, r4, #20
 8007f66:	f2a3 33ff 	subw	r3, r3, #1023	; 0x3ff
 8007f6a:	4413      	add	r3, r2
 8007f6c:	9305      	str	r3, [sp, #20]
 8007f6e:	4bd0      	ldr	r3, [pc, #832]	; (80082b0 <__ieee754_pow+0x760>)
 8007f70:	f3c4 0413 	ubfx	r4, r4, #0, #20
 8007f74:	f044 557f 	orr.w	r5, r4, #1069547520	; 0x3fc00000
 8007f78:	429c      	cmp	r4, r3
 8007f7a:	f445 1540 	orr.w	r5, r5, #3145728	; 0x300000
 8007f7e:	dd08      	ble.n	8007f92 <__ieee754_pow+0x442>
 8007f80:	4bcc      	ldr	r3, [pc, #816]	; (80082b4 <__ieee754_pow+0x764>)
 8007f82:	429c      	cmp	r4, r3
 8007f84:	f340 8162 	ble.w	800824c <__ieee754_pow+0x6fc>
 8007f88:	9b05      	ldr	r3, [sp, #20]
 8007f8a:	3301      	adds	r3, #1
 8007f8c:	9305      	str	r3, [sp, #20]
 8007f8e:	f5a5 1580 	sub.w	r5, r5, #1048576	; 0x100000
 8007f92:	2400      	movs	r4, #0
 8007f94:	00e3      	lsls	r3, r4, #3
 8007f96:	9307      	str	r3, [sp, #28]
 8007f98:	4bc7      	ldr	r3, [pc, #796]	; (80082b8 <__ieee754_pow+0x768>)
 8007f9a:	eb03 03c4 	add.w	r3, r3, r4, lsl #3
 8007f9e:	ed93 7b00 	vldr	d7, [r3]
 8007fa2:	4629      	mov	r1, r5
 8007fa4:	ec53 2b17 	vmov	r2, r3, d7
 8007fa8:	eeb0 9a47 	vmov.f32	s18, s14
 8007fac:	eef0 9a67 	vmov.f32	s19, s15
 8007fb0:	4682      	mov	sl, r0
 8007fb2:	f7f8 f921 	bl	80001f8 <__aeabi_dsub>
 8007fb6:	4652      	mov	r2, sl
 8007fb8:	4606      	mov	r6, r0
 8007fba:	460f      	mov	r7, r1
 8007fbc:	462b      	mov	r3, r5
 8007fbe:	ec51 0b19 	vmov	r0, r1, d9
 8007fc2:	f7f8 f91b 	bl	80001fc <__adddf3>
 8007fc6:	4602      	mov	r2, r0
 8007fc8:	460b      	mov	r3, r1
 8007fca:	2000      	movs	r0, #0
 8007fcc:	49bb      	ldr	r1, [pc, #748]	; (80082bc <__ieee754_pow+0x76c>)
 8007fce:	f7f8 fbf5 	bl	80007bc <__aeabi_ddiv>
 8007fd2:	ec41 0b1a 	vmov	d10, r0, r1
 8007fd6:	4602      	mov	r2, r0
 8007fd8:	460b      	mov	r3, r1
 8007fda:	4630      	mov	r0, r6
 8007fdc:	4639      	mov	r1, r7
 8007fde:	f7f8 fac3 	bl	8000568 <__aeabi_dmul>
 8007fe2:	2300      	movs	r3, #0
 8007fe4:	e9cd 0102 	strd	r0, r1, [sp, #8]
 8007fe8:	9302      	str	r3, [sp, #8]
 8007fea:	e9dd 8902 	ldrd	r8, r9, [sp, #8]
 8007fee:	46ab      	mov	fp, r5
 8007ff0:	106d      	asrs	r5, r5, #1
 8007ff2:	f045 5500 	orr.w	r5, r5, #536870912	; 0x20000000
 8007ff6:	f505 2500 	add.w	r5, r5, #524288	; 0x80000
 8007ffa:	ec41 0b18 	vmov	d8, r0, r1
 8007ffe:	eb05 4384 	add.w	r3, r5, r4, lsl #18
 8008002:	2200      	movs	r2, #0
 8008004:	4640      	mov	r0, r8
 8008006:	4649      	mov	r1, r9
 8008008:	4614      	mov	r4, r2
 800800a:	461d      	mov	r5, r3
 800800c:	f7f8 faac 	bl	8000568 <__aeabi_dmul>
 8008010:	4602      	mov	r2, r0
 8008012:	460b      	mov	r3, r1
 8008014:	4630      	mov	r0, r6
 8008016:	4639      	mov	r1, r7
 8008018:	f7f8 f8ee 	bl	80001f8 <__aeabi_dsub>
 800801c:	ec53 2b19 	vmov	r2, r3, d9
 8008020:	4606      	mov	r6, r0
 8008022:	460f      	mov	r7, r1
 8008024:	4620      	mov	r0, r4
 8008026:	4629      	mov	r1, r5
 8008028:	f7f8 f8e6 	bl	80001f8 <__aeabi_dsub>
 800802c:	4602      	mov	r2, r0
 800802e:	460b      	mov	r3, r1
 8008030:	4650      	mov	r0, sl
 8008032:	4659      	mov	r1, fp
 8008034:	f7f8 f8e0 	bl	80001f8 <__aeabi_dsub>
 8008038:	4642      	mov	r2, r8
 800803a:	464b      	mov	r3, r9
 800803c:	f7f8 fa94 	bl	8000568 <__aeabi_dmul>
 8008040:	4602      	mov	r2, r0
 8008042:	460b      	mov	r3, r1
 8008044:	4630      	mov	r0, r6
 8008046:	4639      	mov	r1, r7
 8008048:	f7f8 f8d6 	bl	80001f8 <__aeabi_dsub>
 800804c:	ec53 2b1a 	vmov	r2, r3, d10
 8008050:	f7f8 fa8a 	bl	8000568 <__aeabi_dmul>
 8008054:	ec53 2b18 	vmov	r2, r3, d8
 8008058:	ec41 0b19 	vmov	d9, r0, r1
 800805c:	ec51 0b18 	vmov	r0, r1, d8
 8008060:	f7f8 fa82 	bl	8000568 <__aeabi_dmul>
 8008064:	a37c      	add	r3, pc, #496	; (adr r3, 8008258 <__ieee754_pow+0x708>)
 8008066:	e9d3 2300 	ldrd	r2, r3, [r3]
 800806a:	4604      	mov	r4, r0
 800806c:	460d      	mov	r5, r1
 800806e:	f7f8 fa7b 	bl	8000568 <__aeabi_dmul>
 8008072:	a37b      	add	r3, pc, #492	; (adr r3, 8008260 <__ieee754_pow+0x710>)
 8008074:	e9d3 2300 	ldrd	r2, r3, [r3]
 8008078:	f7f8 f8c0 	bl	80001fc <__adddf3>
 800807c:	4622      	mov	r2, r4
 800807e:	462b      	mov	r3, r5
 8008080:	f7f8 fa72 	bl	8000568 <__aeabi_dmul>
 8008084:	a378      	add	r3, pc, #480	; (adr r3, 8008268 <__ieee754_pow+0x718>)
 8008086:	e9d3 2300 	ldrd	r2, r3, [r3]
 800808a:	f7f8 f8b7 	bl	80001fc <__adddf3>
 800808e:	4622      	mov	r2, r4
 8008090:	462b      	mov	r3, r5
 8008092:	f7f8 fa69 	bl	8000568 <__aeabi_dmul>
 8008096:	a376      	add	r3, pc, #472	; (adr r3, 8008270 <__ieee754_pow+0x720>)
 8008098:	e9d3 2300 	ldrd	r2, r3, [r3]
 800809c:	f7f8 f8ae 	bl	80001fc <__adddf3>
 80080a0:	4622      	mov	r2, r4
 80080a2:	462b      	mov	r3, r5
 80080a4:	f7f8 fa60 	bl	8000568 <__aeabi_dmul>
 80080a8:	a373      	add	r3, pc, #460	; (adr r3, 8008278 <__ieee754_pow+0x728>)
 80080aa:	e9d3 2300 	ldrd	r2, r3, [r3]
 80080ae:	f7f8 f8a5 	bl	80001fc <__adddf3>
 80080b2:	4622      	mov	r2, r4
 80080b4:	462b      	mov	r3, r5
 80080b6:	f7f8 fa57 	bl	8000568 <__aeabi_dmul>
 80080ba:	a371      	add	r3, pc, #452	; (adr r3, 8008280 <__ieee754_pow+0x730>)
 80080bc:	e9d3 2300 	ldrd	r2, r3, [r3]
 80080c0:	f7f8 f89c 	bl	80001fc <__adddf3>
 80080c4:	4622      	mov	r2, r4
 80080c6:	4606      	mov	r6, r0
 80080c8:	460f      	mov	r7, r1
 80080ca:	462b      	mov	r3, r5
 80080cc:	4620      	mov	r0, r4
 80080ce:	4629      	mov	r1, r5
 80080d0:	f7f8 fa4a 	bl	8000568 <__aeabi_dmul>
 80080d4:	4602      	mov	r2, r0
 80080d6:	460b      	mov	r3, r1
 80080d8:	4630      	mov	r0, r6
 80080da:	4639      	mov	r1, r7
 80080dc:	f7f8 fa44 	bl	8000568 <__aeabi_dmul>
 80080e0:	4642      	mov	r2, r8
 80080e2:	4604      	mov	r4, r0
 80080e4:	460d      	mov	r5, r1
 80080e6:	464b      	mov	r3, r9
 80080e8:	ec51 0b18 	vmov	r0, r1, d8
 80080ec:	f7f8 f886 	bl	80001fc <__adddf3>
 80080f0:	ec53 2b19 	vmov	r2, r3, d9
 80080f4:	f7f8 fa38 	bl	8000568 <__aeabi_dmul>
 80080f8:	4622      	mov	r2, r4
 80080fa:	462b      	mov	r3, r5
 80080fc:	f7f8 f87e 	bl	80001fc <__adddf3>
 8008100:	4642      	mov	r2, r8
 8008102:	4682      	mov	sl, r0
 8008104:	468b      	mov	fp, r1
 8008106:	464b      	mov	r3, r9
 8008108:	4640      	mov	r0, r8
 800810a:	4649      	mov	r1, r9
 800810c:	f7f8 fa2c 	bl	8000568 <__aeabi_dmul>
 8008110:	4b6b      	ldr	r3, [pc, #428]	; (80082c0 <__ieee754_pow+0x770>)
 8008112:	2200      	movs	r2, #0
 8008114:	4606      	mov	r6, r0
 8008116:	460f      	mov	r7, r1
 8008118:	f7f8 f870 	bl	80001fc <__adddf3>
 800811c:	4652      	mov	r2, sl
 800811e:	465b      	mov	r3, fp
 8008120:	f7f8 f86c 	bl	80001fc <__adddf3>
 8008124:	2000      	movs	r0, #0
 8008126:	4604      	mov	r4, r0
 8008128:	460d      	mov	r5, r1
 800812a:	4602      	mov	r2, r0
 800812c:	460b      	mov	r3, r1
 800812e:	4640      	mov	r0, r8
 8008130:	4649      	mov	r1, r9
 8008132:	f7f8 fa19 	bl	8000568 <__aeabi_dmul>
 8008136:	4b62      	ldr	r3, [pc, #392]	; (80082c0 <__ieee754_pow+0x770>)
 8008138:	4680      	mov	r8, r0
 800813a:	4689      	mov	r9, r1
 800813c:	2200      	movs	r2, #0
 800813e:	4620      	mov	r0, r4
 8008140:	4629      	mov	r1, r5
 8008142:	f7f8 f859 	bl	80001f8 <__aeabi_dsub>
 8008146:	4632      	mov	r2, r6
 8008148:	463b      	mov	r3, r7
 800814a:	f7f8 f855 	bl	80001f8 <__aeabi_dsub>
 800814e:	4602      	mov	r2, r0
 8008150:	460b      	mov	r3, r1
 8008152:	4650      	mov	r0, sl
 8008154:	4659      	mov	r1, fp
 8008156:	f7f8 f84f 	bl	80001f8 <__aeabi_dsub>
 800815a:	ec53 2b18 	vmov	r2, r3, d8
 800815e:	f7f8 fa03 	bl	8000568 <__aeabi_dmul>
 8008162:	4622      	mov	r2, r4
 8008164:	4606      	mov	r6, r0
 8008166:	460f      	mov	r7, r1
 8008168:	462b      	mov	r3, r5
 800816a:	ec51 0b19 	vmov	r0, r1, d9
 800816e:	f7f8 f9fb 	bl	8000568 <__aeabi_dmul>
 8008172:	4602      	mov	r2, r0
 8008174:	460b      	mov	r3, r1
 8008176:	4630      	mov	r0, r6
 8008178:	4639      	mov	r1, r7
 800817a:	f7f8 f83f 	bl	80001fc <__adddf3>
 800817e:	4606      	mov	r6, r0
 8008180:	460f      	mov	r7, r1
 8008182:	4602      	mov	r2, r0
 8008184:	460b      	mov	r3, r1
 8008186:	4640      	mov	r0, r8
 8008188:	4649      	mov	r1, r9
 800818a:	f7f8 f837 	bl	80001fc <__adddf3>
 800818e:	a33e      	add	r3, pc, #248	; (adr r3, 8008288 <__ieee754_pow+0x738>)
 8008190:	e9d3 2300 	ldrd	r2, r3, [r3]
 8008194:	2000      	movs	r0, #0
 8008196:	4604      	mov	r4, r0
 8008198:	460d      	mov	r5, r1
 800819a:	f7f8 f9e5 	bl	8000568 <__aeabi_dmul>
 800819e:	4642      	mov	r2, r8
 80081a0:	ec41 0b18 	vmov	d8, r0, r1
 80081a4:	464b      	mov	r3, r9
 80081a6:	4620      	mov	r0, r4
 80081a8:	4629      	mov	r1, r5
 80081aa:	f7f8 f825 	bl	80001f8 <__aeabi_dsub>
 80081ae:	4602      	mov	r2, r0
 80081b0:	460b      	mov	r3, r1
 80081b2:	4630      	mov	r0, r6
 80081b4:	4639      	mov	r1, r7
 80081b6:	f7f8 f81f 	bl	80001f8 <__aeabi_dsub>
 80081ba:	a335      	add	r3, pc, #212	; (adr r3, 8008290 <__ieee754_pow+0x740>)
 80081bc:	e9d3 2300 	ldrd	r2, r3, [r3]
 80081c0:	f7f8 f9d2 	bl	8000568 <__aeabi_dmul>
 80081c4:	a334      	add	r3, pc, #208	; (adr r3, 8008298 <__ieee754_pow+0x748>)
 80081c6:	e9d3 2300 	ldrd	r2, r3, [r3]
 80081ca:	4606      	mov	r6, r0
 80081cc:	460f      	mov	r7, r1
 80081ce:	4620      	mov	r0, r4
 80081d0:	4629      	mov	r1, r5
 80081d2:	f7f8 f9c9 	bl	8000568 <__aeabi_dmul>
 80081d6:	4602      	mov	r2, r0
 80081d8:	460b      	mov	r3, r1
 80081da:	4630      	mov	r0, r6
 80081dc:	4639      	mov	r1, r7
 80081de:	f7f8 f80d 	bl	80001fc <__adddf3>
 80081e2:	9a07      	ldr	r2, [sp, #28]
 80081e4:	4b37      	ldr	r3, [pc, #220]	; (80082c4 <__ieee754_pow+0x774>)
 80081e6:	4413      	add	r3, r2
 80081e8:	e9d3 2300 	ldrd	r2, r3, [r3]
 80081ec:	f7f8 f806 	bl	80001fc <__adddf3>
 80081f0:	4682      	mov	sl, r0
 80081f2:	9805      	ldr	r0, [sp, #20]
 80081f4:	468b      	mov	fp, r1
 80081f6:	f7f8 f94d 	bl	8000494 <__aeabi_i2d>
 80081fa:	9a07      	ldr	r2, [sp, #28]
 80081fc:	4b32      	ldr	r3, [pc, #200]	; (80082c8 <__ieee754_pow+0x778>)
 80081fe:	4413      	add	r3, r2
 8008200:	e9d3 8900 	ldrd	r8, r9, [r3]
 8008204:	4606      	mov	r6, r0
 8008206:	460f      	mov	r7, r1
 8008208:	4652      	mov	r2, sl
 800820a:	465b      	mov	r3, fp
 800820c:	ec51 0b18 	vmov	r0, r1, d8
 8008210:	f7f7 fff4 	bl	80001fc <__adddf3>
 8008214:	4642      	mov	r2, r8
 8008216:	464b      	mov	r3, r9
 8008218:	f7f7 fff0 	bl	80001fc <__adddf3>
 800821c:	4632      	mov	r2, r6
 800821e:	463b      	mov	r3, r7
 8008220:	f7f7 ffec 	bl	80001fc <__adddf3>
 8008224:	2000      	movs	r0, #0
 8008226:	4632      	mov	r2, r6
 8008228:	463b      	mov	r3, r7
 800822a:	4604      	mov	r4, r0
 800822c:	460d      	mov	r5, r1
 800822e:	f7f7 ffe3 	bl	80001f8 <__aeabi_dsub>
 8008232:	4642      	mov	r2, r8
 8008234:	464b      	mov	r3, r9
 8008236:	f7f7 ffdf 	bl	80001f8 <__aeabi_dsub>
 800823a:	ec53 2b18 	vmov	r2, r3, d8
 800823e:	f7f7 ffdb 	bl	80001f8 <__aeabi_dsub>
 8008242:	4602      	mov	r2, r0
 8008244:	460b      	mov	r3, r1
 8008246:	4650      	mov	r0, sl
 8008248:	4659      	mov	r1, fp
 800824a:	e610      	b.n	8007e6e <__ieee754_pow+0x31e>
 800824c:	2401      	movs	r4, #1
 800824e:	e6a1      	b.n	8007f94 <__ieee754_pow+0x444>
 8008250:	ed9f 7b13 	vldr	d7, [pc, #76]	; 80082a0 <__ieee754_pow+0x750>
 8008254:	e617      	b.n	8007e86 <__ieee754_pow+0x336>
 8008256:	bf00      	nop
 8008258:	4a454eef 	.word	0x4a454eef
 800825c:	3fca7e28 	.word	0x3fca7e28
 8008260:	93c9db65 	.word	0x93c9db65
 8008264:	3fcd864a 	.word	0x3fcd864a
 8008268:	a91d4101 	.word	0xa91d4101
 800826c:	3fd17460 	.word	0x3fd17460
 8008270:	518f264d 	.word	0x518f264d
 8008274:	3fd55555 	.word	0x3fd55555
 8008278:	db6fabff 	.word	0xdb6fabff
 800827c:	3fdb6db6 	.word	0x3fdb6db6
 8008280:	33333303 	.word	0x33333303
 8008284:	3fe33333 	.word	0x3fe33333
 8008288:	e0000000 	.word	0xe0000000
 800828c:	3feec709 	.word	0x3feec709
 8008290:	dc3a03fd 	.word	0xdc3a03fd
 8008294:	3feec709 	.word	0x3feec709
 8008298:	145b01f5 	.word	0x145b01f5
 800829c:	be3e2fe0 	.word	0xbe3e2fe0
 80082a0:	00000000 	.word	0x00000000
 80082a4:	3ff00000 	.word	0x3ff00000
 80082a8:	7ff00000 	.word	0x7ff00000
 80082ac:	43400000 	.word	0x43400000
 80082b0:	0003988e 	.word	0x0003988e
 80082b4:	000bb679 	.word	0x000bb679
 80082b8:	0800df80 	.word	0x0800df80
 80082bc:	3ff00000 	.word	0x3ff00000
 80082c0:	40080000 	.word	0x40080000
 80082c4:	0800dfa0 	.word	0x0800dfa0
 80082c8:	0800df90 	.word	0x0800df90
 80082cc:	a3b3      	add	r3, pc, #716	; (adr r3, 800859c <__ieee754_pow+0xa4c>)
 80082ce:	e9d3 2300 	ldrd	r2, r3, [r3]
 80082d2:	4640      	mov	r0, r8
 80082d4:	4649      	mov	r1, r9
 80082d6:	f7f7 ff91 	bl	80001fc <__adddf3>
 80082da:	4622      	mov	r2, r4
 80082dc:	ec41 0b1a 	vmov	d10, r0, r1
 80082e0:	462b      	mov	r3, r5
 80082e2:	4630      	mov	r0, r6
 80082e4:	4639      	mov	r1, r7
 80082e6:	f7f7 ff87 	bl	80001f8 <__aeabi_dsub>
 80082ea:	4602      	mov	r2, r0
 80082ec:	460b      	mov	r3, r1
 80082ee:	ec51 0b1a 	vmov	r0, r1, d10
 80082f2:	f7f8 fbc9 	bl	8000a88 <__aeabi_dcmpgt>
 80082f6:	2800      	cmp	r0, #0
 80082f8:	f47f ae04 	bne.w	8007f04 <__ieee754_pow+0x3b4>
 80082fc:	4aa2      	ldr	r2, [pc, #648]	; (8008588 <__ieee754_pow+0xa38>)
 80082fe:	f02b 4300 	bic.w	r3, fp, #2147483648	; 0x80000000
 8008302:	4293      	cmp	r3, r2
 8008304:	f340 8107 	ble.w	8008516 <__ieee754_pow+0x9c6>
 8008308:	151b      	asrs	r3, r3, #20
 800830a:	f2a3 33fe 	subw	r3, r3, #1022	; 0x3fe
 800830e:	f44f 1a80 	mov.w	sl, #1048576	; 0x100000
 8008312:	fa4a fa03 	asr.w	sl, sl, r3
 8008316:	44da      	add	sl, fp
 8008318:	f3ca 510a 	ubfx	r1, sl, #20, #11
 800831c:	489b      	ldr	r0, [pc, #620]	; (800858c <__ieee754_pow+0xa3c>)
 800831e:	f2a1 31ff 	subw	r1, r1, #1023	; 0x3ff
 8008322:	4108      	asrs	r0, r1
 8008324:	ea00 030a 	and.w	r3, r0, sl
 8008328:	f3ca 0a13 	ubfx	sl, sl, #0, #20
 800832c:	f1c1 0114 	rsb	r1, r1, #20
 8008330:	f44a 1a80 	orr.w	sl, sl, #1048576	; 0x100000
 8008334:	fa4a fa01 	asr.w	sl, sl, r1
 8008338:	f1bb 0f00 	cmp.w	fp, #0
 800833c:	f04f 0200 	mov.w	r2, #0
 8008340:	4620      	mov	r0, r4
 8008342:	4629      	mov	r1, r5
 8008344:	bfb8      	it	lt
 8008346:	f1ca 0a00 	rsblt	sl, sl, #0
 800834a:	f7f7 ff55 	bl	80001f8 <__aeabi_dsub>
 800834e:	ec41 0b19 	vmov	d9, r0, r1
 8008352:	4642      	mov	r2, r8
 8008354:	464b      	mov	r3, r9
 8008356:	ec51 0b19 	vmov	r0, r1, d9
 800835a:	f7f7 ff4f 	bl	80001fc <__adddf3>
 800835e:	a37a      	add	r3, pc, #488	; (adr r3, 8008548 <__ieee754_pow+0x9f8>)
 8008360:	e9d3 2300 	ldrd	r2, r3, [r3]
 8008364:	2000      	movs	r0, #0
 8008366:	4604      	mov	r4, r0
 8008368:	460d      	mov	r5, r1
 800836a:	f7f8 f8fd 	bl	8000568 <__aeabi_dmul>
 800836e:	ec53 2b19 	vmov	r2, r3, d9
 8008372:	4606      	mov	r6, r0
 8008374:	460f      	mov	r7, r1
 8008376:	4620      	mov	r0, r4
 8008378:	4629      	mov	r1, r5
 800837a:	f7f7 ff3d 	bl	80001f8 <__aeabi_dsub>
 800837e:	4602      	mov	r2, r0
 8008380:	460b      	mov	r3, r1
 8008382:	4640      	mov	r0, r8
 8008384:	4649      	mov	r1, r9
 8008386:	f7f7 ff37 	bl	80001f8 <__aeabi_dsub>
 800838a:	a371      	add	r3, pc, #452	; (adr r3, 8008550 <__ieee754_pow+0xa00>)
 800838c:	e9d3 2300 	ldrd	r2, r3, [r3]
 8008390:	f7f8 f8ea 	bl	8000568 <__aeabi_dmul>
 8008394:	a370      	add	r3, pc, #448	; (adr r3, 8008558 <__ieee754_pow+0xa08>)
 8008396:	e9d3 2300 	ldrd	r2, r3, [r3]
 800839a:	4680      	mov	r8, r0
 800839c:	4689      	mov	r9, r1
 800839e:	4620      	mov	r0, r4
 80083a0:	4629      	mov	r1, r5
 80083a2:	f7f8 f8e1 	bl	8000568 <__aeabi_dmul>
 80083a6:	4602      	mov	r2, r0
 80083a8:	460b      	mov	r3, r1
 80083aa:	4640      	mov	r0, r8
 80083ac:	4649      	mov	r1, r9
 80083ae:	f7f7 ff25 	bl	80001fc <__adddf3>
 80083b2:	4604      	mov	r4, r0
 80083b4:	460d      	mov	r5, r1
 80083b6:	4602      	mov	r2, r0
 80083b8:	460b      	mov	r3, r1
 80083ba:	4630      	mov	r0, r6
 80083bc:	4639      	mov	r1, r7
 80083be:	f7f7 ff1d 	bl	80001fc <__adddf3>
 80083c2:	4632      	mov	r2, r6
 80083c4:	463b      	mov	r3, r7
 80083c6:	4680      	mov	r8, r0
 80083c8:	4689      	mov	r9, r1
 80083ca:	f7f7 ff15 	bl	80001f8 <__aeabi_dsub>
 80083ce:	4602      	mov	r2, r0
 80083d0:	460b      	mov	r3, r1
 80083d2:	4620      	mov	r0, r4
 80083d4:	4629      	mov	r1, r5
 80083d6:	f7f7 ff0f 	bl	80001f8 <__aeabi_dsub>
 80083da:	4642      	mov	r2, r8
 80083dc:	4606      	mov	r6, r0
 80083de:	460f      	mov	r7, r1
 80083e0:	464b      	mov	r3, r9
 80083e2:	4640      	mov	r0, r8
 80083e4:	4649      	mov	r1, r9
 80083e6:	f7f8 f8bf 	bl	8000568 <__aeabi_dmul>
 80083ea:	a35d      	add	r3, pc, #372	; (adr r3, 8008560 <__ieee754_pow+0xa10>)
 80083ec:	e9d3 2300 	ldrd	r2, r3, [r3]
 80083f0:	4604      	mov	r4, r0
 80083f2:	460d      	mov	r5, r1
 80083f4:	f7f8 f8b8 	bl	8000568 <__aeabi_dmul>
 80083f8:	a35b      	add	r3, pc, #364	; (adr r3, 8008568 <__ieee754_pow+0xa18>)
 80083fa:	e9d3 2300 	ldrd	r2, r3, [r3]
 80083fe:	f7f7 fefb 	bl	80001f8 <__aeabi_dsub>
 8008402:	4622      	mov	r2, r4
 8008404:	462b      	mov	r3, r5
 8008406:	f7f8 f8af 	bl	8000568 <__aeabi_dmul>
 800840a:	a359      	add	r3, pc, #356	; (adr r3, 8008570 <__ieee754_pow+0xa20>)
 800840c:	e9d3 2300 	ldrd	r2, r3, [r3]
 8008410:	f7f7 fef4 	bl	80001fc <__adddf3>
 8008414:	4622      	mov	r2, r4
 8008416:	462b      	mov	r3, r5
 8008418:	f7f8 f8a6 	bl	8000568 <__aeabi_dmul>
 800841c:	a356      	add	r3, pc, #344	; (adr r3, 8008578 <__ieee754_pow+0xa28>)
 800841e:	e9d3 2300 	ldrd	r2, r3, [r3]
 8008422:	f7f7 fee9 	bl	80001f8 <__aeabi_dsub>
 8008426:	4622      	mov	r2, r4
 8008428:	462b      	mov	r3, r5
 800842a:	f7f8 f89d 	bl	8000568 <__aeabi_dmul>
 800842e:	a354      	add	r3, pc, #336	; (adr r3, 8008580 <__ieee754_pow+0xa30>)
 8008430:	e9d3 2300 	ldrd	r2, r3, [r3]
 8008434:	f7f7 fee2 	bl	80001fc <__adddf3>
 8008438:	4622      	mov	r2, r4
 800843a:	462b      	mov	r3, r5
 800843c:	f7f8 f894 	bl	8000568 <__aeabi_dmul>
 8008440:	4602      	mov	r2, r0
 8008442:	460b      	mov	r3, r1
 8008444:	4640      	mov	r0, r8
 8008446:	4649      	mov	r1, r9
 8008448:	f7f7 fed6 	bl	80001f8 <__aeabi_dsub>
 800844c:	4604      	mov	r4, r0
 800844e:	460d      	mov	r5, r1
 8008450:	4602      	mov	r2, r0
 8008452:	460b      	mov	r3, r1
 8008454:	4640      	mov	r0, r8
 8008456:	4649      	mov	r1, r9
 8008458:	f7f8 f886 	bl	8000568 <__aeabi_dmul>
 800845c:	2200      	movs	r2, #0
 800845e:	ec41 0b19 	vmov	d9, r0, r1
 8008462:	f04f 4380 	mov.w	r3, #1073741824	; 0x40000000
 8008466:	4620      	mov	r0, r4
 8008468:	4629      	mov	r1, r5
 800846a:	f7f7 fec5 	bl	80001f8 <__aeabi_dsub>
 800846e:	4602      	mov	r2, r0
 8008470:	460b      	mov	r3, r1
 8008472:	ec51 0b19 	vmov	r0, r1, d9
 8008476:	f7f8 f9a1 	bl	80007bc <__aeabi_ddiv>
 800847a:	4632      	mov	r2, r6
 800847c:	4604      	mov	r4, r0
 800847e:	460d      	mov	r5, r1
 8008480:	463b      	mov	r3, r7
 8008482:	4640      	mov	r0, r8
 8008484:	4649      	mov	r1, r9
 8008486:	f7f8 f86f 	bl	8000568 <__aeabi_dmul>
 800848a:	4632      	mov	r2, r6
 800848c:	463b      	mov	r3, r7
 800848e:	f7f7 feb5 	bl	80001fc <__adddf3>
 8008492:	4602      	mov	r2, r0
 8008494:	460b      	mov	r3, r1
 8008496:	4620      	mov	r0, r4
 8008498:	4629      	mov	r1, r5
 800849a:	f7f7 fead 	bl	80001f8 <__aeabi_dsub>
 800849e:	4642      	mov	r2, r8
 80084a0:	464b      	mov	r3, r9
 80084a2:	f7f7 fea9 	bl	80001f8 <__aeabi_dsub>
 80084a6:	460b      	mov	r3, r1
 80084a8:	4602      	mov	r2, r0
 80084aa:	4939      	ldr	r1, [pc, #228]	; (8008590 <__ieee754_pow+0xa40>)
 80084ac:	2000      	movs	r0, #0
 80084ae:	f7f7 fea3 	bl	80001f8 <__aeabi_dsub>
 80084b2:	ec41 0b10 	vmov	d0, r0, r1
 80084b6:	ee10 3a90 	vmov	r3, s1
 80084ba:	eb03 530a 	add.w	r3, r3, sl, lsl #20
 80084be:	f5b3 1f80 	cmp.w	r3, #1048576	; 0x100000
 80084c2:	da2b      	bge.n	800851c <__ieee754_pow+0x9cc>
 80084c4:	4650      	mov	r0, sl
 80084c6:	f000 f877 	bl	80085b8 <scalbn>
 80084ca:	ec51 0b10 	vmov	r0, r1, d0
 80084ce:	ec53 2b18 	vmov	r2, r3, d8
 80084d2:	f7ff bbee 	b.w	8007cb2 <__ieee754_pow+0x162>
 80084d6:	4b2f      	ldr	r3, [pc, #188]	; (8008594 <__ieee754_pow+0xa44>)
 80084d8:	f021 4600 	bic.w	r6, r1, #2147483648	; 0x80000000
 80084dc:	429e      	cmp	r6, r3
 80084de:	f77f af0d 	ble.w	80082fc <__ieee754_pow+0x7ac>
 80084e2:	4b2d      	ldr	r3, [pc, #180]	; (8008598 <__ieee754_pow+0xa48>)
 80084e4:	440b      	add	r3, r1
 80084e6:	4303      	orrs	r3, r0
 80084e8:	d009      	beq.n	80084fe <__ieee754_pow+0x9ae>
 80084ea:	ec51 0b18 	vmov	r0, r1, d8
 80084ee:	2200      	movs	r2, #0
 80084f0:	2300      	movs	r3, #0
 80084f2:	f7f8 faab 	bl	8000a4c <__aeabi_dcmplt>
 80084f6:	3800      	subs	r0, #0
 80084f8:	bf18      	it	ne
 80084fa:	2001      	movne	r0, #1
 80084fc:	e448      	b.n	8007d90 <__ieee754_pow+0x240>
 80084fe:	4622      	mov	r2, r4
 8008500:	462b      	mov	r3, r5
 8008502:	f7f7 fe79 	bl	80001f8 <__aeabi_dsub>
 8008506:	4642      	mov	r2, r8
 8008508:	464b      	mov	r3, r9
 800850a:	f7f8 fab3 	bl	8000a74 <__aeabi_dcmpge>
 800850e:	2800      	cmp	r0, #0
 8008510:	f43f aef4 	beq.w	80082fc <__ieee754_pow+0x7ac>
 8008514:	e7e9      	b.n	80084ea <__ieee754_pow+0x99a>
 8008516:	f04f 0a00 	mov.w	sl, #0
 800851a:	e71a      	b.n	8008352 <__ieee754_pow+0x802>
 800851c:	ec51 0b10 	vmov	r0, r1, d0
 8008520:	4619      	mov	r1, r3
 8008522:	e7d4      	b.n	80084ce <__ieee754_pow+0x97e>
 8008524:	491a      	ldr	r1, [pc, #104]	; (8008590 <__ieee754_pow+0xa40>)
 8008526:	2000      	movs	r0, #0
 8008528:	f7ff bb31 	b.w	8007b8e <__ieee754_pow+0x3e>
 800852c:	2000      	movs	r0, #0
 800852e:	2100      	movs	r1, #0
 8008530:	f7ff bb2d 	b.w	8007b8e <__ieee754_pow+0x3e>
 8008534:	4630      	mov	r0, r6
 8008536:	4639      	mov	r1, r7
 8008538:	f7ff bb29 	b.w	8007b8e <__ieee754_pow+0x3e>
 800853c:	9204      	str	r2, [sp, #16]
 800853e:	f7ff bb7b 	b.w	8007c38 <__ieee754_pow+0xe8>
 8008542:	2300      	movs	r3, #0
 8008544:	f7ff bb65 	b.w	8007c12 <__ieee754_pow+0xc2>
 8008548:	00000000 	.word	0x00000000
 800854c:	3fe62e43 	.word	0x3fe62e43
 8008550:	fefa39ef 	.word	0xfefa39ef
 8008554:	3fe62e42 	.word	0x3fe62e42
 8008558:	0ca86c39 	.word	0x0ca86c39
 800855c:	be205c61 	.word	0xbe205c61
 8008560:	72bea4d0 	.word	0x72bea4d0
 8008564:	3e663769 	.word	0x3e663769
 8008568:	c5d26bf1 	.word	0xc5d26bf1
 800856c:	3ebbbd41 	.word	0x3ebbbd41
 8008570:	af25de2c 	.word	0xaf25de2c
 8008574:	3f11566a 	.word	0x3f11566a
 8008578:	16bebd93 	.word	0x16bebd93
 800857c:	3f66c16c 	.word	0x3f66c16c
 8008580:	5555553e 	.word	0x5555553e
 8008584:	3fc55555 	.word	0x3fc55555
 8008588:	3fe00000 	.word	0x3fe00000
 800858c:	fff00000 	.word	0xfff00000
 8008590:	3ff00000 	.word	0x3ff00000
 8008594:	4090cbff 	.word	0x4090cbff
 8008598:	3f6f3400 	.word	0x3f6f3400
 800859c:	652b82fe 	.word	0x652b82fe
 80085a0:	3c971547 	.word	0x3c971547

080085a4 <fabs>:
 80085a4:	ec51 0b10 	vmov	r0, r1, d0
 80085a8:	ee10 2a10 	vmov	r2, s0
 80085ac:	f021 4300 	bic.w	r3, r1, #2147483648	; 0x80000000
 80085b0:	ec43 2b10 	vmov	d0, r2, r3
 80085b4:	4770      	bx	lr
	...

080085b8 <scalbn>:
 80085b8:	b570      	push	{r4, r5, r6, lr}
 80085ba:	ec55 4b10 	vmov	r4, r5, d0
 80085be:	f3c5 510a 	ubfx	r1, r5, #20, #11
 80085c2:	4606      	mov	r6, r0
 80085c4:	462b      	mov	r3, r5
 80085c6:	b999      	cbnz	r1, 80085f0 <scalbn+0x38>
 80085c8:	f025 4300 	bic.w	r3, r5, #2147483648	; 0x80000000
 80085cc:	4323      	orrs	r3, r4
 80085ce:	d03f      	beq.n	8008650 <scalbn+0x98>
 80085d0:	4b35      	ldr	r3, [pc, #212]	; (80086a8 <scalbn+0xf0>)
 80085d2:	4629      	mov	r1, r5
 80085d4:	ee10 0a10 	vmov	r0, s0
 80085d8:	2200      	movs	r2, #0
 80085da:	f7f7 ffc5 	bl	8000568 <__aeabi_dmul>
 80085de:	4b33      	ldr	r3, [pc, #204]	; (80086ac <scalbn+0xf4>)
 80085e0:	429e      	cmp	r6, r3
 80085e2:	4604      	mov	r4, r0
 80085e4:	460d      	mov	r5, r1
 80085e6:	da10      	bge.n	800860a <scalbn+0x52>
 80085e8:	a327      	add	r3, pc, #156	; (adr r3, 8008688 <scalbn+0xd0>)
 80085ea:	e9d3 2300 	ldrd	r2, r3, [r3]
 80085ee:	e01f      	b.n	8008630 <scalbn+0x78>
 80085f0:	f240 72ff 	movw	r2, #2047	; 0x7ff
 80085f4:	4291      	cmp	r1, r2
 80085f6:	d10c      	bne.n	8008612 <scalbn+0x5a>
 80085f8:	ee10 2a10 	vmov	r2, s0
 80085fc:	4620      	mov	r0, r4
 80085fe:	4629      	mov	r1, r5
 8008600:	f7f7 fdfc 	bl	80001fc <__adddf3>
 8008604:	4604      	mov	r4, r0
 8008606:	460d      	mov	r5, r1
 8008608:	e022      	b.n	8008650 <scalbn+0x98>
 800860a:	460b      	mov	r3, r1
 800860c:	f3c1 510a 	ubfx	r1, r1, #20, #11
 8008610:	3936      	subs	r1, #54	; 0x36
 8008612:	f24c 3250 	movw	r2, #50000	; 0xc350
 8008616:	4296      	cmp	r6, r2
 8008618:	dd0d      	ble.n	8008636 <scalbn+0x7e>
 800861a:	2d00      	cmp	r5, #0
 800861c:	a11c      	add	r1, pc, #112	; (adr r1, 8008690 <scalbn+0xd8>)
 800861e:	e9d1 0100 	ldrd	r0, r1, [r1]
 8008622:	da02      	bge.n	800862a <scalbn+0x72>
 8008624:	a11c      	add	r1, pc, #112	; (adr r1, 8008698 <scalbn+0xe0>)
 8008626:	e9d1 0100 	ldrd	r0, r1, [r1]
 800862a:	a319      	add	r3, pc, #100	; (adr r3, 8008690 <scalbn+0xd8>)
 800862c:	e9d3 2300 	ldrd	r2, r3, [r3]
 8008630:	f7f7 ff9a 	bl	8000568 <__aeabi_dmul>
 8008634:	e7e6      	b.n	8008604 <scalbn+0x4c>
 8008636:	1872      	adds	r2, r6, r1
 8008638:	f240 71fe 	movw	r1, #2046	; 0x7fe
 800863c:	428a      	cmp	r2, r1
 800863e:	dcec      	bgt.n	800861a <scalbn+0x62>
 8008640:	2a00      	cmp	r2, #0
 8008642:	dd08      	ble.n	8008656 <scalbn+0x9e>
 8008644:	f023 43ff 	bic.w	r3, r3, #2139095040	; 0x7f800000
 8008648:	f423 03e0 	bic.w	r3, r3, #7340032	; 0x700000
 800864c:	ea43 5502 	orr.w	r5, r3, r2, lsl #20
 8008650:	ec45 4b10 	vmov	d0, r4, r5
 8008654:	bd70      	pop	{r4, r5, r6, pc}
 8008656:	f112 0f35 	cmn.w	r2, #53	; 0x35
 800865a:	da08      	bge.n	800866e <scalbn+0xb6>
 800865c:	2d00      	cmp	r5, #0
 800865e:	a10a      	add	r1, pc, #40	; (adr r1, 8008688 <scalbn+0xd0>)
 8008660:	e9d1 0100 	ldrd	r0, r1, [r1]
 8008664:	dac0      	bge.n	80085e8 <scalbn+0x30>
 8008666:	a10e      	add	r1, pc, #56	; (adr r1, 80086a0 <scalbn+0xe8>)
 8008668:	e9d1 0100 	ldrd	r0, r1, [r1]
 800866c:	e7bc      	b.n	80085e8 <scalbn+0x30>
 800866e:	f023 43ff 	bic.w	r3, r3, #2139095040	; 0x7f800000
 8008672:	3236      	adds	r2, #54	; 0x36
 8008674:	f423 03e0 	bic.w	r3, r3, #7340032	; 0x700000
 8008678:	ea43 5102 	orr.w	r1, r3, r2, lsl #20
 800867c:	4620      	mov	r0, r4
 800867e:	4b0c      	ldr	r3, [pc, #48]	; (80086b0 <scalbn+0xf8>)
 8008680:	2200      	movs	r2, #0
 8008682:	e7d5      	b.n	8008630 <scalbn+0x78>
 8008684:	f3af 8000 	nop.w
 8008688:	c2f8f359 	.word	0xc2f8f359
 800868c:	01a56e1f 	.word	0x01a56e1f
 8008690:	8800759c 	.word	0x8800759c
 8008694:	7e37e43c 	.word	0x7e37e43c
 8008698:	8800759c 	.word	0x8800759c
 800869c:	fe37e43c 	.word	0xfe37e43c
 80086a0:	c2f8f359 	.word	0xc2f8f359
 80086a4:	81a56e1f 	.word	0x81a56e1f
 80086a8:	43500000 	.word	0x43500000
 80086ac:	ffff3cb0 	.word	0xffff3cb0
 80086b0:	3c900000 	.word	0x3c900000

080086b4 <with_errno>:
 80086b4:	b570      	push	{r4, r5, r6, lr}
 80086b6:	4604      	mov	r4, r0
 80086b8:	460d      	mov	r5, r1
 80086ba:	4616      	mov	r6, r2
 80086bc:	f7ff f9a2 	bl	8007a04 <__errno>
 80086c0:	4629      	mov	r1, r5
 80086c2:	6006      	str	r6, [r0, #0]
 80086c4:	4620      	mov	r0, r4
 80086c6:	bd70      	pop	{r4, r5, r6, pc}

080086c8 <xflow>:
 80086c8:	b537      	push	{r0, r1, r2, r4, r5, lr}
 80086ca:	4614      	mov	r4, r2
 80086cc:	461d      	mov	r5, r3
 80086ce:	b108      	cbz	r0, 80086d4 <xflow+0xc>
 80086d0:	f103 4300 	add.w	r3, r3, #2147483648	; 0x80000000
 80086d4:	e9cd 2300 	strd	r2, r3, [sp]
 80086d8:	e9dd 2300 	ldrd	r2, r3, [sp]
 80086dc:	4620      	mov	r0, r4
 80086de:	4629      	mov	r1, r5
 80086e0:	f7f7 ff42 	bl	8000568 <__aeabi_dmul>
 80086e4:	2222      	movs	r2, #34	; 0x22
 80086e6:	b003      	add	sp, #12
 80086e8:	e8bd 4030 	ldmia.w	sp!, {r4, r5, lr}
 80086ec:	f7ff bfe2 	b.w	80086b4 <with_errno>

080086f0 <__math_uflow>:
 80086f0:	b508      	push	{r3, lr}
 80086f2:	2200      	movs	r2, #0
 80086f4:	f04f 5380 	mov.w	r3, #268435456	; 0x10000000
 80086f8:	f7ff ffe6 	bl	80086c8 <xflow>
 80086fc:	ec41 0b10 	vmov	d0, r0, r1
 8008700:	bd08      	pop	{r3, pc}

08008702 <__math_oflow>:
 8008702:	b508      	push	{r3, lr}
 8008704:	2200      	movs	r2, #0
 8008706:	f04f 43e0 	mov.w	r3, #1879048192	; 0x70000000
 800870a:	f7ff ffdd 	bl	80086c8 <xflow>
 800870e:	ec41 0b10 	vmov	d0, r0, r1
 8008712:	bd08      	pop	{r3, pc}

08008714 <__ieee754_sqrt>:
 8008714:	e92d 4ff8 	stmdb	sp!, {r3, r4, r5, r6, r7, r8, r9, sl, fp, lr}
 8008718:	ec55 4b10 	vmov	r4, r5, d0
 800871c:	4e67      	ldr	r6, [pc, #412]	; (80088bc <__ieee754_sqrt+0x1a8>)
 800871e:	43ae      	bics	r6, r5
 8008720:	ee10 0a10 	vmov	r0, s0
 8008724:	ee10 2a10 	vmov	r2, s0
 8008728:	4629      	mov	r1, r5
 800872a:	462b      	mov	r3, r5
 800872c:	d10d      	bne.n	800874a <__ieee754_sqrt+0x36>
 800872e:	f7f7 ff1b 	bl	8000568 <__aeabi_dmul>
 8008732:	4602      	mov	r2, r0
 8008734:	460b      	mov	r3, r1
 8008736:	4620      	mov	r0, r4
 8008738:	4629      	mov	r1, r5
 800873a:	f7f7 fd5f 	bl	80001fc <__adddf3>
 800873e:	4604      	mov	r4, r0
 8008740:	460d      	mov	r5, r1
 8008742:	ec45 4b10 	vmov	d0, r4, r5
 8008746:	e8bd 8ff8 	ldmia.w	sp!, {r3, r4, r5, r6, r7, r8, r9, sl, fp, pc}
 800874a:	2d00      	cmp	r5, #0
 800874c:	dc0b      	bgt.n	8008766 <__ieee754_sqrt+0x52>
 800874e:	f025 4600 	bic.w	r6, r5, #2147483648	; 0x80000000
 8008752:	4326      	orrs	r6, r4
 8008754:	d0f5      	beq.n	8008742 <__ieee754_sqrt+0x2e>
 8008756:	b135      	cbz	r5, 8008766 <__ieee754_sqrt+0x52>
 8008758:	f7f7 fd4e 	bl	80001f8 <__aeabi_dsub>
 800875c:	4602      	mov	r2, r0
 800875e:	460b      	mov	r3, r1
 8008760:	f7f8 f82c 	bl	80007bc <__aeabi_ddiv>
 8008764:	e7eb      	b.n	800873e <__ieee754_sqrt+0x2a>
 8008766:	1509      	asrs	r1, r1, #20
 8008768:	f000 808d 	beq.w	8008886 <__ieee754_sqrt+0x172>
 800876c:	f3c3 0313 	ubfx	r3, r3, #0, #20
 8008770:	f2a1 36ff 	subw	r6, r1, #1023	; 0x3ff
 8008774:	f443 1380 	orr.w	r3, r3, #1048576	; 0x100000
 8008778:	07c9      	lsls	r1, r1, #31
 800877a:	bf5c      	itt	pl
 800877c:	005b      	lslpl	r3, r3, #1
 800877e:	eb03 73d2 	addpl.w	r3, r3, r2, lsr #31
 8008782:	ea4f 0343 	mov.w	r3, r3, lsl #1
 8008786:	bf58      	it	pl
 8008788:	0052      	lslpl	r2, r2, #1
 800878a:	2500      	movs	r5, #0
 800878c:	eb03 73d2 	add.w	r3, r3, r2, lsr #31
 8008790:	1076      	asrs	r6, r6, #1
 8008792:	0052      	lsls	r2, r2, #1
 8008794:	f04f 0e16 	mov.w	lr, #22
 8008798:	46ac      	mov	ip, r5
 800879a:	f44f 1100 	mov.w	r1, #2097152	; 0x200000
 800879e:	eb0c 0001 	add.w	r0, ip, r1
 80087a2:	4298      	cmp	r0, r3
 80087a4:	bfde      	ittt	le
 80087a6:	1a1b      	suble	r3, r3, r0
 80087a8:	eb00 0c01 	addle.w	ip, r0, r1
 80087ac:	186d      	addle	r5, r5, r1
 80087ae:	005b      	lsls	r3, r3, #1
 80087b0:	f1be 0e01 	subs.w	lr, lr, #1
 80087b4:	eb03 73d2 	add.w	r3, r3, r2, lsr #31
 80087b8:	ea4f 0151 	mov.w	r1, r1, lsr #1
 80087bc:	ea4f 0242 	mov.w	r2, r2, lsl #1
 80087c0:	d1ed      	bne.n	800879e <__ieee754_sqrt+0x8a>
 80087c2:	4674      	mov	r4, lr
 80087c4:	2720      	movs	r7, #32
 80087c6:	f04f 4100 	mov.w	r1, #2147483648	; 0x80000000
 80087ca:	4563      	cmp	r3, ip
 80087cc:	eb01 000e 	add.w	r0, r1, lr
 80087d0:	dc02      	bgt.n	80087d8 <__ieee754_sqrt+0xc4>
 80087d2:	d113      	bne.n	80087fc <__ieee754_sqrt+0xe8>
 80087d4:	4290      	cmp	r0, r2
 80087d6:	d811      	bhi.n	80087fc <__ieee754_sqrt+0xe8>
 80087d8:	2800      	cmp	r0, #0
 80087da:	eb00 0e01 	add.w	lr, r0, r1
 80087de:	da57      	bge.n	8008890 <__ieee754_sqrt+0x17c>
 80087e0:	f1be 0f00 	cmp.w	lr, #0
 80087e4:	db54      	blt.n	8008890 <__ieee754_sqrt+0x17c>
 80087e6:	f10c 0801 	add.w	r8, ip, #1
 80087ea:	eba3 030c 	sub.w	r3, r3, ip
 80087ee:	4290      	cmp	r0, r2
 80087f0:	bf88      	it	hi
 80087f2:	f103 33ff 	addhi.w	r3, r3, #4294967295
 80087f6:	1a12      	subs	r2, r2, r0
 80087f8:	440c      	add	r4, r1
 80087fa:	46c4      	mov	ip, r8
 80087fc:	005b      	lsls	r3, r3, #1
 80087fe:	3f01      	subs	r7, #1
 8008800:	eb03 73d2 	add.w	r3, r3, r2, lsr #31
 8008804:	ea4f 0151 	mov.w	r1, r1, lsr #1
 8008808:	ea4f 0242 	mov.w	r2, r2, lsl #1
 800880c:	d1dd      	bne.n	80087ca <__ieee754_sqrt+0xb6>
 800880e:	4313      	orrs	r3, r2
 8008810:	d01b      	beq.n	800884a <__ieee754_sqrt+0x136>
 8008812:	f8df a0ac 	ldr.w	sl, [pc, #172]	; 80088c0 <__ieee754_sqrt+0x1ac>
 8008816:	f8df b0ac 	ldr.w	fp, [pc, #172]	; 80088c4 <__ieee754_sqrt+0x1b0>
 800881a:	e9da 0100 	ldrd	r0, r1, [sl]
 800881e:	e9db 2300 	ldrd	r2, r3, [fp]
 8008822:	f7f7 fce9 	bl	80001f8 <__aeabi_dsub>
 8008826:	e9da 8900 	ldrd	r8, r9, [sl]
 800882a:	4602      	mov	r2, r0
 800882c:	460b      	mov	r3, r1
 800882e:	4640      	mov	r0, r8
 8008830:	4649      	mov	r1, r9
 8008832:	f7f8 f915 	bl	8000a60 <__aeabi_dcmple>
 8008836:	b140      	cbz	r0, 800884a <__ieee754_sqrt+0x136>
 8008838:	f1b4 3fff 	cmp.w	r4, #4294967295
 800883c:	e9da 0100 	ldrd	r0, r1, [sl]
 8008840:	e9db 2300 	ldrd	r2, r3, [fp]
 8008844:	d126      	bne.n	8008894 <__ieee754_sqrt+0x180>
 8008846:	3501      	adds	r5, #1
 8008848:	463c      	mov	r4, r7
 800884a:	106a      	asrs	r2, r5, #1
 800884c:	0863      	lsrs	r3, r4, #1
 800884e:	07e9      	lsls	r1, r5, #31
 8008850:	f102 527f 	add.w	r2, r2, #1069547520	; 0x3fc00000
 8008854:	f502 1200 	add.w	r2, r2, #2097152	; 0x200000
 8008858:	bf48      	it	mi
 800885a:	f043 4300 	orrmi.w	r3, r3, #2147483648	; 0x80000000
 800885e:	eb02 5506 	add.w	r5, r2, r6, lsl #20
 8008862:	461c      	mov	r4, r3
 8008864:	e76d      	b.n	8008742 <__ieee754_sqrt+0x2e>
 8008866:	0ad3      	lsrs	r3, r2, #11
 8008868:	3815      	subs	r0, #21
 800886a:	0552      	lsls	r2, r2, #21
 800886c:	2b00      	cmp	r3, #0
 800886e:	d0fa      	beq.n	8008866 <__ieee754_sqrt+0x152>
 8008870:	02dc      	lsls	r4, r3, #11
 8008872:	d50a      	bpl.n	800888a <__ieee754_sqrt+0x176>
 8008874:	f1c1 0420 	rsb	r4, r1, #32
 8008878:	fa22 f404 	lsr.w	r4, r2, r4
 800887c:	1e4d      	subs	r5, r1, #1
 800887e:	408a      	lsls	r2, r1
 8008880:	4323      	orrs	r3, r4
 8008882:	1b41      	subs	r1, r0, r5
 8008884:	e772      	b.n	800876c <__ieee754_sqrt+0x58>
 8008886:	4608      	mov	r0, r1
 8008888:	e7f0      	b.n	800886c <__ieee754_sqrt+0x158>
 800888a:	005b      	lsls	r3, r3, #1
 800888c:	3101      	adds	r1, #1
 800888e:	e7ef      	b.n	8008870 <__ieee754_sqrt+0x15c>
 8008890:	46e0      	mov	r8, ip
 8008892:	e7aa      	b.n	80087ea <__ieee754_sqrt+0xd6>
 8008894:	f7f7 fcb2 	bl	80001fc <__adddf3>
 8008898:	e9da 8900 	ldrd	r8, r9, [sl]
 800889c:	4602      	mov	r2, r0
 800889e:	460b      	mov	r3, r1
 80088a0:	4640      	mov	r0, r8
 80088a2:	4649      	mov	r1, r9
 80088a4:	f7f8 f8d2 	bl	8000a4c <__aeabi_dcmplt>
 80088a8:	b120      	cbz	r0, 80088b4 <__ieee754_sqrt+0x1a0>
 80088aa:	1ca0      	adds	r0, r4, #2
 80088ac:	bf08      	it	eq
 80088ae:	3501      	addeq	r5, #1
 80088b0:	3402      	adds	r4, #2
 80088b2:	e7ca      	b.n	800884a <__ieee754_sqrt+0x136>
 80088b4:	3401      	adds	r4, #1
 80088b6:	f024 0401 	bic.w	r4, r4, #1
 80088ba:	e7c6      	b.n	800884a <__ieee754_sqrt+0x136>
 80088bc:	7ff00000 	.word	0x7ff00000
 80088c0:	20000078 	.word	0x20000078
 80088c4:	20000080 	.word	0x20000080

080088c8 <_init>:
 80088c8:	b5f8      	push	{r3, r4, r5, r6, r7, lr}
 80088ca:	bf00      	nop
 80088cc:	bcf8      	pop	{r3, r4, r5, r6, r7}
 80088ce:	bc08      	pop	{r3}
 80088d0:	469e      	mov	lr, r3
 80088d2:	4770      	bx	lr

080088d4 <_fini>:
 80088d4:	b5f8      	push	{r3, r4, r5, r6, r7, lr}
 80088d6:	bf00      	nop
 80088d8:	bcf8      	pop	{r3, r4, r5, r6, r7}
 80088da:	bc08      	pop	{r3}
 80088dc:	469e      	mov	lr, r3
 80088de:	4770      	bx	lr
